Archive member included because of file (symbol)

d:/altera/13.0/nios2eds/bin/gnu/h-i686-mingw32/bin/../lib/gcc/nios2-elf/4.1.2\libgcc.a(_fixunsdfsi.o)
                              obj/default/dm9000a.o (__fixunsdfsi)
d:/altera/13.0/nios2eds/bin/gnu/h-i686-mingw32/bin/../lib/gcc/nios2-elf/4.1.2\libgcc.a(_addsub_sf.o)
                              obj/default/my_threads.o (__addsf3)
d:/altera/13.0/nios2eds/bin/gnu/h-i686-mingw32/bin/../lib/gcc/nios2-elf/4.1.2\libgcc.a(_mul_sf.o)
                              obj/default/my_threads.o (__mulsf3)
d:/altera/13.0/nios2eds/bin/gnu/h-i686-mingw32/bin/../lib/gcc/nios2-elf/4.1.2\libgcc.a(_div_sf.o)
                              obj/default/my_threads.o (__divsf3)
d:/altera/13.0/nios2eds/bin/gnu/h-i686-mingw32/bin/../lib/gcc/nios2-elf/4.1.2\libgcc.a(_sf_to_si.o)
                              obj/default/my_threads.o (__fixsfsi)
d:/altera/13.0/nios2eds/bin/gnu/h-i686-mingw32/bin/../lib/gcc/nios2-elf/4.1.2\libgcc.a(_thenan_sf.o)
                              d:/altera/13.0/nios2eds/bin/gnu/h-i686-mingw32/bin/../lib/gcc/nios2-elf/4.1.2\libgcc.a(_addsub_sf.o) (__thenan_sf)
d:/altera/13.0/nios2eds/bin/gnu/h-i686-mingw32/bin/../lib/gcc/nios2-elf/4.1.2\libgcc.a(_usi_to_sf.o)
                              obj/default/my_threads.o (__floatunsisf)
d:/altera/13.0/nios2eds/bin/gnu/h-i686-mingw32/bin/../lib/gcc/nios2-elf/4.1.2\libgcc.a(_addsub_df.o)
                              d:/altera/13.0/nios2eds/bin/gnu/h-i686-mingw32/bin/../lib/gcc/nios2-elf/4.1.2\libgcc.a(_fixunsdfsi.o) (__subdf3)
d:/altera/13.0/nios2eds/bin/gnu/h-i686-mingw32/bin/../lib/gcc/nios2-elf/4.1.2\libgcc.a(_mul_df.o)
                              obj/default/dm9000a.o (__muldf3)
d:/altera/13.0/nios2eds/bin/gnu/h-i686-mingw32/bin/../lib/gcc/nios2-elf/4.1.2\libgcc.a(_ge_df.o)
                              d:/altera/13.0/nios2eds/bin/gnu/h-i686-mingw32/bin/../lib/gcc/nios2-elf/4.1.2\libgcc.a(_fixunsdfsi.o) (__gedf2)
d:/altera/13.0/nios2eds/bin/gnu/h-i686-mingw32/bin/../lib/gcc/nios2-elf/4.1.2\libgcc.a(_df_to_si.o)
                              d:/altera/13.0/nios2eds/bin/gnu/h-i686-mingw32/bin/../lib/gcc/nios2-elf/4.1.2\libgcc.a(_fixunsdfsi.o) (__fixdfsi)
d:/altera/13.0/nios2eds/bin/gnu/h-i686-mingw32/bin/../lib/gcc/nios2-elf/4.1.2\libgcc.a(_thenan_df.o)
                              d:/altera/13.0/nios2eds/bin/gnu/h-i686-mingw32/bin/../lib/gcc/nios2-elf/4.1.2\libgcc.a(_addsub_df.o) (__thenan_df)
d:/altera/13.0/nios2eds/bin/gnu/h-i686-mingw32/bin/../lib/gcc/nios2-elf/4.1.2\libgcc.a(_usi_to_df.o)
                              obj/default/dm9000a.o (__floatunsidf)
d:/altera/13.0/nios2eds/bin/gnu/h-i686-mingw32/bin/../lib/gcc/nios2-elf/4.1.2\libgcc.a(_muldi3.o)
                              d:/altera/13.0/nios2eds/bin/gnu/h-i686-mingw32/bin/../lib/gcc/nios2-elf/4.1.2\libgcc.a(_mul_sf.o) (__muldi3)
d:/altera/13.0/nios2eds/bin/gnu/h-i686-mingw32/bin/../lib/gcc/nios2-elf/4.1.2\libgcc.a(_clzsi2.o)
                              d:/altera/13.0/nios2eds/bin/gnu/h-i686-mingw32/bin/../lib/gcc/nios2-elf/4.1.2\libgcc.a(_usi_to_sf.o) (__clzsi2)
d:/altera/13.0/nios2eds/bin/gnu/h-i686-mingw32/bin/../lib/gcc/nios2-elf/4.1.2\libgcc.a(_pack_sf.o)
                              d:/altera/13.0/nios2eds/bin/gnu/h-i686-mingw32/bin/../lib/gcc/nios2-elf/4.1.2\libgcc.a(_addsub_sf.o) (__pack_f)
d:/altera/13.0/nios2eds/bin/gnu/h-i686-mingw32/bin/../lib/gcc/nios2-elf/4.1.2\libgcc.a(_unpack_sf.o)
                              d:/altera/13.0/nios2eds/bin/gnu/h-i686-mingw32/bin/../lib/gcc/nios2-elf/4.1.2\libgcc.a(_addsub_sf.o) (__unpack_f)
d:/altera/13.0/nios2eds/bin/gnu/h-i686-mingw32/bin/../lib/gcc/nios2-elf/4.1.2\libgcc.a(_pack_df.o)
                              d:/altera/13.0/nios2eds/bin/gnu/h-i686-mingw32/bin/../lib/gcc/nios2-elf/4.1.2\libgcc.a(_addsub_df.o) (__pack_d)
d:/altera/13.0/nios2eds/bin/gnu/h-i686-mingw32/bin/../lib/gcc/nios2-elf/4.1.2\libgcc.a(_unpack_df.o)
                              d:/altera/13.0/nios2eds/bin/gnu/h-i686-mingw32/bin/../lib/gcc/nios2-elf/4.1.2\libgcc.a(_addsub_df.o) (__unpack_d)
d:/altera/13.0/nios2eds/bin/gnu/h-i686-mingw32/bin/../lib/gcc/nios2-elf/4.1.2\libgcc.a(_fpcmp_parts_df.o)
                              d:/altera/13.0/nios2eds/bin/gnu/h-i686-mingw32/bin/../lib/gcc/nios2-elf/4.1.2\libgcc.a(_ge_df.o) (__fpcmp_parts_d)
d:/altera/13.0/nios2eds/bin/gnu/h-i686-mingw32/bin/../lib/gcc/nios2-elf/4.1.2\libgcc.a(_clz.o)
                              d:/altera/13.0/nios2eds/bin/gnu/h-i686-mingw32/bin/../lib/gcc/nios2-elf/4.1.2\libgcc.a(_clzsi2.o) (__clz_tab)
d:/altera/13.0/nios2eds/bin/gnu/h-i686-mingw32/bin/../lib/gcc/nios2-elf/4.1.2/../../../../nios2-elf/lib\libc.a(lib_a-ctype_.o)
                              obj/default/network_utilities.o (__ctype_ptr)
d:/altera/13.0/nios2eds/bin/gnu/h-i686-mingw32/bin/../lib/gcc/nios2-elf/4.1.2/../../../../nios2-elf/lib\libc.a(lib_a-fprintf.o)
                              obj/default/alt_error_handler.o (fprintf)
d:/altera/13.0/nios2eds/bin/gnu/h-i686-mingw32/bin/../lib/gcc/nios2-elf/4.1.2/../../../../nios2-elf/lib\libc.a(lib_a-fwrite.o)
                              obj/default/alt_error_handler.o (fwrite)
d:/altera/13.0/nios2eds/bin/gnu/h-i686-mingw32/bin/../lib/gcc/nios2-elf/4.1.2/../../../../nios2-elf/lib\libc.a(lib_a-getc.o)
                              obj/default/network_utilities.o (getc)
d:/altera/13.0/nios2eds/bin/gnu/h-i686-mingw32/bin/../lib/gcc/nios2-elf/4.1.2/../../../../nios2-elf/lib\libc.a(lib_a-impure.o)
                              obj/default/alt_error_handler.o (_impure_ptr)
d:/altera/13.0/nios2eds/bin/gnu/h-i686-mingw32/bin/../lib/gcc/nios2-elf/4.1.2/../../../../nios2-elf/lib\libc.a(lib_a-memset.o)
                              obj/default/simple_socket_server.o (memset)
d:/altera/13.0/nios2eds/bin/gnu/h-i686-mingw32/bin/../lib/gcc/nios2-elf/4.1.2/../../../../nios2-elf/lib\libc.a(lib_a-perror.o)
                              obj/default/alt_error_handler.o (perror)
d:/altera/13.0/nios2eds/bin/gnu/h-i686-mingw32/bin/../lib/gcc/nios2-elf/4.1.2/../../../../nios2-elf/lib\libc.a(lib_a-printf.o)
                              obj/default/alt_error_handler.o (printf)
d:/altera/13.0/nios2eds/bin/gnu/h-i686-mingw32/bin/../lib/gcc/nios2-elf/4.1.2/../../../../nios2-elf/lib\libc.a(lib_a-putc.o)
                              obj/default/network_utilities.o (putc)
d:/altera/13.0/nios2eds/bin/gnu/h-i686-mingw32/bin/../lib/gcc/nios2-elf/4.1.2/../../../../nios2-elf/lib\libc.a(lib_a-putchar.o)
                              obj/default/network_utilities.o (putchar)
d:/altera/13.0/nios2eds/bin/gnu/h-i686-mingw32/bin/../lib/gcc/nios2-elf/4.1.2/../../../../nios2-elf/lib\libc.a(lib_a-puts.o)
                              obj/default/alt_error_handler.o (puts)
d:/altera/13.0/nios2eds/bin/gnu/h-i686-mingw32/bin/../lib/gcc/nios2-elf/4.1.2/../../../../nios2-elf/lib\libc.a(lib_a-rget.o)
                              d:/altera/13.0/nios2eds/bin/gnu/h-i686-mingw32/bin/../lib/gcc/nios2-elf/4.1.2/../../../../nios2-elf/lib\libc.a(lib_a-getc.o) (__srget_r)
d:/altera/13.0/nios2eds/bin/gnu/h-i686-mingw32/bin/../lib/gcc/nios2-elf/4.1.2/../../../../nios2-elf/lib\libc.a(lib_a-strerror.o)
                              d:/altera/13.0/nios2eds/bin/gnu/h-i686-mingw32/bin/../lib/gcc/nios2-elf/4.1.2/../../../../nios2-elf/lib\libc.a(lib_a-perror.o) (strerror)
d:/altera/13.0/nios2eds/bin/gnu/h-i686-mingw32/bin/../lib/gcc/nios2-elf/4.1.2/../../../../nios2-elf/lib\libc.a(lib_a-strlen.o)
                              d:/altera/13.0/nios2eds/bin/gnu/h-i686-mingw32/bin/../lib/gcc/nios2-elf/4.1.2/../../../../nios2-elf/lib\libc.a(lib_a-puts.o) (strlen)
d:/altera/13.0/nios2eds/bin/gnu/h-i686-mingw32/bin/../lib/gcc/nios2-elf/4.1.2/../../../../nios2-elf/lib\libc.a(lib_a-u_strerr.o)
                              d:/altera/13.0/nios2eds/bin/gnu/h-i686-mingw32/bin/../lib/gcc/nios2-elf/4.1.2/../../../../nios2-elf/lib\libc.a(lib_a-strerror.o) (_user_strerror)
d:/altera/13.0/nios2eds/bin/gnu/h-i686-mingw32/bin/../lib/gcc/nios2-elf/4.1.2/../../../../nios2-elf/lib\libc.a(lib_a-vfprintf.o)
                              d:/altera/13.0/nios2eds/bin/gnu/h-i686-mingw32/bin/../lib/gcc/nios2-elf/4.1.2/../../../../nios2-elf/lib\libc.a(lib_a-printf.o) (___vfprintf_internal_r)
d:/altera/13.0/nios2eds/bin/gnu/h-i686-mingw32/bin/../lib/gcc/nios2-elf/4.1.2/../../../../nios2-elf/lib\libc.a(lib_a-wbuf.o)
                              d:/altera/13.0/nios2eds/bin/gnu/h-i686-mingw32/bin/../lib/gcc/nios2-elf/4.1.2/../../../../nios2-elf/lib\libc.a(lib_a-putc.o) (__swbuf_r)
d:/altera/13.0/nios2eds/bin/gnu/h-i686-mingw32/bin/../lib/gcc/nios2-elf/4.1.2/../../../../nios2-elf/lib\libc.a(lib_a-wsetup.o)
                              d:/altera/13.0/nios2eds/bin/gnu/h-i686-mingw32/bin/../lib/gcc/nios2-elf/4.1.2/../../../../nios2-elf/lib\libc.a(lib_a-vfprintf.o) (__swsetup_r)
d:/altera/13.0/nios2eds/bin/gnu/h-i686-mingw32/bin/../lib/gcc/nios2-elf/4.1.2/../../../../nios2-elf/lib\libc.a(lib_a-dtoa.o)
                              d:/altera/13.0/nios2eds/bin/gnu/h-i686-mingw32/bin/../lib/gcc/nios2-elf/4.1.2/../../../../nios2-elf/lib\libc.a(lib_a-vfprintf.o) (_dtoa_r)
d:/altera/13.0/nios2eds/bin/gnu/h-i686-mingw32/bin/../lib/gcc/nios2-elf/4.1.2/../../../../nios2-elf/lib\libc.a(lib_a-fflush.o)
                              d:/altera/13.0/nios2eds/bin/gnu/h-i686-mingw32/bin/../lib/gcc/nios2-elf/4.1.2/../../../../nios2-elf/lib\libc.a(lib_a-vfprintf.o) (_fflush_r)
d:/altera/13.0/nios2eds/bin/gnu/h-i686-mingw32/bin/../lib/gcc/nios2-elf/4.1.2/../../../../nios2-elf/lib\libc.a(lib_a-findfp.o)
                              d:/altera/13.0/nios2eds/bin/gnu/h-i686-mingw32/bin/../lib/gcc/nios2-elf/4.1.2/../../../../nios2-elf/lib\libc.a(lib_a-fwrite.o) (__sinit)
d:/altera/13.0/nios2eds/bin/gnu/h-i686-mingw32/bin/../lib/gcc/nios2-elf/4.1.2/../../../../nios2-elf/lib\libc.a(lib_a-fputc.o)
                              d:/altera/13.0/nios2eds/bin/gnu/h-i686-mingw32/bin/../lib/gcc/nios2-elf/4.1.2/../../../../nios2-elf/lib\libc.a(lib_a-perror.o) (fputc)
d:/altera/13.0/nios2eds/bin/gnu/h-i686-mingw32/bin/../lib/gcc/nios2-elf/4.1.2/../../../../nios2-elf/lib\libc.a(lib_a-fputs.o)
                              d:/altera/13.0/nios2eds/bin/gnu/h-i686-mingw32/bin/../lib/gcc/nios2-elf/4.1.2/../../../../nios2-elf/lib\libc.a(lib_a-perror.o) (fputs)
d:/altera/13.0/nios2eds/bin/gnu/h-i686-mingw32/bin/../lib/gcc/nios2-elf/4.1.2/../../../../nios2-elf/lib\libc.a(lib_a-freer.o)
                              d:/altera/13.0/nios2eds/bin/gnu/h-i686-mingw32/bin/../lib/gcc/nios2-elf/4.1.2/../../../../nios2-elf/lib\libc.a(lib_a-wsetup.o) (_free_r)
d:/altera/13.0/nios2eds/bin/gnu/h-i686-mingw32/bin/../lib/gcc/nios2-elf/4.1.2/../../../../nios2-elf/lib\libc.a(lib_a-fvwrite.o)
                              d:/altera/13.0/nios2eds/bin/gnu/h-i686-mingw32/bin/../lib/gcc/nios2-elf/4.1.2/../../../../nios2-elf/lib\libc.a(lib_a-fwrite.o) (__sfvwrite_r)
d:/altera/13.0/nios2eds/bin/gnu/h-i686-mingw32/bin/../lib/gcc/nios2-elf/4.1.2/../../../../nios2-elf/lib\libc.a(lib_a-fwalk.o)
                              d:/altera/13.0/nios2eds/bin/gnu/h-i686-mingw32/bin/../lib/gcc/nios2-elf/4.1.2/../../../../nios2-elf/lib\libc.a(lib_a-fflush.o) (_fwalk_reent)
d:/altera/13.0/nios2eds/bin/gnu/h-i686-mingw32/bin/../lib/gcc/nios2-elf/4.1.2/../../../../nios2-elf/lib\libc.a(lib_a-locale.o)
                              d:/altera/13.0/nios2eds/bin/gnu/h-i686-mingw32/bin/../lib/gcc/nios2-elf/4.1.2/../../../../nios2-elf/lib\libc.a(lib_a-vfprintf.o) (_localeconv_r)
d:/altera/13.0/nios2eds/bin/gnu/h-i686-mingw32/bin/../lib/gcc/nios2-elf/4.1.2/../../../../nios2-elf/lib\libc.a(lib_a-makebuf.o)
                              d:/altera/13.0/nios2eds/bin/gnu/h-i686-mingw32/bin/../lib/gcc/nios2-elf/4.1.2/../../../../nios2-elf/lib\libc.a(lib_a-wsetup.o) (__smakebuf_r)
d:/altera/13.0/nios2eds/bin/gnu/h-i686-mingw32/bin/../lib/gcc/nios2-elf/4.1.2/../../../../nios2-elf/lib\libc.a(lib_a-mallocr.o)
                              d:/altera/13.0/nios2eds/bin/gnu/h-i686-mingw32/bin/../lib/gcc/nios2-elf/4.1.2/../../../../nios2-elf/lib\libc.a(lib_a-findfp.o) (_malloc_r)
d:/altera/13.0/nios2eds/bin/gnu/h-i686-mingw32/bin/../lib/gcc/nios2-elf/4.1.2/../../../../nios2-elf/lib\libc.a(lib_a-memchr.o)
                              d:/altera/13.0/nios2eds/bin/gnu/h-i686-mingw32/bin/../lib/gcc/nios2-elf/4.1.2/../../../../nios2-elf/lib\libc.a(lib_a-vfprintf.o) (memchr)
d:/altera/13.0/nios2eds/bin/gnu/h-i686-mingw32/bin/../lib/gcc/nios2-elf/4.1.2/../../../../nios2-elf/lib\libc.a(lib_a-memcpy.o)
                              d:/altera/13.0/nios2eds/bin/gnu/h-i686-mingw32/bin/../lib/gcc/nios2-elf/4.1.2/../../../../nios2-elf/lib\libc.a(lib_a-dtoa.o) (memcpy)
d:/altera/13.0/nios2eds/bin/gnu/h-i686-mingw32/bin/../lib/gcc/nios2-elf/4.1.2/../../../../nios2-elf/lib\libc.a(lib_a-memmove.o)
                              d:/altera/13.0/nios2eds/bin/gnu/h-i686-mingw32/bin/../lib/gcc/nios2-elf/4.1.2/../../../../nios2-elf/lib\libc.a(lib_a-fvwrite.o) (memmove)
d:/altera/13.0/nios2eds/bin/gnu/h-i686-mingw32/bin/../lib/gcc/nios2-elf/4.1.2/../../../../nios2-elf/lib\libc.a(lib_a-mprec.o)
                              d:/altera/13.0/nios2eds/bin/gnu/h-i686-mingw32/bin/../lib/gcc/nios2-elf/4.1.2/../../../../nios2-elf/lib\libc.a(lib_a-dtoa.o) (_Bfree)
d:/altera/13.0/nios2eds/bin/gnu/h-i686-mingw32/bin/../lib/gcc/nios2-elf/4.1.2/../../../../nios2-elf/lib\libc.a(lib_a-reallocr.o)
                              d:/altera/13.0/nios2eds/bin/gnu/h-i686-mingw32/bin/../lib/gcc/nios2-elf/4.1.2/../../../../nios2-elf/lib\libc.a(lib_a-fvwrite.o) (_realloc_r)
d:/altera/13.0/nios2eds/bin/gnu/h-i686-mingw32/bin/../lib/gcc/nios2-elf/4.1.2/../../../../nios2-elf/lib\libc.a(lib_a-refill.o)
                              d:/altera/13.0/nios2eds/bin/gnu/h-i686-mingw32/bin/../lib/gcc/nios2-elf/4.1.2/../../../../nios2-elf/lib\libc.a(lib_a-rget.o) (__srefill_r)
d:/altera/13.0/nios2eds/bin/gnu/h-i686-mingw32/bin/../lib/gcc/nios2-elf/4.1.2/../../../../nios2-elf/lib\libc.a(lib_a-s_isinfd.o)
                              d:/altera/13.0/nios2eds/bin/gnu/h-i686-mingw32/bin/../lib/gcc/nios2-elf/4.1.2/../../../../nios2-elf/lib\libc.a(lib_a-vfprintf.o) (__isinfd)
d:/altera/13.0/nios2eds/bin/gnu/h-i686-mingw32/bin/../lib/gcc/nios2-elf/4.1.2/../../../../nios2-elf/lib\libc.a(lib_a-s_isnand.o)
                              d:/altera/13.0/nios2eds/bin/gnu/h-i686-mingw32/bin/../lib/gcc/nios2-elf/4.1.2/../../../../nios2-elf/lib\libc.a(lib_a-vfprintf.o) (__isnand)
d:/altera/13.0/nios2eds/bin/gnu/h-i686-mingw32/bin/../lib/gcc/nios2-elf/4.1.2/../../../../nios2-elf/lib\libc.a(lib_a-sbrkr.o)
                              d:/altera/13.0/nios2eds/bin/gnu/h-i686-mingw32/bin/../lib/gcc/nios2-elf/4.1.2/../../../../nios2-elf/lib\libc.a(lib_a-freer.o) (_sbrk_r)
d:/altera/13.0/nios2eds/bin/gnu/h-i686-mingw32/bin/../lib/gcc/nios2-elf/4.1.2/../../../../nios2-elf/lib\libc.a(lib_a-stdio.o)
                              d:/altera/13.0/nios2eds/bin/gnu/h-i686-mingw32/bin/../lib/gcc/nios2-elf/4.1.2/../../../../nios2-elf/lib\libc.a(lib_a-findfp.o) (__sclose)
d:/altera/13.0/nios2eds/bin/gnu/h-i686-mingw32/bin/../lib/gcc/nios2-elf/4.1.2/../../../../nios2-elf/lib\libc.a(lib_a-strcmp.o)
                              d:/altera/13.0/nios2eds/bin/gnu/h-i686-mingw32/bin/../lib/gcc/nios2-elf/4.1.2/../../../../nios2-elf/lib\libc.a(lib_a-locale.o) (strcmp)
d:/altera/13.0/nios2eds/bin/gnu/h-i686-mingw32/bin/../lib/gcc/nios2-elf/4.1.2/../../../../nios2-elf/lib\libc.a(lib_a-writer.o)
                              d:/altera/13.0/nios2eds/bin/gnu/h-i686-mingw32/bin/../lib/gcc/nios2-elf/4.1.2/../../../../nios2-elf/lib\libc.a(lib_a-stdio.o) (_write_r)
d:/altera/13.0/nios2eds/bin/gnu/h-i686-mingw32/bin/../lib/gcc/nios2-elf/4.1.2/../../../../nios2-elf/lib\libc.a(lib_a-callocr.o)
                              d:/altera/13.0/nios2eds/bin/gnu/h-i686-mingw32/bin/../lib/gcc/nios2-elf/4.1.2/../../../../nios2-elf/lib\libc.a(lib_a-mprec.o) (_calloc_r)
d:/altera/13.0/nios2eds/bin/gnu/h-i686-mingw32/bin/../lib/gcc/nios2-elf/4.1.2/../../../../nios2-elf/lib\libc.a(lib_a-closer.o)
                              d:/altera/13.0/nios2eds/bin/gnu/h-i686-mingw32/bin/../lib/gcc/nios2-elf/4.1.2/../../../../nios2-elf/lib\libc.a(lib_a-stdio.o) (_close_r)
d:/altera/13.0/nios2eds/bin/gnu/h-i686-mingw32/bin/../lib/gcc/nios2-elf/4.1.2/../../../../nios2-elf/lib\libc.a(lib_a-fclose.o)
                              d:/altera/13.0/nios2eds/bin/gnu/h-i686-mingw32/bin/../lib/gcc/nios2-elf/4.1.2/../../../../nios2-elf/lib\libc.a(lib_a-findfp.o) (fclose)
d:/altera/13.0/nios2eds/bin/gnu/h-i686-mingw32/bin/../lib/gcc/nios2-elf/4.1.2/../../../../nios2-elf/lib\libc.a(lib_a-fstatr.o)
                              d:/altera/13.0/nios2eds/bin/gnu/h-i686-mingw32/bin/../lib/gcc/nios2-elf/4.1.2/../../../../nios2-elf/lib\libc.a(lib_a-makebuf.o) (_fstat_r)
d:/altera/13.0/nios2eds/bin/gnu/h-i686-mingw32/bin/../lib/gcc/nios2-elf/4.1.2/../../../../nios2-elf/lib\libc.a(lib_a-int_errno.o)
                              d:/altera/13.0/nios2eds/bin/gnu/h-i686-mingw32/bin/../lib/gcc/nios2-elf/4.1.2/../../../../nios2-elf/lib\libc.a(lib_a-sbrkr.o) (errno)
d:/altera/13.0/nios2eds/bin/gnu/h-i686-mingw32/bin/../lib/gcc/nios2-elf/4.1.2/../../../../nios2-elf/lib\libc.a(lib_a-isattyr.o)
                              d:/altera/13.0/nios2eds/bin/gnu/h-i686-mingw32/bin/../lib/gcc/nios2-elf/4.1.2/../../../../nios2-elf/lib\libc.a(lib_a-makebuf.o) (_isatty_r)
d:/altera/13.0/nios2eds/bin/gnu/h-i686-mingw32/bin/../lib/gcc/nios2-elf/4.1.2/../../../../nios2-elf/lib\libc.a(lib_a-lseekr.o)
                              d:/altera/13.0/nios2eds/bin/gnu/h-i686-mingw32/bin/../lib/gcc/nios2-elf/4.1.2/../../../../nios2-elf/lib\libc.a(lib_a-stdio.o) (_lseek_r)
d:/altera/13.0/nios2eds/bin/gnu/h-i686-mingw32/bin/../lib/gcc/nios2-elf/4.1.2/../../../../nios2-elf/lib\libc.a(lib_a-readr.o)
                              d:/altera/13.0/nios2eds/bin/gnu/h-i686-mingw32/bin/../lib/gcc/nios2-elf/4.1.2/../../../../nios2-elf/lib\libc.a(lib_a-stdio.o) (_read_r)
d:/altera/13.0/nios2eds/bin/gnu/h-i686-mingw32/bin/../lib/gcc/nios2-elf/4.1.2\libgcc.a(_udivdi3.o)
                              d:/altera/13.0/nios2eds/bin/gnu/h-i686-mingw32/bin/../lib/gcc/nios2-elf/4.1.2/../../../../nios2-elf/lib\libc.a(lib_a-vfprintf.o) (__udivdi3)
d:/altera/13.0/nios2eds/bin/gnu/h-i686-mingw32/bin/../lib/gcc/nios2-elf/4.1.2\libgcc.a(_umoddi3.o)
                              d:/altera/13.0/nios2eds/bin/gnu/h-i686-mingw32/bin/../lib/gcc/nios2-elf/4.1.2/../../../../nios2-elf/lib\libc.a(lib_a-vfprintf.o) (__umoddi3)
d:/altera/13.0/nios2eds/bin/gnu/h-i686-mingw32/bin/../lib/gcc/nios2-elf/4.1.2\libgcc.a(_div_df.o)
                              d:/altera/13.0/nios2eds/bin/gnu/h-i686-mingw32/bin/../lib/gcc/nios2-elf/4.1.2/../../../../nios2-elf/lib\libc.a(lib_a-dtoa.o) (__divdf3)
d:/altera/13.0/nios2eds/bin/gnu/h-i686-mingw32/bin/../lib/gcc/nios2-elf/4.1.2\libgcc.a(_eq_df.o)
                              d:/altera/13.0/nios2eds/bin/gnu/h-i686-mingw32/bin/../lib/gcc/nios2-elf/4.1.2/../../../../nios2-elf/lib\libc.a(lib_a-vfprintf.o) (__eqdf2)
d:/altera/13.0/nios2eds/bin/gnu/h-i686-mingw32/bin/../lib/gcc/nios2-elf/4.1.2\libgcc.a(_ne_df.o)
                              d:/altera/13.0/nios2eds/bin/gnu/h-i686-mingw32/bin/../lib/gcc/nios2-elf/4.1.2/../../../../nios2-elf/lib\libc.a(lib_a-vfprintf.o) (__nedf2)
d:/altera/13.0/nios2eds/bin/gnu/h-i686-mingw32/bin/../lib/gcc/nios2-elf/4.1.2\libgcc.a(_gt_df.o)
                              d:/altera/13.0/nios2eds/bin/gnu/h-i686-mingw32/bin/../lib/gcc/nios2-elf/4.1.2/../../../../nios2-elf/lib\libc.a(lib_a-dtoa.o) (__gtdf2)
d:/altera/13.0/nios2eds/bin/gnu/h-i686-mingw32/bin/../lib/gcc/nios2-elf/4.1.2\libgcc.a(_lt_df.o)
                              d:/altera/13.0/nios2eds/bin/gnu/h-i686-mingw32/bin/../lib/gcc/nios2-elf/4.1.2/../../../../nios2-elf/lib\libc.a(lib_a-vfprintf.o) (__ltdf2)
d:/altera/13.0/nios2eds/bin/gnu/h-i686-mingw32/bin/../lib/gcc/nios2-elf/4.1.2\libgcc.a(_si_to_df.o)
                              d:/altera/13.0/nios2eds/bin/gnu/h-i686-mingw32/bin/../lib/gcc/nios2-elf/4.1.2/../../../../nios2-elf/lib\libc.a(lib_a-dtoa.o) (__floatsidf)
d:/altera/13.0/nios2eds/bin/gnu/h-i686-mingw32/bin/../lib/gcc/nios2-elf/4.1.2\libgcc.a(lib2-divmod.o)
                              d:/altera/13.0/nios2eds/bin/gnu/h-i686-mingw32/bin/../lib/gcc/nios2-elf/4.1.2/../../../../nios2-elf/lib\libc.a(lib_a-vfprintf.o) (__divsi3)
../PepinoBoris_bsp/\libucosii_bsp.a(alt_flash_dev.o)
                              obj/default/network_utilities.o (alt_flash_open_dev)
../PepinoBoris_bsp/\libucosii_bsp.a(alt_fstat.o)
                              d:/altera/13.0/nios2eds/bin/gnu/h-i686-mingw32/bin/../lib/gcc/nios2-elf/4.1.2/../../../../nios2-elf/lib\libc.a(lib_a-fstatr.o) (fstat)
../PepinoBoris_bsp/\libucosii_bsp.a(alt_irq_register.o)
                              obj/default/dm9000a.o (alt_irq_register)
../PepinoBoris_bsp/\libucosii_bsp.a(alt_irq_vars.o)
                              ../PepinoBoris_bsp/\libucosii_bsp.a(alt_irq_register.o) (alt_irq_active)
../PepinoBoris_bsp/\libucosii_bsp.a(alt_isatty.o)
                              d:/altera/13.0/nios2eds/bin/gnu/h-i686-mingw32/bin/../lib/gcc/nios2-elf/4.1.2/../../../../nios2-elf/lib\libc.a(lib_a-isattyr.o) (isatty)
../PepinoBoris_bsp/\libucosii_bsp.a(alt_lseek.o)
                              d:/altera/13.0/nios2eds/bin/gnu/h-i686-mingw32/bin/../lib/gcc/nios2-elf/4.1.2/../../../../nios2-elf/lib\libc.a(lib_a-lseekr.o) (lseek)
../PepinoBoris_bsp/\libucosii_bsp.a(alt_main.o)
                              ../PepinoBoris_bsp//obj/HAL/src/crt0.o (alt_main)
../PepinoBoris_bsp/\libucosii_bsp.a(alt_sbrk.o)
                              d:/altera/13.0/nios2eds/bin/gnu/h-i686-mingw32/bin/../lib/gcc/nios2-elf/4.1.2/../../../../nios2-elf/lib\libc.a(lib_a-sbrkr.o) (sbrk)
../PepinoBoris_bsp/\libucosii_bsp.a(alt_usleep.o)
                              obj/default/dm9000a.o (usleep)
../PepinoBoris_bsp/\libucosii_bsp.a(alt_env_lock.o)
                              ../PepinoBoris_bsp/\libucosii_bsp.a(alt_main.o) (alt_envsem)
../PepinoBoris_bsp/\libucosii_bsp.a(alt_malloc_lock.o)
                              d:/altera/13.0/nios2eds/bin/gnu/h-i686-mingw32/bin/../lib/gcc/nios2-elf/4.1.2/../../../../nios2-elf/lib\libc.a(lib_a-freer.o) (__malloc_lock)
../PepinoBoris_bsp/\libucosii_bsp.a(os_core.o)
                              ../PepinoBoris_bsp/\libucosii_bsp.a(alt_main.o) (OSInit)
../PepinoBoris_bsp/\libucosii_bsp.a(os_dbg.o)
                              ../PepinoBoris_bsp/\libucosii_bsp.a(os_core.o) (OSDebugInit)
../PepinoBoris_bsp/\libucosii_bsp.a(os_flag.o)
                              obj/default/simple_socket_server.o (OSFlagCreate)
../PepinoBoris_bsp/\libucosii_bsp.a(os_mem.o)
                              ../PepinoBoris_bsp/\libucosii_bsp.a(os_core.o) (OS_MemInit)
../PepinoBoris_bsp/\libucosii_bsp.a(os_q.o)
                              obj/default/simple_socket_server.o (OSQCreate)
../PepinoBoris_bsp/\libucosii_bsp.a(os_sem.o)
                              obj/default/simple_socket_server.o (OSSemCreate)
../PepinoBoris_bsp/\libucosii_bsp.a(os_task.o)
                              obj/default/iniche_init.o (OSTaskCreateExt)
../PepinoBoris_bsp/\libucosii_bsp.a(os_time.o)
                              obj/default/iniche_init.o (OSTimeDly)
../PepinoBoris_bsp/\libucosii_bsp.a(alt_sys_init.o)
                              ../PepinoBoris_bsp/\libucosii_bsp.a(alt_main.o) (alt_irq_init)
../PepinoBoris_bsp/\libucosii_bsp.a(altera_avalon_cfi_flash.o)
                              ../PepinoBoris_bsp/\libucosii_bsp.a(alt_sys_init.o) (alt_flash_cfi_init)
../PepinoBoris_bsp/\libucosii_bsp.a(altera_avalon_cfi_flash_table.o)
                              ../PepinoBoris_bsp/\libucosii_bsp.a(altera_avalon_cfi_flash.o) (alt_set_flash_width_func)
../PepinoBoris_bsp/\libucosii_bsp.a(altera_avalon_epcs_flash_controller.o)
                              ../PepinoBoris_bsp/\libucosii_bsp.a(alt_sys_init.o) (alt_epcs_flash_init)
../PepinoBoris_bsp/\libucosii_bsp.a(altera_avalon_jtag_uart_fd.o)
                              ../PepinoBoris_bsp/\libucosii_bsp.a(alt_sys_init.o) (altera_avalon_jtag_uart_read_fd)
../PepinoBoris_bsp/\libucosii_bsp.a(altera_avalon_jtag_uart_init.o)
                              ../PepinoBoris_bsp/\libucosii_bsp.a(alt_sys_init.o) (altera_avalon_jtag_uart_init)
../PepinoBoris_bsp/\libucosii_bsp.a(altera_avalon_jtag_uart_ioctl.o)
                              ../PepinoBoris_bsp/\libucosii_bsp.a(altera_avalon_jtag_uart_fd.o) (altera_avalon_jtag_uart_ioctl)
../PepinoBoris_bsp/\libucosii_bsp.a(altera_avalon_jtag_uart_read.o)
                              ../PepinoBoris_bsp/\libucosii_bsp.a(altera_avalon_jtag_uart_fd.o) (altera_avalon_jtag_uart_read)
../PepinoBoris_bsp/\libucosii_bsp.a(altera_avalon_jtag_uart_write.o)
                              ../PepinoBoris_bsp/\libucosii_bsp.a(altera_avalon_jtag_uart_fd.o) (altera_avalon_jtag_uart_write)
../PepinoBoris_bsp/\libucosii_bsp.a(altera_avalon_lcd_16207.o)
                              ../PepinoBoris_bsp/\libucosii_bsp.a(alt_sys_init.o) (altera_avalon_lcd_16207_init)
../PepinoBoris_bsp/\libucosii_bsp.a(altera_avalon_lcd_16207_fd.o)
                              ../PepinoBoris_bsp/\libucosii_bsp.a(alt_sys_init.o) (altera_avalon_lcd_16207_write_fd)
../PepinoBoris_bsp/\libucosii_bsp.a(altera_avalon_timer_sc.o)
                              ../PepinoBoris_bsp/\libucosii_bsp.a(alt_sys_init.o) (alt_avalon_timer_sc_init)
../PepinoBoris_bsp/\libucosii_bsp.a(altera_avalon_uart_fd.o)
                              ../PepinoBoris_bsp/\libucosii_bsp.a(alt_sys_init.o) (altera_avalon_uart_read_fd)
../PepinoBoris_bsp/\libucosii_bsp.a(altera_avalon_uart_init.o)
                              ../PepinoBoris_bsp/\libucosii_bsp.a(alt_sys_init.o) (altera_avalon_uart_init)
../PepinoBoris_bsp/\libucosii_bsp.a(altera_avalon_uart_read.o)
                              ../PepinoBoris_bsp/\libucosii_bsp.a(altera_avalon_uart_fd.o) (altera_avalon_uart_read)
../PepinoBoris_bsp/\libucosii_bsp.a(altera_avalon_uart_write.o)
                              ../PepinoBoris_bsp/\libucosii_bsp.a(altera_avalon_uart_fd.o) (altera_avalon_uart_write)
../PepinoBoris_bsp/\libucosii_bsp.a(altera_up_sd_card_avalon_interface.o)
                              obj/default/iniche_init.o (alt_up_sd_card_is_Present)
../PepinoBoris_bsp/\libucosii_bsp.a(epcs_commands.o)
                              ../PepinoBoris_bsp/\libucosii_bsp.a(altera_avalon_epcs_flash_controller.o) (epcs_sector_erase)
../PepinoBoris_bsp/\libucosii_bsp.a(alt_iniche_close.o)
                              obj/default/simple_socket_server.o (close)
../PepinoBoris_bsp/\libucosii_bsp.a(alt_iniche_dev.o)
                              obj/default/iniche_init.o (alt_iniche_dev_list)
../PepinoBoris_bsp/\libucosii_bsp.a(alt_iniche_read.o)
                              d:/altera/13.0/nios2eds/bin/gnu/h-i686-mingw32/bin/../lib/gcc/nios2-elf/4.1.2/../../../../nios2-elf/lib\libc.a(lib_a-readr.o) (read)
../PepinoBoris_bsp/\libucosii_bsp.a(alt_iniche_write.o)
                              d:/altera/13.0/nios2eds/bin/gnu/h-i686-mingw32/bin/../lib/gcc/nios2-elf/4.1.2/../../../../nios2-elf/lib\libc.a(lib_a-writer.o) (write)
../PepinoBoris_bsp/\libucosii_bsp.a(ipnet.o)
                              obj/default/dm9000a.o (rcvdq)
../PepinoBoris_bsp/\libucosii_bsp.a(ipstart.o)
                              ../PepinoBoris_bsp/\libucosii_bsp.a(ipnet.o) (ifNumber)
../PepinoBoris_bsp/\libucosii_bsp.a(igmp_cmn.o)
                              ../PepinoBoris_bsp/\libucosii_bsp.a(ipstart.o) (igmp_init)
../PepinoBoris_bsp/\libucosii_bsp.a(bsdsock.o)
                              obj/default/simple_socket_server.o (bsd_accept)
../PepinoBoris_bsp/\libucosii_bsp.a(cksum.o)
                              ../PepinoBoris_bsp/\libucosii_bsp.a(igmp_cmn.o) (cksum)
../PepinoBoris_bsp/\libucosii_bsp.a(in_utils.o)
                              ../PepinoBoris_bsp/\libucosii_bsp.a(igmp_cmn.o) (ns_printf)
../PepinoBoris_bsp/\libucosii_bsp.a(netmain.o)
                              obj/default/iniche_init.o (iniche_net_ready)
../PepinoBoris_bsp/\libucosii_bsp.a(tk_crnos.o)
                              ../PepinoBoris_bsp/\libucosii_bsp.a(ipnet.o) (tk_yield)
../PepinoBoris_bsp/\libucosii_bsp.a(dhcpclnt.o)
                              ../PepinoBoris_bsp/\libucosii_bsp.a(netmain.o) (dhc_second)
../PepinoBoris_bsp/\libucosii_bsp.a(dhcputil.o)
                              ../PepinoBoris_bsp/\libucosii_bsp.a(dhcpclnt.o) (find_opt)
../PepinoBoris_bsp/\libucosii_bsp.a(pktalloc.o)
                              ../PepinoBoris_bsp/\libucosii_bsp.a(ipnet.o) (pk_init)
../PepinoBoris_bsp/\libucosii_bsp.a(q.o)
                              ../PepinoBoris_bsp/\libucosii_bsp.a(ipnet.o) (getq)
../PepinoBoris_bsp/\libucosii_bsp.a(udp_open.o)
                              ../PepinoBoris_bsp/\libucosii_bsp.a(dhcpclnt.o) (udp_open)
../PepinoBoris_bsp/\libucosii_bsp.a(asm_cksum.o)
                              ../PepinoBoris_bsp/\libucosii_bsp.a(cksum.o) (asm_cksum)
../PepinoBoris_bsp/\libucosii_bsp.a(brdutils.o)
                              ../PepinoBoris_bsp/\libucosii_bsp.a(ipnet.o) (dtrap)
../PepinoBoris_bsp/\libucosii_bsp.a(osportco.o)
                              ../PepinoBoris_bsp/\libucosii_bsp.a(tk_crnos.o) (tcp_sleep_count)
../PepinoBoris_bsp/\libucosii_bsp.a(targnios.o)
                              obj/default/iniche_init.o (alt_iniche_init)
../PepinoBoris_bsp/\libucosii_bsp.a(nptcp.o)
                              ../PepinoBoris_bsp/\libucosii_bsp.a(bsdsock.o) (soq)
../PepinoBoris_bsp/\libucosii_bsp.a(rawsock.o)
                              ../PepinoBoris_bsp/\libucosii_bsp.a(nptcp.o) (rawip_usrreq)
../PepinoBoris_bsp/\libucosii_bsp.a(sockcall.o)
                              obj/default/simple_socket_server.o (t_socket)
../PepinoBoris_bsp/\libucosii_bsp.a(socket.o)
                              ../PepinoBoris_bsp/\libucosii_bsp.a(sockcall.o) (socreate)
../PepinoBoris_bsp/\libucosii_bsp.a(socket2.o)
                              ../PepinoBoris_bsp/\libucosii_bsp.a(sockcall.o) (soqremque)
../PepinoBoris_bsp/\libucosii_bsp.a(soselect.o)
                              ../PepinoBoris_bsp/\libucosii_bsp.a(bsdsock.o) (t_select)
../PepinoBoris_bsp/\libucosii_bsp.a(tcp_in.o)
                              ../PepinoBoris_bsp/\libucosii_bsp.a(nptcp.o) (tcp_input)
../PepinoBoris_bsp/\libucosii_bsp.a(tcp_out.o)
                              ../PepinoBoris_bsp/\libucosii_bsp.a(tcp_in.o) (tcp_output)
../PepinoBoris_bsp/\libucosii_bsp.a(tcp_subr.o)
                              ../PepinoBoris_bsp/\libucosii_bsp.a(nptcp.o) (tcp_init)
../PepinoBoris_bsp/\libucosii_bsp.a(tcp_timr.o)
                              ../PepinoBoris_bsp/\libucosii_bsp.a(tcp_in.o) (tcp_keepidle)
../PepinoBoris_bsp/\libucosii_bsp.a(tcp_usr.o)
                              ../PepinoBoris_bsp/\libucosii_bsp.a(nptcp.o) (tcp_usrreq)
../PepinoBoris_bsp/\libucosii_bsp.a(tcpport.o)
                              ../PepinoBoris_bsp/\libucosii_bsp.a(ipstart.o) (tcpinit)
../PepinoBoris_bsp/\libucosii_bsp.a(udpsock.o)
                              ../PepinoBoris_bsp/\libucosii_bsp.a(nptcp.o) (udp_usrreq)
../PepinoBoris_bsp/\libucosii_bsp.a(alt_alarm_start.o)
                              ../PepinoBoris_bsp/\libucosii_bsp.a(altera_avalon_jtag_uart_init.o) (alt_alarm_start)
../PepinoBoris_bsp/\libucosii_bsp.a(alt_busy_sleep.o)
                              ../PepinoBoris_bsp/\libucosii_bsp.a(alt_usleep.o) (alt_busy_sleep)
../PepinoBoris_bsp/\libucosii_bsp.a(alt_close.o)
                              ../PepinoBoris_bsp/\libucosii_bsp.a(alt_iniche_close.o) (alt_close)
../PepinoBoris_bsp/\libucosii_bsp.a(alt_dcache_flush.o)
                              ../PepinoBoris_bsp/\libucosii_bsp.a(altera_avalon_cfi_flash.o) (alt_dcache_flush)
../PepinoBoris_bsp/\libucosii_bsp.a(alt_dev.o)
                              ../PepinoBoris_bsp/\libucosii_bsp.a(alt_sys_init.o) (alt_dev_list)
../PepinoBoris_bsp/\libucosii_bsp.a(alt_dev_llist_insert.o)
                              ../PepinoBoris_bsp/\libucosii_bsp.a(alt_sys_init.o) (alt_dev_llist_insert)
../PepinoBoris_bsp/\libucosii_bsp.a(alt_do_ctors.o)
                              ../PepinoBoris_bsp/\libucosii_bsp.a(alt_main.o) (_do_ctors)
../PepinoBoris_bsp/\libucosii_bsp.a(alt_do_dtors.o)
                              ../PepinoBoris_bsp/\libucosii_bsp.a(alt_main.o) (_do_dtors)
../PepinoBoris_bsp/\libucosii_bsp.a(alt_errno.o)
                              ../PepinoBoris_bsp/\libucosii_bsp.a(alt_fstat.o) (alt_errno)
../PepinoBoris_bsp/\libucosii_bsp.a(alt_find_dev.o)
                              ../PepinoBoris_bsp/\libucosii_bsp.a(alt_flash_dev.o) (alt_find_dev)
../PepinoBoris_bsp/\libucosii_bsp.a(alt_iic.o)
                              ../PepinoBoris_bsp/\libucosii_bsp.a(altera_avalon_jtag_uart_init.o) (alt_ic_isr_register)
../PepinoBoris_bsp/\libucosii_bsp.a(alt_iic_isr_register.o)
                              ../PepinoBoris_bsp/\libucosii_bsp.a(alt_iic.o) (alt_iic_isr_register)
../PepinoBoris_bsp/\libucosii_bsp.a(alt_io_redirect.o)
                              ../PepinoBoris_bsp/\libucosii_bsp.a(alt_main.o) (alt_io_redirect)
../PepinoBoris_bsp/\libucosii_bsp.a(alt_irq_entry.o)
                              ../PepinoBoris_bsp/\libucosii_bsp.a(alt_irq_register.o) (alt_irq_entry)
../PepinoBoris_bsp/\libucosii_bsp.a(alt_irq_handler.o)
                              ../PepinoBoris_bsp/\libucosii_bsp.a(alt_irq_register.o) (alt_irq_handler)
../PepinoBoris_bsp/\libucosii_bsp.a(alt_open.o)
                              ../PepinoBoris_bsp/\libucosii_bsp.a(alt_io_redirect.o) (open)
../PepinoBoris_bsp/\libucosii_bsp.a(alt_read.o)
                              ../PepinoBoris_bsp/\libucosii_bsp.a(alt_iniche_read.o) (alt_read)
../PepinoBoris_bsp/\libucosii_bsp.a(alt_release_fd.o)
                              ../PepinoBoris_bsp/\libucosii_bsp.a(alt_close.o) (alt_release_fd)
../PepinoBoris_bsp/\libucosii_bsp.a(alt_remap_cached.o)
                              ../PepinoBoris_bsp/\libucosii_bsp.a(targnios.o) (alt_remap_cached)
../PepinoBoris_bsp/\libucosii_bsp.a(alt_remap_uncached.o)
                              ../PepinoBoris_bsp/\libucosii_bsp.a(targnios.o) (alt_remap_uncached)
../PepinoBoris_bsp/\libucosii_bsp.a(alt_tick.o)
                              ../PepinoBoris_bsp/\libucosii_bsp.a(alt_usleep.o) (_alt_tick_rate)
../PepinoBoris_bsp/\libucosii_bsp.a(alt_write.o)
                              ../PepinoBoris_bsp/\libucosii_bsp.a(alt_iniche_write.o) (alt_write)
../PepinoBoris_bsp/\libucosii_bsp.a(altera_nios2_qsys_irq.o)
                              ../PepinoBoris_bsp/\libucosii_bsp.a(alt_sys_init.o) (altera_nios2_qsys_irq_init)
../PepinoBoris_bsp/\libucosii_bsp.a(os_cpu_a.o)
                              ../PepinoBoris_bsp/\libucosii_bsp.a(os_core.o) (OSIntCtxSw)
../PepinoBoris_bsp/\libucosii_bsp.a(os_cpu_c.o)
                              ../PepinoBoris_bsp/\libucosii_bsp.a(os_task.o) (OSTaskStkInit)
../PepinoBoris_bsp/\libucosii_bsp.a(altera_avalon_cfi_flash_amd.o)
                              ../PepinoBoris_bsp/\libucosii_bsp.a(altera_avalon_cfi_flash_table.o) (alt_program_amd)
../PepinoBoris_bsp/\libucosii_bsp.a(altera_avalon_cfi_flash_intel.o)
                              ../PepinoBoris_bsp/\libucosii_bsp.a(altera_avalon_cfi_flash_table.o) (alt_program_intel)
../PepinoBoris_bsp/\libucosii_bsp.a(altera_avalon_spi.o)
                              ../PepinoBoris_bsp/\libucosii_bsp.a(epcs_commands.o) (alt_avalon_spi_command)
../PepinoBoris_bsp/\libucosii_bsp.a(allports.o)
                              ../PepinoBoris_bsp/\libucosii_bsp.a(dhcpclnt.o) (name)
../PepinoBoris_bsp/\libucosii_bsp.a(timeouts.o)
                              ../PepinoBoris_bsp/\libucosii_bsp.a(netmain.o) (inet_timer)
../PepinoBoris_bsp/\libucosii_bsp.a(tk_misc.o)
                              ../PepinoBoris_bsp/\libucosii_bsp.a(netmain.o) (create_apptasks)
../PepinoBoris_bsp/\libucosii_bsp.a(alt_iniche_fcntl.o)
                              ../PepinoBoris_bsp/\libucosii_bsp.a(brdutils.o) (fcntl)
../PepinoBoris_bsp/\libucosii_bsp.a(et_arp.o)
                              ../PepinoBoris_bsp/\libucosii_bsp.a(ipstart.o) (etainit)
../PepinoBoris_bsp/\libucosii_bsp.a(iface.o)
                              ../PepinoBoris_bsp/\libucosii_bsp.a(ipnet.o) (netlist)
../PepinoBoris_bsp/\libucosii_bsp.a(ip.o)
                              ../PepinoBoris_bsp/\libucosii_bsp.a(ipstart.o) (ip_init)
../PepinoBoris_bsp/\libucosii_bsp.a(ip_reasm.o)
                              ../PepinoBoris_bsp/\libucosii_bsp.a(timeouts.o) (ire_cticks)
../PepinoBoris_bsp/\libucosii_bsp.a(ipdemux.o)
                              ../PepinoBoris_bsp/\libucosii_bsp.a(ipnet.o) (ip_rcv)
../PepinoBoris_bsp/\libucosii_bsp.a(ipmc.o)
                              ../PepinoBoris_bsp/\libucosii_bsp.a(ipstart.o) (in_addmulti)
../PepinoBoris_bsp/\libucosii_bsp.a(ipport.o)
                              ../PepinoBoris_bsp/\libucosii_bsp.a(targnios.o) (port_prep)
../PepinoBoris_bsp/\libucosii_bsp.a(ipraw.o)
                              ../PepinoBoris_bsp/\libucosii_bsp.a(rawsock.o) (ipraw_eps)
../PepinoBoris_bsp/\libucosii_bsp.a(iproute.o)
                              ../PepinoBoris_bsp/\libucosii_bsp.a(ip.o) (cachedRoute)
../PepinoBoris_bsp/\libucosii_bsp.a(udp.o)
                              ../PepinoBoris_bsp/\libucosii_bsp.a(ipdemux.o) (udpdemux)
../PepinoBoris_bsp/\libucosii_bsp.a(igmp.o)
                              ../PepinoBoris_bsp/\libucosii_bsp.a(igmp_cmn.o) (igmpv1_input)
../PepinoBoris_bsp/\libucosii_bsp.a(igmp2.o)
                              ../PepinoBoris_bsp/\libucosii_bsp.a(igmp_cmn.o) (igmpv2_input)
../PepinoBoris_bsp/\libucosii_bsp.a(ipopt.o)
                              ../PepinoBoris_bsp/\libucosii_bsp.a(socket.o) (ip_setmoptions)
../PepinoBoris_bsp/\libucosii_bsp.a(u_mctest.o)
                              ../PepinoBoris_bsp/\libucosii_bsp.a(allports.o) (u_mctest_init)
../PepinoBoris_bsp/\libucosii_bsp.a(dhcsetup.o)
                              ../PepinoBoris_bsp/\libucosii_bsp.a(allports.o) (dhc_setup)
../PepinoBoris_bsp/\libucosii_bsp.a(memdev.o)
                              ../PepinoBoris_bsp/\libucosii_bsp.a(allports.o) (init_memdev)
../PepinoBoris_bsp/\libucosii_bsp.a(parseip.o)
                              ../PepinoBoris_bsp/\libucosii_bsp.a(u_mctest.o) (inet_addr)
../PepinoBoris_bsp/\libucosii_bsp.a(tcpcksum.o)
                              ../PepinoBoris_bsp/\libucosii_bsp.a(nptcp.o) (tcp_cksum)
../PepinoBoris_bsp/\libucosii_bsp.a(in_pcb.o)
                              ../PepinoBoris_bsp/\libucosii_bsp.a(tcp_usr.o) (in_pcballoc)
../PepinoBoris_bsp/\libucosii_bsp.a(vfsfiles.o)
                              ../PepinoBoris_bsp/\libucosii_bsp.a(memdev.o) (vfsystems)
../PepinoBoris_bsp/\libucosii_bsp.a(vfsport.o)
                              ../PepinoBoris_bsp/\libucosii_bsp.a(allports.o) (prep_vfs)
../PepinoBoris_bsp/\libucosii_bsp.a(alt_exception_entry.o)
                              ../PepinoBoris_bsp/\libucosii_bsp.a(alt_irq_entry.o) (alt_exception)
../PepinoBoris_bsp/\libucosii_bsp.a(alt_fcntl.o)
                              ../PepinoBoris_bsp/\libucosii_bsp.a(alt_iniche_fcntl.o) (alt_fcntl)
../PepinoBoris_bsp/\libucosii_bsp.a(alt_find_file.o)
                              ../PepinoBoris_bsp/\libucosii_bsp.a(alt_open.o) (alt_find_file)
../PepinoBoris_bsp/\libucosii_bsp.a(alt_get_fd.o)
                              ../PepinoBoris_bsp/\libucosii_bsp.a(alt_open.o) (alt_get_fd)
../PepinoBoris_bsp/\libucosii_bsp.a(icmp.o)
                              ../PepinoBoris_bsp/\libucosii_bsp.a(ipdemux.o) (icmprcv)
d:/altera/13.0/nios2eds/bin/gnu/h-i686-mingw32/bin/../lib/gcc/nios2-elf/4.1.2/../../../../nios2-elf/lib\libc.a(lib_a-atexit.o)
                              ../PepinoBoris_bsp/\libucosii_bsp.a(alt_main.o) (atexit)
d:/altera/13.0/nios2eds/bin/gnu/h-i686-mingw32/bin/../lib/gcc/nios2-elf/4.1.2/../../../../nios2-elf/lib\libc.a(lib_a-atoi.o)
                              ../PepinoBoris_bsp/\libucosii_bsp.a(parseip.o) (atoi)
d:/altera/13.0/nios2eds/bin/gnu/h-i686-mingw32/bin/../lib/gcc/nios2-elf/4.1.2/../../../../nios2-elf/lib\libc.a(lib_a-calloc.o)
                              ../PepinoBoris_bsp/\libucosii_bsp.a(targnios.o) (calloc)
d:/altera/13.0/nios2eds/bin/gnu/h-i686-mingw32/bin/../lib/gcc/nios2-elf/4.1.2/../../../../nios2-elf/lib\libc.a(lib_a-exit.o)
                              ../PepinoBoris_bsp/\libucosii_bsp.a(alt_main.o) (exit)
d:/altera/13.0/nios2eds/bin/gnu/h-i686-mingw32/bin/../lib/gcc/nios2-elf/4.1.2/../../../../nios2-elf/lib\libc.a(lib_a-malloc.o)
                              ../PepinoBoris_bsp/\libucosii_bsp.a(targnios.o) (free)
d:/altera/13.0/nios2eds/bin/gnu/h-i686-mingw32/bin/../lib/gcc/nios2-elf/4.1.2/../../../../nios2-elf/lib\libc.a(lib_a-memcmp.o)
                              ../PepinoBoris_bsp/\libucosii_bsp.a(altera_avalon_cfi_flash.o) (memcmp)
d:/altera/13.0/nios2eds/bin/gnu/h-i686-mingw32/bin/../lib/gcc/nios2-elf/4.1.2/../../../../nios2-elf/lib\libc.a(lib_a-sprintf.o)
                              ../PepinoBoris_bsp/\libucosii_bsp.a(in_utils.o) (sprintf)
d:/altera/13.0/nios2eds/bin/gnu/h-i686-mingw32/bin/../lib/gcc/nios2-elf/4.1.2/../../../../nios2-elf/lib\libc.a(lib_a-strchr.o)
                              ../PepinoBoris_bsp/\libucosii_bsp.a(vfsfiles.o) (strchr)
d:/altera/13.0/nios2eds/bin/gnu/h-i686-mingw32/bin/../lib/gcc/nios2-elf/4.1.2/../../../../nios2-elf/lib\libc.a(lib_a-strcpy.o)
                              ../PepinoBoris_bsp/\libucosii_bsp.a(parseip.o) (strcpy)
d:/altera/13.0/nios2eds/bin/gnu/h-i686-mingw32/bin/../lib/gcc/nios2-elf/4.1.2/../../../../nios2-elf/lib\libc.a(lib_a-strncmp.o)
                              ../PepinoBoris_bsp/\libucosii_bsp.a(vfsfiles.o) (strncmp)
d:/altera/13.0/nios2eds/bin/gnu/h-i686-mingw32/bin/../lib/gcc/nios2-elf/4.1.2/../../../../nios2-elf/lib\libc.a(lib_a-strncpy.o)
                              ../PepinoBoris_bsp/\libucosii_bsp.a(dhcpclnt.o) (strncpy)
d:/altera/13.0/nios2eds/bin/gnu/h-i686-mingw32/bin/../lib/gcc/nios2-elf/4.1.2/../../../../nios2-elf/lib\libc.a(lib_a-strtol.o)
                              d:/altera/13.0/nios2eds/bin/gnu/h-i686-mingw32/bin/../lib/gcc/nios2-elf/4.1.2/../../../../nios2-elf/lib\libc.a(lib_a-atoi.o) (_strtol_r)
d:/altera/13.0/nios2eds/bin/gnu/h-i686-mingw32/bin/../lib/gcc/nios2-elf/4.1.2/../../../../nios2-elf/lib\libc.a(lib_a-vprintf.o)
                              ../PepinoBoris_bsp/\libucosii_bsp.a(in_utils.o) (vprintf)
d:/altera/13.0/nios2eds/bin/gnu/h-i686-mingw32/bin/../lib/gcc/nios2-elf/4.1.2/../../../../nios2-elf/lib\libc.a(lib_a-vsprintf.o)
                              ../PepinoBoris_bsp/\libucosii_bsp.a(in_utils.o) (vsprintf)
d:/altera/13.0/nios2eds/bin/gnu/h-i686-mingw32/bin/../lib/gcc/nios2-elf/4.1.2/../../../../nios2-elf/lib\libc.a(lib_a-__atexit.o)
                              d:/altera/13.0/nios2eds/bin/gnu/h-i686-mingw32/bin/../lib/gcc/nios2-elf/4.1.2/../../../../nios2-elf/lib\libc.a(lib_a-atexit.o) (__register_exitproc)
d:/altera/13.0/nios2eds/bin/gnu/h-i686-mingw32/bin/../lib/gcc/nios2-elf/4.1.2/../../../../nios2-elf/lib\libc.a(lib_a-__call_atexit.o)
                              d:/altera/13.0/nios2eds/bin/gnu/h-i686-mingw32/bin/../lib/gcc/nios2-elf/4.1.2/../../../../nios2-elf/lib\libc.a(lib_a-exit.o) (__call_exitprocs)
../PepinoBoris_bsp/\libucosii_bsp.a(alt_exit.o)
                              d:/altera/13.0/nios2eds/bin/gnu/h-i686-mingw32/bin/../lib/gcc/nios2-elf/4.1.2/../../../../nios2-elf/lib\libc.a(lib_a-exit.o) (_exit)

Allocating common symbols
Common symbol       size              file

soq                 0x14              ../PepinoBoris_bsp/\libucosii_bsp.a(nptcp.o)
alt_irq             0x100             ../PepinoBoris_bsp/\libucosii_bsp.a(alt_irq_handler.o)
tcp_optionbuf       0x4               ../PepinoBoris_bsp/\libucosii_bsp.a(tcp_out.o)
last_flash_sector_offset
                    0x4               obj/default/network_utilities.o
rt_mib              0x4               ../PepinoBoris_bsp/\libucosii_bsp.a(ip.o)
so_evtmap_create    0x4               ../PepinoBoris_bsp/\libucosii_bsp.a(ipport.o)
SSSLEDCommandQ      0x4               obj/default/simple_socket_server.o
OSLockNesting       0x1               ../PepinoBoris_bsp/\libucosii_bsp.a(os_core.o)
tcb                 0x2c              ../PepinoBoris_bsp/\libucosii_bsp.a(tcp_subr.o)
OSRunning           0x1               ../PepinoBoris_bsp/\libucosii_bsp.a(os_core.o)
dhc_states          0xf0              ../PepinoBoris_bsp/\libucosii_bsp.a(dhcpclnt.o)
tcpstat             0xe0              ../PepinoBoris_bsp/\libucosii_bsp.a(tcp_subr.o)
OSIdleCtr           0x4               ../PepinoBoris_bsp/\libucosii_bsp.a(os_core.o)
SSSLEDLightshowSem  0x4               obj/default/simple_socket_server.o
VGACommandQ         0x4               obj/default/simple_socket_server.o
udp_mib             0x10              ../PepinoBoris_bsp/\libucosii_bsp.a(udp.o)
to_netmain          0x1               ../PepinoBoris_bsp/\libucosii_bsp.a(netmain.o)
OSPrioHighRdy       0x1               ../PepinoBoris_bsp/\libucosii_bsp.a(os_core.o)
errno               0x4               d:/altera/13.0/nios2eds/bin/gnu/h-i686-mingw32/bin/../lib/gcc/nios2-elf/4.1.2/../../../../nios2-elf/lib\libc.a(lib_a-int_errno.o)
lilfreeq            0x14              ../PepinoBoris_bsp/\libucosii_bsp.a(pktalloc.o)
icmp_mib            0x68              ../PepinoBoris_bsp/\libucosii_bsp.a(icmp.o)
resid_semaphore     0x40              ../PepinoBoris_bsp/\libucosii_bsp.a(targnios.o)
alt_heapsem         0x4               ../PepinoBoris_bsp/\libucosii_bsp.a(alt_malloc_lock.o)
OSFlagTbl           0x370             ../PepinoBoris_bsp/\libucosii_bsp.a(os_core.o)
mbstat              0x8               ../PepinoBoris_bsp/\libucosii_bsp.a(nptcp.o)
netq_intmask        0x4               ../PepinoBoris_bsp/\libucosii_bsp.a(osportco.o)
select_wait         0x2               ../PepinoBoris_bsp/\libucosii_bsp.a(nptcp.o)
tcpmib              0x3c              ../PepinoBoris_bsp/\libucosii_bsp.a(nptcp.o)
OSPrioCur           0x1               ../PepinoBoris_bsp/\libucosii_bsp.a(os_core.o)
mheap_sem_ptr       0x4               ../PepinoBoris_bsp/\libucosii_bsp.a(targnios.o)
netlist             0x14              ../PepinoBoris_bsp/\libucosii_bsp.a(iface.o)
mbufq               0x14              ../PepinoBoris_bsp/\libucosii_bsp.a(nptcp.o)
OSTCBList           0x4               ../PepinoBoris_bsp/\libucosii_bsp.a(os_core.o)
alt_fd_list_lock    0x4               ../PepinoBoris_bsp/\libucosii_bsp.a(alt_dev.o)
OSMemTbl            0xc30             ../PepinoBoris_bsp/\libucosii_bsp.a(os_core.o)
OSTickStepState     0x1               ../PepinoBoris_bsp/\libucosii_bsp.a(os_core.o)
OSTaskStatStk       0x800             ../PepinoBoris_bsp/\libucosii_bsp.a(os_core.o)
OSCtxSwCtr          0x4               ../PepinoBoris_bsp/\libucosii_bsp.a(os_core.o)
igmpstats           0x64              ../PepinoBoris_bsp/\libucosii_bsp.a(igmp_cmn.o)
ire_stats           0x18              ../PepinoBoris_bsp/\libucosii_bsp.a(ip_reasm.o)
old_mode            0x4               ../PepinoBoris_bsp/\libucosii_bsp.a(osportco.o)
vfs_dir_stale       0x4               ../PepinoBoris_bsp/\libucosii_bsp.a(vfsfiles.o)
cticks_factor       0x4               ../PepinoBoris_bsp/\libucosii_bsp.a(brdutils.o)
g_dm9ka             0x44              obj/default/dm9000a.o
VGACommandQTbl      0x190             obj/default/simple_socket_server.o
OSIdleCtrMax        0x4               ../PepinoBoris_bsp/\libucosii_bsp.a(os_core.o)
memestats           0x10              ../PepinoBoris_bsp/\libucosii_bsp.a(pktalloc.o)
intimers            0x64              ../PepinoBoris_bsp/\libucosii_bsp.a(timeouts.o)
SDCardSem           0x4               obj/default/simple_socket_server.o
OSTCBFreeList       0x4               ../PepinoBoris_bsp/\libucosii_bsp.a(os_core.o)
global_TCPwakeup_setIndx
                    0x4               ../PepinoBoris_bsp/\libucosii_bsp.a(osportco.o)
SSSInitialTaskStk   0x2000            obj/default/iniche_init.o
rcvdq               0x14              ../PepinoBoris_bsp/\libucosii_bsp.a(ipnet.o)
DisplayReadButtonsTaskStk
                    0x2000            obj/default/simple_socket_server.o
global_tcb_ext      0xfc              ../PepinoBoris_bsp/\libucosii_bsp.a(osportco.o)
netstatic           0x300             ../PepinoBoris_bsp/\libucosii_bsp.a(ipstart.o)
tcp_maxidle         0x4               ../PepinoBoris_bsp/\libucosii_bsp.a(tcp_timr.o)
LED7SegLightshowTaskStk
                    0x2000            obj/default/simple_socket_server.o
bloco102            0x200             obj/default/sdcard/my_sdcard.o
OSCPUUsage          0x1               ../PepinoBoris_bsp/\libucosii_bsp.a(os_core.o)
nets                0x10              ../PepinoBoris_bsp/\libucosii_bsp.a(ipstart.o)
pktlog              0xf0              ../PepinoBoris_bsp/\libucosii_bsp.a(pktalloc.o)
OSTaskCtr           0x1               ../PepinoBoris_bsp/\libucosii_bsp.a(os_core.o)
SSSLEDEventFlag     0x4               obj/default/simple_socket_server.o
OSMemFreeList       0x4               ../PepinoBoris_bsp/\libucosii_bsp.a(os_core.o)
vfs_open_files      0x4               ../PepinoBoris_bsp/\libucosii_bsp.a(vfsfiles.o)
search_data         0x14              ../PepinoBoris_bsp/\libucosii_bsp.a(altera_up_sd_card_avalon_interface.o)
cticks              0x4               ../PepinoBoris_bsp/\libucosii_bsp.a(osportco.o)
to_nettick          0x1               ../PepinoBoris_bsp/\libucosii_bsp.a(netmain.o)
last_flash_sector   0x4               obj/default/network_utilities.o
OSQTbl              0x1e0             ../PepinoBoris_bsp/\libucosii_bsp.a(os_core.o)
boot_sector_data    0x54              ../PepinoBoris_bsp/\libucosii_bsp.a(altera_up_sd_card_avalon_interface.o)
OSTCBHighRdy        0x4               ../PepinoBoris_bsp/\libucosii_bsp.a(os_core.o)
OSQFreeList         0x4               ../PepinoBoris_bsp/\libucosii_bsp.a(os_core.o)
OSRdyGrp            0x1               ../PepinoBoris_bsp/\libucosii_bsp.a(os_core.o)
ip_mib              0x50              ../PepinoBoris_bsp/\libucosii_bsp.a(ip.o)
SSSLEDCommandQTbl   0x78              obj/default/simple_socket_server.o
OS_TPS              0x4               ../PepinoBoris_bsp/\libucosii_bsp.a(brdutils.o)
_atexit0            0x190             d:/altera/13.0/nios2eds/bin/gnu/h-i686-mingw32/bin/../lib/gcc/nios2-elf/4.1.2/../../../../nios2-elf/lib\libc.a(lib_a-atexit.o)
OSRdyTbl            0x3               ../PepinoBoris_bsp/\libucosii_bsp.a(os_core.o)
igmp_all_hosts_group
                    0x4               ../PepinoBoris_bsp/\libucosii_bsp.a(igmp_cmn.o)
eth_prt_buf         0x12              ../PepinoBoris_bsp/\libucosii_bsp.a(in_utils.o)
app_semaphore       0x18              ../PepinoBoris_bsp/\libucosii_bsp.a(targnios.o)
DisplayUpdateVGATaskStk
                    0x2000            obj/default/simple_socket_server.o
LEDManagementTaskStk
                    0x2000            obj/default/simple_socket_server.o
rcvdq_sem_ptr       0x4               ../PepinoBoris_bsp/\libucosii_bsp.a(targnios.o)
OSEventFreeList     0x4               ../PepinoBoris_bsp/\libucosii_bsp.a(os_core.o)
mfreeq              0x14              ../PepinoBoris_bsp/\libucosii_bsp.a(nptcp.o)
to_ssstask          0x1               obj/default/iniche_init.o
global_TCPwakeup_set
                    0xf0              ../PepinoBoris_bsp/\libucosii_bsp.a(osportco.o)
bigfreeq            0x14              ../PepinoBoris_bsp/\libucosii_bsp.a(pktalloc.o)
so_evtmap_delete    0x4               ../PepinoBoris_bsp/\libucosii_bsp.a(ipport.o)
tcp_saveti          0x28              ../PepinoBoris_bsp/\libucosii_bsp.a(tcp_in.o)
active_files        0x500             ../PepinoBoris_bsp/\libucosii_bsp.a(altera_up_sd_card_avalon_interface.o)
OSIntNesting        0x1               ../PepinoBoris_bsp/\libucosii_bsp.a(os_core.o)
so_evtmap           0x1               ../PepinoBoris_bsp/\libucosii_bsp.a(ipport.o)
OSTCBCur            0x4               ../PepinoBoris_bsp/\libucosii_bsp.a(os_core.o)
arp_table           0x100             ../PepinoBoris_bsp/\libucosii_bsp.a(et_arp.o)
bloco101            0x200             obj/default/sdcard/my_sdcard.o
bloco103            0x200             obj/default/sdcard/my_sdcard.o
tcp_iss             0x4               ../PepinoBoris_bsp/\libucosii_bsp.a(tcp_timr.o)
vfs_total_rw_space  0x4               ../PepinoBoris_bsp/\libucosii_bsp.a(vfsfiles.o)
OSTime              0x4               ../PepinoBoris_bsp/\libucosii_bsp.a(os_core.o)
OSTaskIdleStk       0x800             ../PepinoBoris_bsp/\libucosii_bsp.a(os_core.o)
OSEventTbl          0xb40             ../PepinoBoris_bsp/\libucosii_bsp.a(os_core.o)
vfs_total_dyna_files
                    0x4               ../PepinoBoris_bsp/\libucosii_bsp.a(vfsfiles.o)
OSTCBTbl            0x510             ../PepinoBoris_bsp/\libucosii_bsp.a(os_core.o)
ipreturn            0x12              ../PepinoBoris_bsp/\libucosii_bsp.a(in_utils.o)
OSFlagFreeList      0x4               ../PepinoBoris_bsp/\libucosii_bsp.a(os_core.o)
dropline            0x4               ../PepinoBoris_bsp/\libucosii_bsp.a(tcp_in.o)
OSStatRdy           0x1               ../PepinoBoris_bsp/\libucosii_bsp.a(os_core.o)
OSTCBPrioTbl        0x54              ../PepinoBoris_bsp/\libucosii_bsp.a(os_core.o)
igmp_all_rtrs_group
                    0x4               ../PepinoBoris_bsp/\libucosii_bsp.a(igmp_cmn.o)
DisplayVGAEventFlag
                    0x4               obj/default/simple_socket_server.o
alt_envsem          0x4               ../PepinoBoris_bsp/\libucosii_bsp.a(alt_env_lock.o)
OSIdleCtrRun        0x4               ../PepinoBoris_bsp/\libucosii_bsp.a(os_core.o)

Memory Configuration

Name             Origin             Length             Attributes
sdram_0_BEFORE_EXCEPTION 0x00800000         0x00000020
sdram_0          0x00800020         0x007fffe0
reset            0x01400000         0x00000020
cfi_flash_0      0x01400020         0x003fffe0
sram_0           0x01a00000         0x00080000
epcs_controller  0x01a81000         0x00000800
*default*        0x00000000         0xffffffff

Linker script and memory map

LOAD ../PepinoBoris_bsp//obj/HAL/src/crt0.o
LOAD obj/default/VGA.o
LOAD obj/default/alt_error_handler.o
LOAD obj/default/dm9000a.o
LOAD obj/default/iniche_init.o
LOAD obj/default/led.o
LOAD obj/default/my_threads.o
LOAD obj/default/network_utilities.o
LOAD obj/default/sdcard/my_sdcard.o
LOAD obj/default/simple_socket_server.o
LOAD obj/default/tse_my_system.o
LOAD d:/altera/13.0/nios2eds/bin/gnu/h-i686-mingw32/bin/../lib/gcc/nios2-elf/4.1.2/../../../../nios2-elf/lib\libstdc++.a
LOAD d:/altera/13.0/nios2eds/bin/gnu/h-i686-mingw32/bin/../lib/gcc/nios2-elf/4.1.2/../../../../nios2-elf/lib\libm.a
LOAD d:/altera/13.0/nios2eds/bin/gnu/h-i686-mingw32/bin/../lib/gcc/nios2-elf/4.1.2\libgcc.a
START GROUP
LOAD d:/altera/13.0/nios2eds/bin/gnu/h-i686-mingw32/bin/../lib/gcc/nios2-elf/4.1.2/../../../../nios2-elf/lib\libc.a
LOAD d:/altera/13.0/nios2eds/bin/gnu/h-i686-mingw32/bin/../lib/gcc/nios2-elf/4.1.2\libgcc.a
LOAD ../PepinoBoris_bsp/\libucosii_bsp.a
END GROUP
LOAD d:/altera/13.0/nios2eds/bin/gnu/h-i686-mingw32/bin/../lib/gcc/nios2-elf/4.1.2\libgcc.a
                0x00800000                __alt_mem_sdram_0 = 0x800000
                0x01400000                __alt_mem_cfi_flash_0 = 0x1400000
                0x01a00000                __alt_mem_sram_0 = 0x1a00000
                0x01a81000                __alt_mem_epcs_controller = 0x1a81000

.entry          0x01400000        0x0
 *(.entry)
 .entry         0x01400000        0x0 ../PepinoBoris_bsp//obj/HAL/src/crt0.o
                0x01400000                __reset

.exceptions     0x00800020      0x19c
                0x00800020                PROVIDE (__ram_exceptions_start, ABSOLUTE (.))
                0x00800020                . = ALIGN (0x20)
 *(.irq)
 *(.exceptions.entry.label)
 .exceptions.entry.label
                0x00800020        0x0 ../PepinoBoris_bsp/\libucosii_bsp.a(alt_irq_entry.o)
                0x00800020                alt_irq_entry
 .exceptions.entry.label
                0x00800020        0x0 ../PepinoBoris_bsp/\libucosii_bsp.a(alt_exception_entry.o)
                0x00800020                alt_exception
 *(.exceptions.entry.user)
 *(.exceptions.entry)
 .exceptions.entry
                0x00800020       0x54 ../PepinoBoris_bsp/\libucosii_bsp.a(alt_exception_entry.o)
 *(.exceptions.irqtest.user)
 *(.exceptions.irqtest)
 .exceptions.irqtest
                0x00800074       0x10 ../PepinoBoris_bsp/\libucosii_bsp.a(alt_irq_entry.o)
 *(.exceptions.irqhandler.user)
 *(.exceptions.irqhandler)
 .exceptions.irqhandler
                0x00800084        0x4 ../PepinoBoris_bsp/\libucosii_bsp.a(alt_irq_entry.o)
 *(.exceptions.irqreturn.user)
 *(.exceptions.irqreturn)
 .exceptions.irqreturn
                0x00800088        0x4 ../PepinoBoris_bsp/\libucosii_bsp.a(alt_irq_entry.o)
 *(.exceptions.notirq.label)
 .exceptions.notirq.label
                0x0080008c        0x0 ../PepinoBoris_bsp/\libucosii_bsp.a(alt_irq_entry.o)
 *(.exceptions.notirq.user)
 *(.exceptions.notirq)
 .exceptions.notirq
                0x0080008c        0x8 ../PepinoBoris_bsp/\libucosii_bsp.a(alt_exception_entry.o)
 *(.exceptions.soft.user)
 *(.exceptions.soft)
 *(.exceptions.unknown.user)
 *(.exceptions.unknown)
 .exceptions.unknown
                0x00800094        0x4 ../PepinoBoris_bsp/\libucosii_bsp.a(alt_exception_entry.o)
 *(.exceptions.exit.label)
 .exceptions.exit.label
                0x00800098        0x0 ../PepinoBoris_bsp/\libucosii_bsp.a(alt_irq_entry.o)
 .exceptions.exit.label
                0x00800098        0x0 ../PepinoBoris_bsp/\libucosii_bsp.a(alt_exception_entry.o)
 *(.exceptions.exit.user)
 *(.exceptions.exit)
 .exceptions.exit
                0x00800098       0x54 ../PepinoBoris_bsp/\libucosii_bsp.a(alt_exception_entry.o)
 *(.exceptions)
 .exceptions    0x008000ec       0xd0 ../PepinoBoris_bsp/\libucosii_bsp.a(alt_irq_handler.o)
                0x008000ec                alt_irq_handler
                0x008001bc                PROVIDE (__ram_exceptions_end, ABSOLUTE (.))
                0x00800020                PROVIDE (__flash_exceptions_start, LOADADDR (.exceptions))

.text           0x008001bc    0x4b974
                0x008001bc                PROVIDE (stext, ABSOLUTE (.))
 *(.interp)
 *(.hash)
 *(.dynsym)
 *(.dynstr)
 *(.gnu.version)
 *(.gnu.version_d)
 *(.gnu.version_r)
 *(.rel.init)
 *(.rela.init)
 *(.rel.text .rel.text.* .rel.gnu.linkonce.t.*)
 *(.rela.text .rela.text.* .rela.gnu.linkonce.t.*)
 *(.rel.fini)
 *(.rela.fini)
 *(.rel.rodata .rel.rodata.* .rel.gnu.linkonce.r.*)
 *(.rela.rodata .rela.rodata.* .rela.gnu.linkonce.r.*)
 *(.rel.data .rel.data.* .rel.gnu.linkonce.d.*)
 *(.rela.data .rela.data.* .rela.gnu.linkonce.d.*)
 *(.rel.tdata .rel.tdata.* .rel.gnu.linkonce.td.*)
 *(.rela.tdata .rela.tdata.* .rela.gnu.linkonce.td.*)
 *(.rel.tbss .rel.tbss.* .rel.gnu.linkonce.tb.*)
 *(.rela.tbss .rela.tbss.* .rela.gnu.linkonce.tb.*)
 *(.rel.ctors)
 *(.rela.ctors)
 *(.rel.dtors)
 *(.rela.dtors)
 *(.rel.got)
 *(.rela.got)
 *(.rel.sdata .rel.sdata.* .rel.gnu.linkonce.s.*)
 *(.rela.sdata .rela.sdata.* .rela.gnu.linkonce.s.*)
 *(.rel.sbss .rel.sbss.* .rel.gnu.linkonce.sb.*)
 *(.rela.sbss .rela.sbss.* .rela.gnu.linkonce.sb.*)
 *(.rel.sdata2 .rel.sdata2.* .rel.gnu.linkonce.s2.*)
 *(.rela.sdata2 .rela.sdata2.* .rela.gnu.linkonce.s2.*)
 *(.rel.sbss2 .rel.sbss2.* .rel.gnu.linkonce.sb2.*)
 *(.rela.sbss2 .rela.sbss2.* .rela.gnu.linkonce.sb2.*)
 *(.rel.bss .rel.bss.* .rel.gnu.linkonce.b.*)
 *(.rela.bss .rela.bss.* .rela.gnu.linkonce.b.*)
 *(.rel.plt)
 *(.rela.plt)
 *(.rel.dyn)
 *(.init)
 *(.plt)
 *(.text .stub .text.* .gnu.linkonce.t.*)
 .text          0x008001bc       0x48 ../PepinoBoris_bsp//obj/HAL/src/crt0.o
                0x008001bc                _start
 .text          0x00800204      0x14c obj/default/VGA.o
                0x00800204                Set_Cursor_XY
                0x00800248                Set_Cursor_Color
                0x008002a0                Set_Pixel_On_Color
                0x008002f8                Set_Pixel_Off_Color
 .text          0x00800350      0xba8 obj/default/alt_error_handler.o
                0x00800350                alt_uCOSIIErrorHandler
                0x00800974                alt_NetworkErrorHandler
                0x00800c0c                alt_SSSErrorHandler
 .text          0x00800ef8      0xe48 obj/default/dm9000a.o
                0x00800ef8                dm9000a_iow
                0x00800f4c                dm9000a_ior
                0x00800f98                phy_write
                0x00801034                dm9000a_reset
                0x008011f8                TransmitPacket
                0x00801314                prep_dm9000a
                0x00801530                dm9000a_init
                0x00801980                dm9Ka_isr_wrap
                0x008019c0                dm9ka_init
                0x00801ab8                dm9ka_close
                0x00801bc8                dm9ka_stats
                0x00801c24                dm9ka_pkt_send
 .text          0x00801d40      0x1c0 obj/default/iniche_init.o
                0x00801d40                SSSInitialTask
                0x00801db8                main
 .text          0x00801f00      0x324 obj/default/led.o
                0x00801f00                led_bit_toggle
                0x00801fcc                LED7SegLightshowTask
                0x00802040                LEDManagementTask
 .text          0x00802224      0x3b4 obj/default/my_threads.o
                0x00802224                DisplayUpdateVGATask
                0x008024e0                DisplayReadButtonsTask
 .text          0x008025d8      0x87c obj/default/network_utilities.o
                0x008025d8                get_mac_addr
                0x00802630                get_ip_addr
                0x0080269c                get_serial_number
                0x00802878                generate_and_store_mac_addr
                0x00802a44                generate_mac_addr
                0x00802b80                get_board_mac_addr
                0x00802d14                FindLastFlashSectorOffset
 .text          0x00802e54      0x7e4 obj/default/sdcard/my_sdcard.o
                0x00802e54                escreveBloco
                0x00802f58                leBloco
                0x0080305c                loadSamples
                0x008030b0                storeSamples
                0x00803138                readSamples
                0x008032e8                writeSample
                0x0080349c                printSamples
                0x00803520                sampleDecoder
 .text          0x00803638      0x50c obj/default/simple_socket_server.o
                0x00803638                SSSCreateOSDataStructs
                0x00803764                SSSCreateTasks
                0x00803828                sss_reset_connection
                0x00803898                sss_handle_accept
                0x00803950                SSSSimpleSocketServerTask
 .text          0x00803b44        0x0 obj/default/tse_my_system.o
 .text          0x00803b44       0xa4 d:/altera/13.0/nios2eds/bin/gnu/h-i686-mingw32/bin/../lib/gcc/nios2-elf/4.1.2\libgcc.a(_fixunsdfsi.o)
                0x00803b44                __fixunsdfsi
 .text          0x00803be8      0x2b8 d:/altera/13.0/nios2eds/bin/gnu/h-i686-mingw32/bin/../lib/gcc/nios2-elf/4.1.2\libgcc.a(_addsub_sf.o)
                0x00803dcc                __subsf3
                0x00803e3c                __addsf3
 .text          0x00803ea0      0x1e0 d:/altera/13.0/nios2eds/bin/gnu/h-i686-mingw32/bin/../lib/gcc/nios2-elf/4.1.2\libgcc.a(_mul_sf.o)
                0x00803ea0                __mulsf3
 .text          0x00804080      0x174 d:/altera/13.0/nios2eds/bin/gnu/h-i686-mingw32/bin/../lib/gcc/nios2-elf/4.1.2\libgcc.a(_div_sf.o)
                0x00804080                __divsf3
 .text          0x008041f4       0x94 d:/altera/13.0/nios2eds/bin/gnu/h-i686-mingw32/bin/../lib/gcc/nios2-elf/4.1.2\libgcc.a(_sf_to_si.o)
                0x008041f4                __fixsfsi
 .text          0x00804288        0x0 d:/altera/13.0/nios2eds/bin/gnu/h-i686-mingw32/bin/../lib/gcc/nios2-elf/4.1.2\libgcc.a(_thenan_sf.o)
 .text          0x00804288       0xc0 d:/altera/13.0/nios2eds/bin/gnu/h-i686-mingw32/bin/../lib/gcc/nios2-elf/4.1.2\libgcc.a(_usi_to_sf.o)
                0x00804288                __floatunsisf
 .text          0x00804348      0x504 d:/altera/13.0/nios2eds/bin/gnu/h-i686-mingw32/bin/../lib/gcc/nios2-elf/4.1.2\libgcc.a(_addsub_df.o)
                0x00804758                __subdf3
                0x008047d8                __adddf3
 .text          0x0080484c      0x3c4 d:/altera/13.0/nios2eds/bin/gnu/h-i686-mingw32/bin/../lib/gcc/nios2-elf/4.1.2\libgcc.a(_mul_df.o)
                0x0080484c                __muldf3
 .text          0x00804c10       0x88 d:/altera/13.0/nios2eds/bin/gnu/h-i686-mingw32/bin/../lib/gcc/nios2-elf/4.1.2\libgcc.a(_ge_df.o)
                0x00804c10                __gedf2
 .text          0x00804c98       0xd8 d:/altera/13.0/nios2eds/bin/gnu/h-i686-mingw32/bin/../lib/gcc/nios2-elf/4.1.2\libgcc.a(_df_to_si.o)
                0x00804c98                __fixdfsi
 .text          0x00804d70        0x0 d:/altera/13.0/nios2eds/bin/gnu/h-i686-mingw32/bin/../lib/gcc/nios2-elf/4.1.2\libgcc.a(_thenan_df.o)
 .text          0x00804d70      0x194 d:/altera/13.0/nios2eds/bin/gnu/h-i686-mingw32/bin/../lib/gcc/nios2-elf/4.1.2\libgcc.a(_usi_to_df.o)
                0x00804d70                __floatunsidf
 .text          0x00804f04       0x98 d:/altera/13.0/nios2eds/bin/gnu/h-i686-mingw32/bin/../lib/gcc/nios2-elf/4.1.2\libgcc.a(_muldi3.o)
                0x00804f04                __muldi3
 .text          0x00804f9c       0x80 d:/altera/13.0/nios2eds/bin/gnu/h-i686-mingw32/bin/../lib/gcc/nios2-elf/4.1.2\libgcc.a(_clzsi2.o)
                0x00804f9c                __clzsi2
 .text          0x0080501c      0x160 d:/altera/13.0/nios2eds/bin/gnu/h-i686-mingw32/bin/../lib/gcc/nios2-elf/4.1.2\libgcc.a(_pack_sf.o)
                0x0080501c                __pack_f
 .text          0x0080517c       0xc8 d:/altera/13.0/nios2eds/bin/gnu/h-i686-mingw32/bin/../lib/gcc/nios2-elf/4.1.2\libgcc.a(_unpack_sf.o)
                0x0080517c                __unpack_f
 .text          0x00805244      0x314 d:/altera/13.0/nios2eds/bin/gnu/h-i686-mingw32/bin/../lib/gcc/nios2-elf/4.1.2\libgcc.a(_pack_df.o)
                0x00805244                __pack_d
 .text          0x00805558      0x138 d:/altera/13.0/nios2eds/bin/gnu/h-i686-mingw32/bin/../lib/gcc/nios2-elf/4.1.2\libgcc.a(_unpack_df.o)
                0x00805558                __unpack_d
 .text          0x00805690       0xc8 d:/altera/13.0/nios2eds/bin/gnu/h-i686-mingw32/bin/../lib/gcc/nios2-elf/4.1.2\libgcc.a(_fpcmp_parts_df.o)
                0x00805690                __fpcmp_parts_d
 .text          0x00805758        0x0 d:/altera/13.0/nios2eds/bin/gnu/h-i686-mingw32/bin/../lib/gcc/nios2-elf/4.1.2\libgcc.a(_clz.o)
 .text          0x00805758        0x0 d:/altera/13.0/nios2eds/bin/gnu/h-i686-mingw32/bin/../lib/gcc/nios2-elf/4.1.2/../../../../nios2-elf/lib\libc.a(lib_a-ctype_.o)
 .text          0x00805758       0x60 d:/altera/13.0/nios2eds/bin/gnu/h-i686-mingw32/bin/../lib/gcc/nios2-elf/4.1.2/../../../../nios2-elf/lib\libc.a(lib_a-fprintf.o)
                0x00805758                fprintf
                0x00805784                _fprintf_r
 .text          0x008057b8       0xdc d:/altera/13.0/nios2eds/bin/gnu/h-i686-mingw32/bin/../lib/gcc/nios2-elf/4.1.2/../../../../nios2-elf/lib\libc.a(lib_a-fwrite.o)
                0x008057b8                _fwrite_r
                0x00805854                fwrite
 .text          0x00805894      0x128 d:/altera/13.0/nios2eds/bin/gnu/h-i686-mingw32/bin/../lib/gcc/nios2-elf/4.1.2/../../../../nios2-elf/lib\libc.a(lib_a-getc.o)
                0x00805894                getc
                0x0080592c                _getc_r
 .text          0x008059bc        0x0 d:/altera/13.0/nios2eds/bin/gnu/h-i686-mingw32/bin/../lib/gcc/nios2-elf/4.1.2/../../../../nios2-elf/lib\libc.a(lib_a-impure.o)
 .text          0x008059bc       0x98 d:/altera/13.0/nios2eds/bin/gnu/h-i686-mingw32/bin/../lib/gcc/nios2-elf/4.1.2/../../../../nios2-elf/lib\libc.a(lib_a-memset.o)
                0x008059bc                memset
 .text          0x00805a54       0x80 d:/altera/13.0/nios2eds/bin/gnu/h-i686-mingw32/bin/../lib/gcc/nios2-elf/4.1.2/../../../../nios2-elf/lib\libc.a(lib_a-perror.o)
                0x00805a54                _perror_r
                0x00805ac0                perror
 .text          0x00805ad4       0x78 d:/altera/13.0/nios2eds/bin/gnu/h-i686-mingw32/bin/../lib/gcc/nios2-elf/4.1.2/../../../../nios2-elf/lib\libc.a(lib_a-printf.o)
                0x00805ad4                printf
                0x00805b18                _printf_r
 .text          0x00805b4c      0x1ec d:/altera/13.0/nios2eds/bin/gnu/h-i686-mingw32/bin/../lib/gcc/nios2-elf/4.1.2/../../../../nios2-elf/lib\libc.a(lib_a-putc.o)
                0x00805b4c                putc
                0x00805c50                _putc_r
 .text          0x00805d38       0x24 d:/altera/13.0/nios2eds/bin/gnu/h-i686-mingw32/bin/../lib/gcc/nios2-elf/4.1.2/../../../../nios2-elf/lib\libc.a(lib_a-putchar.o)
                0x00805d38                putchar
                0x00805d54                _putchar_r
 .text          0x00805d5c       0xb4 d:/altera/13.0/nios2eds/bin/gnu/h-i686-mingw32/bin/../lib/gcc/nios2-elf/4.1.2/../../../../nios2-elf/lib\libc.a(lib_a-puts.o)
                0x00805d5c                _puts_r
                0x00805dfc                puts
 .text          0x00805e10       0x60 d:/altera/13.0/nios2eds/bin/gnu/h-i686-mingw32/bin/../lib/gcc/nios2-elf/4.1.2/../../../../nios2-elf/lib\libc.a(lib_a-rget.o)
                0x00805e10                __srget_r
                0x00805e5c                __srget
 .text          0x00805e70      0x674 d:/altera/13.0/nios2eds/bin/gnu/h-i686-mingw32/bin/../lib/gcc/nios2-elf/4.1.2/../../../../nios2-elf/lib\libc.a(lib_a-strerror.o)
                0x00805e70                strerror
 .text          0x008064e4       0x74 d:/altera/13.0/nios2eds/bin/gnu/h-i686-mingw32/bin/../lib/gcc/nios2-elf/4.1.2/../../../../nios2-elf/lib\libc.a(lib_a-strlen.o)
                0x008064e4                strlen
 .text          0x00806558        0x8 d:/altera/13.0/nios2eds/bin/gnu/h-i686-mingw32/bin/../lib/gcc/nios2-elf/4.1.2/../../../../nios2-elf/lib\libc.a(lib_a-u_strerr.o)
                0x00806558                _user_strerror
 .text          0x00806560     0x1f28 d:/altera/13.0/nios2eds/bin/gnu/h-i686-mingw32/bin/../lib/gcc/nios2-elf/4.1.2/../../../../nios2-elf/lib\libc.a(lib_a-vfprintf.o)
                0x008065b8                ___vfprintf_internal_r
                0x00808464                __vfprintf_internal
 .text          0x00808488      0x14c d:/altera/13.0/nios2eds/bin/gnu/h-i686-mingw32/bin/../lib/gcc/nios2-elf/4.1.2/../../../../nios2-elf/lib\libc.a(lib_a-wbuf.o)
                0x00808488                __swbuf_r
                0x008085b8                __swbuf
 .text          0x008085d4      0x13c d:/altera/13.0/nios2eds/bin/gnu/h-i686-mingw32/bin/../lib/gcc/nios2-elf/4.1.2/../../../../nios2-elf/lib\libc.a(lib_a-wsetup.o)
                0x008085d4                __swsetup_r
 .text          0x00808710     0x17cc d:/altera/13.0/nios2eds/bin/gnu/h-i686-mingw32/bin/../lib/gcc/nios2-elf/4.1.2/../../../../nios2-elf/lib\libc.a(lib_a-dtoa.o)
                0x00808928                _dtoa_r
 .text          0x00809edc      0x230 d:/altera/13.0/nios2eds/bin/gnu/h-i686-mingw32/bin/../lib/gcc/nios2-elf/4.1.2/../../../../nios2-elf/lib\libc.a(lib_a-fflush.o)
                0x00809edc                _fflush_r
                0x0080a0d8                fflush
 .text          0x0080a10c      0x2c0 d:/altera/13.0/nios2eds/bin/gnu/h-i686-mingw32/bin/../lib/gcc/nios2-elf/4.1.2/../../../../nios2-elf/lib\libc.a(lib_a-findfp.o)
                0x0080a164                __sfp_lock_acquire
                0x0080a168                __sfp_lock_release
                0x0080a16c                __sinit_lock_acquire
                0x0080a170                __sinit_lock_release
                0x0080a174                __sinit
                0x0080a228                __fp_unlock_all
                0x0080a240                __fp_lock_all
                0x0080a258                _cleanup_r
                0x0080a264                _cleanup
                0x0080a274                __sfmoreglue
                0x0080a2dc                __sfp
 .text          0x0080a3cc       0xbc d:/altera/13.0/nios2eds/bin/gnu/h-i686-mingw32/bin/../lib/gcc/nios2-elf/4.1.2/../../../../nios2-elf/lib\libc.a(lib_a-fputc.o)
                0x0080a3cc                fputc
                0x0080a430                _fputc_r
 .text          0x0080a488       0x90 d:/altera/13.0/nios2eds/bin/gnu/h-i686-mingw32/bin/../lib/gcc/nios2-elf/4.1.2/../../../../nios2-elf/lib\libc.a(lib_a-fputs.o)
                0x0080a488                _fputs_r
                0x0080a4fc                fputs
 .text          0x0080a518      0x440 d:/altera/13.0/nios2eds/bin/gnu/h-i686-mingw32/bin/../lib/gcc/nios2-elf/4.1.2/../../../../nios2-elf/lib\libc.a(lib_a-freer.o)
                0x0080a518                _malloc_trim_r
                0x0080a644                _free_r
 .text          0x0080a958      0x49c d:/altera/13.0/nios2eds/bin/gnu/h-i686-mingw32/bin/../lib/gcc/nios2-elf/4.1.2/../../../../nios2-elf/lib\libc.a(lib_a-fvwrite.o)
                0x0080a958                __sfvwrite_r
 .text          0x0080adf4      0x180 d:/altera/13.0/nios2eds/bin/gnu/h-i686-mingw32/bin/../lib/gcc/nios2-elf/4.1.2/../../../../nios2-elf/lib\libc.a(lib_a-fwalk.o)
                0x0080adf4                _fwalk_reent
                0x0080aebc                _fwalk
 .text          0x0080af74       0xc4 d:/altera/13.0/nios2eds/bin/gnu/h-i686-mingw32/bin/../lib/gcc/nios2-elf/4.1.2/../../../../nios2-elf/lib\libc.a(lib_a-locale.o)
                0x0080af74                __locale_charset
                0x0080af7c                _localeconv_r
                0x0080af88                localeconv
                0x0080af98                _setlocale_r
                0x0080b01c                setlocale
 .text          0x0080b038      0x194 d:/altera/13.0/nios2eds/bin/gnu/h-i686-mingw32/bin/../lib/gcc/nios2-elf/4.1.2/../../../../nios2-elf/lib\libc.a(lib_a-makebuf.o)
                0x0080b038                __smakebuf_r
 .text          0x0080b1cc      0x740 d:/altera/13.0/nios2eds/bin/gnu/h-i686-mingw32/bin/../lib/gcc/nios2-elf/4.1.2/../../../../nios2-elf/lib\libc.a(lib_a-mallocr.o)
                0x0080b1cc                _malloc_r
 .text          0x0080b90c       0xe4 d:/altera/13.0/nios2eds/bin/gnu/h-i686-mingw32/bin/../lib/gcc/nios2-elf/4.1.2/../../../../nios2-elf/lib\libc.a(lib_a-memchr.o)
                0x0080b90c                memchr
 .text          0x0080b9f0       0xa0 d:/altera/13.0/nios2eds/bin/gnu/h-i686-mingw32/bin/../lib/gcc/nios2-elf/4.1.2/../../../../nios2-elf/lib\libc.a(lib_a-memcpy.o)
                0x0080b9f0                memcpy
 .text          0x0080ba90       0xe0 d:/altera/13.0/nios2eds/bin/gnu/h-i686-mingw32/bin/../lib/gcc/nios2-elf/4.1.2/../../../../nios2-elf/lib\libc.a(lib_a-memmove.o)
                0x0080ba90                memmove
 .text          0x0080bb70      0xff4 d:/altera/13.0/nios2eds/bin/gnu/h-i686-mingw32/bin/../lib/gcc/nios2-elf/4.1.2/../../../../nios2-elf/lib\libc.a(lib_a-mprec.o)
                0x0080bb70                _Bfree
                0x0080bb98                __hi0bits
                0x0080bc08                __lo0bits
                0x0080bccc                __mcmp
                0x0080bd2c                __ulp
                0x0080bdac                __b2d
                0x0080becc                __ratio
                0x0080bf7c                _mprec_log10
                0x0080c010                __copybits
                0x0080c068                __any_on
                0x0080c0f0                _Balloc
                0x0080c1ac                __d2b
                0x0080c328                __mdiff
                0x0080c4b4                __lshift
                0x0080c600                __multiply
                0x0080c7e8                __i2b
                0x0080c824                __multadd
                0x0080c924                __pow5mult
                0x0080ca44                __s2b
 .text          0x0080cb64      0x5f4 d:/altera/13.0/nios2eds/bin/gnu/h-i686-mingw32/bin/../lib/gcc/nios2-elf/4.1.2/../../../../nios2-elf/lib\libc.a(lib_a-reallocr.o)
                0x0080cb64                _realloc_r
 .text          0x0080d158      0x1e0 d:/altera/13.0/nios2eds/bin/gnu/h-i686-mingw32/bin/../lib/gcc/nios2-elf/4.1.2/../../../../nios2-elf/lib\libc.a(lib_a-refill.o)
                0x0080d158                __srefill_r
 .text          0x0080d338       0x40 d:/altera/13.0/nios2eds/bin/gnu/h-i686-mingw32/bin/../lib/gcc/nios2-elf/4.1.2/../../../../nios2-elf/lib\libc.a(lib_a-s_isinfd.o)
                0x0080d338                __isinfd
 .text          0x0080d378       0x30 d:/altera/13.0/nios2eds/bin/gnu/h-i686-mingw32/bin/../lib/gcc/nios2-elf/4.1.2/../../../../nios2-elf/lib\libc.a(lib_a-s_isnand.o)
                0x0080d378                __isnand
 .text          0x0080d3a8       0x70 d:/altera/13.0/nios2eds/bin/gnu/h-i686-mingw32/bin/../lib/gcc/nios2-elf/4.1.2/../../../../nios2-elf/lib\libc.a(lib_a-sbrkr.o)
                0x0080d3a8                _sbrk_r
 .text          0x0080d418      0x14c d:/altera/13.0/nios2eds/bin/gnu/h-i686-mingw32/bin/../lib/gcc/nios2-elf/4.1.2/../../../../nios2-elf/lib\libc.a(lib_a-stdio.o)
                0x0080d418                __sclose
                0x0080d420                __sseek
                0x0080d488                __swrite
                0x0080d504                __sread
 .text          0x0080d564       0xbc d:/altera/13.0/nios2eds/bin/gnu/h-i686-mingw32/bin/../lib/gcc/nios2-elf/4.1.2/../../../../nios2-elf/lib\libc.a(lib_a-strcmp.o)
                0x0080d564                strcmp
 .text          0x0080d620       0x78 d:/altera/13.0/nios2eds/bin/gnu/h-i686-mingw32/bin/../lib/gcc/nios2-elf/4.1.2/../../../../nios2-elf/lib\libc.a(lib_a-writer.o)
                0x0080d620                _write_r
 .text          0x0080d698       0xb4 d:/altera/13.0/nios2eds/bin/gnu/h-i686-mingw32/bin/../lib/gcc/nios2-elf/4.1.2/../../../../nios2-elf/lib\libc.a(lib_a-callocr.o)
                0x0080d698                _calloc_r
 .text          0x0080d74c       0x70 d:/altera/13.0/nios2eds/bin/gnu/h-i686-mingw32/bin/../lib/gcc/nios2-elf/4.1.2/../../../../nios2-elf/lib\libc.a(lib_a-closer.o)
                0x0080d74c                _close_r
 .text          0x0080d7bc      0x124 d:/altera/13.0/nios2eds/bin/gnu/h-i686-mingw32/bin/../lib/gcc/nios2-elf/4.1.2/../../../../nios2-elf/lib\libc.a(lib_a-fclose.o)
                0x0080d7bc                _fclose_r
                0x0080d8cc                fclose
 .text          0x0080d8e0       0x74 d:/altera/13.0/nios2eds/bin/gnu/h-i686-mingw32/bin/../lib/gcc/nios2-elf/4.1.2/../../../../nios2-elf/lib\libc.a(lib_a-fstatr.o)
                0x0080d8e0                _fstat_r
 .text          0x0080d954        0x0 d:/altera/13.0/nios2eds/bin/gnu/h-i686-mingw32/bin/../lib/gcc/nios2-elf/4.1.2/../../../../nios2-elf/lib\libc.a(lib_a-int_errno.o)
 .text          0x0080d954       0x70 d:/altera/13.0/nios2eds/bin/gnu/h-i686-mingw32/bin/../lib/gcc/nios2-elf/4.1.2/../../../../nios2-elf/lib\libc.a(lib_a-isattyr.o)
                0x0080d954                _isatty_r
 .text          0x0080d9c4       0x78 d:/altera/13.0/nios2eds/bin/gnu/h-i686-mingw32/bin/../lib/gcc/nios2-elf/4.1.2/../../../../nios2-elf/lib\libc.a(lib_a-lseekr.o)
                0x0080d9c4                _lseek_r
 .text          0x0080da3c       0x78 d:/altera/13.0/nios2eds/bin/gnu/h-i686-mingw32/bin/../lib/gcc/nios2-elf/4.1.2/../../../../nios2-elf/lib\libc.a(lib_a-readr.o)
                0x0080da3c                _read_r
 .text          0x0080dab4      0x5dc d:/altera/13.0/nios2eds/bin/gnu/h-i686-mingw32/bin/../lib/gcc/nios2-elf/4.1.2\libgcc.a(_udivdi3.o)
                0x0080dab4                __udivdi3
 .text          0x0080e090      0x5b0 d:/altera/13.0/nios2eds/bin/gnu/h-i686-mingw32/bin/../lib/gcc/nios2-elf/4.1.2\libgcc.a(_umoddi3.o)
                0x0080e090                __umoddi3
 .text          0x0080e640      0x258 d:/altera/13.0/nios2eds/bin/gnu/h-i686-mingw32/bin/../lib/gcc/nios2-elf/4.1.2\libgcc.a(_div_df.o)
                0x0080e640                __divdf3
 .text          0x0080e898       0x88 d:/altera/13.0/nios2eds/bin/gnu/h-i686-mingw32/bin/../lib/gcc/nios2-elf/4.1.2\libgcc.a(_eq_df.o)
                0x0080e898                __eqdf2
 .text          0x0080e920       0x88 d:/altera/13.0/nios2eds/bin/gnu/h-i686-mingw32/bin/../lib/gcc/nios2-elf/4.1.2\libgcc.a(_ne_df.o)
                0x0080e920                __nedf2
 .text          0x0080e9a8       0x88 d:/altera/13.0/nios2eds/bin/gnu/h-i686-mingw32/bin/../lib/gcc/nios2-elf/4.1.2\libgcc.a(_gt_df.o)
                0x0080e9a8                __gtdf2
 .text          0x0080ea30       0x88 d:/altera/13.0/nios2eds/bin/gnu/h-i686-mingw32/bin/../lib/gcc/nios2-elf/4.1.2\libgcc.a(_lt_df.o)
                0x0080ea30                __ltdf2
 .text          0x0080eab8       0xf8 d:/altera/13.0/nios2eds/bin/gnu/h-i686-mingw32/bin/../lib/gcc/nios2-elf/4.1.2\libgcc.a(_si_to_df.o)
                0x0080eab8                __floatsidf
 .text          0x0080ebb0      0x14c d:/altera/13.0/nios2eds/bin/gnu/h-i686-mingw32/bin/../lib/gcc/nios2-elf/4.1.2\libgcc.a(lib2-divmod.o)
                0x0080ec2c                __divsi3
                0x0080ec8c                __modsi3
                0x0080ecec                __udivsi3
                0x0080ecf4                __umodsi3
 .text          0x0080ecfc       0xd0 ../PepinoBoris_bsp/\libucosii_bsp.a(alt_flash_dev.o)
                0x0080ecfc                alt_flash_open_dev
                0x0080ed78                alt_flash_close_dev
 .text          0x0080edcc      0x134 ../PepinoBoris_bsp/\libucosii_bsp.a(alt_fstat.o)
                0x0080edcc                fstat
 .text          0x0080ef00      0x1c0 ../PepinoBoris_bsp/\libucosii_bsp.a(alt_irq_register.o)
                0x0080ef00                alt_irq_register
 .text          0x0080f0c0        0x0 ../PepinoBoris_bsp/\libucosii_bsp.a(alt_irq_vars.o)
 .text          0x0080f0c0      0x120 ../PepinoBoris_bsp/\libucosii_bsp.a(alt_isatty.o)
                0x0080f0c0                isatty
 .text          0x0080f1e0      0x150 ../PepinoBoris_bsp/\libucosii_bsp.a(alt_lseek.o)
                0x0080f1e0                lseek
 .text          0x0080f330       0xc8 ../PepinoBoris_bsp/\libucosii_bsp.a(alt_main.o)
                0x0080f330                alt_main
 .text          0x0080f3f8       0xbc ../PepinoBoris_bsp/\libucosii_bsp.a(alt_sbrk.o)
                0x0080f3f8                sbrk
 .text          0x0080f4b4      0x118 ../PepinoBoris_bsp/\libucosii_bsp.a(alt_usleep.o)
                0x0080f4b4                usleep
 .text          0x0080f5cc      0x108 ../PepinoBoris_bsp/\libucosii_bsp.a(alt_env_lock.o)
                0x0080f5cc                __env_lock
                0x0080f678                __env_unlock
 .text          0x0080f6d4      0x1d8 ../PepinoBoris_bsp/\libucosii_bsp.a(alt_malloc_lock.o)
                0x0080f6d4                __malloc_lock
                0x0080f7dc                __malloc_unlock
 .text          0x0080f8ac     0x2128 ../PepinoBoris_bsp/\libucosii_bsp.a(os_core.o)
                0x0080f8ac                OSEventNameGet
                0x0080f9dc                OSEventNameSet
                0x0080fb20                OSEventPendMulti
                0x008101d4                OSInit
                0x00810228                OSIntEnter
                0x008102a4                OSIntExit
                0x008103a4                OSSchedLock
                0x00810430                OSSchedUnlock
                0x00810514                OSStart
                0x00810584                OSStatInit
                0x00810630                OSTimeTick
                0x00810870                OSVersion
                0x00810890                OS_Dummy
                0x008108ac                OS_EventTaskRdy
                0x00810a40                OS_EventTaskWait
                0x00810b50                OS_EventTaskWaitMulti
                0x00810ca4                OS_EventTaskRemove
                0x00810d5c                OS_EventTaskRemoveMulti
                0x00810e60                OS_EventWaitListInit
                0x0081122c                OS_MemClr
                0x00811280                OS_MemCopy
                0x008112ec                OS_Sched
                0x00811430                OS_StrCopy
                0x008114b0                OS_StrLen
                0x00811508                OS_TaskIdle
                0x00811564                OS_TaskStat
                0x0081162c                OS_TaskStatStkChk
                0x008116f4                OS_TCBInit
 .text          0x008119d4      0x18c ../PepinoBoris_bsp/\libucosii_bsp.a(os_dbg.o)
                0x008119d4                OSDebugInit
 .text          0x00811b60     0x193c ../PepinoBoris_bsp/\libucosii_bsp.a(os_flag.o)
                0x00811b60                OSFlagAccept
                0x00811e94                OSFlagCreate
                0x00811fd0                OSFlagDel
                0x00812278                OSFlagNameGet
                0x008123bc                OSFlagNameSet
                0x00812510                OSFlagPend
                0x00812b54                OSFlagPendGetFlagsRdy
                0x00812bbc                OSFlagPost
                0x00812f64                OSFlagQuery
                0x008131fc                OS_FlagInit
                0x008133f0                OS_FlagUnlink
 .text          0x0081349c      0x808 ../PepinoBoris_bsp/\libucosii_bsp.a(os_mem.o)
                0x0081349c                OSMemCreate
                0x008136b8                OSMemGet
                0x008137bc                OSMemNameGet
                0x008138c8                OSMemNameSet
                0x008139e8                OSMemPut
                0x00813ad8                OSMemQuery
                0x00813bd4                OS_MemInit
 .text          0x00813ca4     0x1334 ../PepinoBoris_bsp/\libucosii_bsp.a(os_q.o)
                0x00813ca4                OSQAccept
                0x00813df8                OSQCreate
                0x0081400c                OSQDel
                0x0081430c                OSQFlush
                0x008143d4                OSQPend
                0x008146f4                OSQPendAbort
                0x00814870                OSQPost
                0x008149f0                OSQPostFront
                0x00814b78                OSQPostOpt
                0x00814dac                OSQQuery
                0x00814f2c                OS_QInit
 .text          0x00814fd8      0xbc8 ../PepinoBoris_bsp/\libucosii_bsp.a(os_sem.o)
                0x00814fd8                OSSemAccept
                0x00815098                OSSemCreate
                0x008151ac                OSSemDel
                0x0081544c                OSSemPend
                0x008156c8                OSSemPendAbort
                0x00815844                OSSemPost
                0x0081596c                OSSemQuery
                0x00815a9c                OSSemSet
 .text          0x00815ba0     0x1a40 ../PepinoBoris_bsp/\libucosii_bsp.a(os_task.o)
                0x00815ba0                OSTaskChangePrio
                0x00816114                OSTaskCreate
                0x008162e8                OSTaskCreateExt
                0x008164e8                OSTaskDel
                0x008168f4                OSTaskDelReq
                0x00816a64                OSTaskNameGet
                0x00816c1c                OSTaskNameSet
                0x00816de0                OSTaskResume
                0x00816ff8                OSTaskStkChk
                0x008171f4                OSTaskSuspend
                0x00817420                OSTaskQuery
                0x00817564                OS_TaskStkClr
 .text          0x008175e0      0x670 ../PepinoBoris_bsp/\libucosii_bsp.a(os_time.o)
                0x008175e0                OSTimeDly
                0x0081772c                OSTimeDlyHMSM
                0x00817978                OSTimeDlyResume
                0x00817b88                OSTimeGet
                0x00817bec                OSTimeSet
 .text          0x00817c50      0x124 ../PepinoBoris_bsp/\libucosii_bsp.a(alt_sys_init.o)
                0x00817c50                alt_irq_init
                0x00817c84                alt_sys_init
 .text          0x00817d74      0x8c8 ../PepinoBoris_bsp/\libucosii_bsp.a(altera_avalon_cfi_flash.o)
                0x00817d74                alt_flash_cfi_init
                0x00817e48                alt_flash_cfi_write
                0x00818108                alt_flash_cfi_get_info
                0x00818198                alt_flash_cfi_read
                0x00818200                alt_write_value_to_flash
                0x00818364                alt_flash_program_block
 .text          0x0081863c     0x14a8 ../PepinoBoris_bsp/\libucosii_bsp.a(altera_avalon_cfi_flash_table.o)
                0x0081863c                alt_read_query_entry_8bit
                0x0081867c                alt_read_query_entry_16bit
                0x008186c0                alt_read_query_entry_32bit
                0x00818708                alt_write_flash_command_8bit_device_8bit_mode
                0x00818744                alt_write_flash_command_16bit_device_8bit_mode
                0x008187c0                alt_write_flash_command_32bit_device_8bit_mode
                0x00818808                alt_write_flash_command_16bit_device_16bit_mode
                0x0081884c                alt_write_flash_command_32bit_device_16bit_mode
                0x00818894                alt_write_flash_command_32bit_device_32bit_mode
                0x008188dc                alt_write_native_8bit
                0x00818910                alt_write_native_16bit
                0x00818944                alt_write_native_32bit
                0x00818974                alt_set_flash_width_func
                0x00818b54                alt_set_flash_algorithm_func
                0x00818c7c                alt_read_cfi_table
                0x0081925c                alt_read_cfi_width
                0x00819a08                alt_check_primary_table
 .text          0x00819ae4      0x9e4 ../PepinoBoris_bsp/\libucosii_bsp.a(altera_avalon_epcs_flash_controller.o)
                0x00819ae4                alt_epcs_flash_init
                0x00819f00                alt_epcs_flash_write
                0x0081a180                alt_epcs_flash_get_info
                0x0081a210                alt_epcs_flash_erase_block
                0x0081a314                alt_epcs_flash_write_block
                0x0081a430                alt_epcs_flash_read
 .text          0x0081a4c8      0x148 ../PepinoBoris_bsp/\libucosii_bsp.a(altera_avalon_jtag_uart_fd.o)
                0x0081a4c8                altera_avalon_jtag_uart_read_fd
                0x0081a520                altera_avalon_jtag_uart_write_fd
                0x0081a578                altera_avalon_jtag_uart_close_fd
                0x0081a5c0                altera_avalon_jtag_uart_ioctl_fd
 .text          0x0081a610      0x584 ../PepinoBoris_bsp/\libucosii_bsp.a(altera_avalon_jtag_uart_init.o)
                0x0081a610                altera_avalon_jtag_uart_init
                0x0081ab20                altera_avalon_jtag_uart_close
 .text          0x0081ab94       0xf4 ../PepinoBoris_bsp/\libucosii_bsp.a(altera_avalon_jtag_uart_ioctl.o)
                0x0081ab94                altera_avalon_jtag_uart_ioctl
 .text          0x0081ac88      0x2c0 ../PepinoBoris_bsp/\libucosii_bsp.a(altera_avalon_jtag_uart_read.o)
                0x0081ac88                altera_avalon_jtag_uart_read
 .text          0x0081af48      0x2dc ../PepinoBoris_bsp/\libucosii_bsp.a(altera_avalon_jtag_uart_write.o)
                0x0081af48                altera_avalon_jtag_uart_write
 .text          0x0081b224      0xf3c ../PepinoBoris_bsp/\libucosii_bsp.a(altera_avalon_lcd_16207.o)
                0x0081b9f8                altera_avalon_lcd_16207_write
                0x0081bffc                altera_avalon_lcd_16207_init
 .text          0x0081c160       0x58 ../PepinoBoris_bsp/\libucosii_bsp.a(altera_avalon_lcd_16207_fd.o)
                0x0081c160                altera_avalon_lcd_16207_write_fd
 .text          0x0081c1b8      0x100 ../PepinoBoris_bsp/\libucosii_bsp.a(altera_avalon_timer_sc.o)
                0x0081c228                alt_avalon_timer_sc_init
 .text          0x0081c2b8       0xf8 ../PepinoBoris_bsp/\libucosii_bsp.a(altera_avalon_uart_fd.o)
                0x0081c2b8                altera_avalon_uart_read_fd
                0x0081c310                altera_avalon_uart_write_fd
                0x0081c368                altera_avalon_uart_close_fd
 .text          0x0081c3b0      0x57c ../PepinoBoris_bsp/\libucosii_bsp.a(altera_avalon_uart_init.o)
                0x0081c3b0                altera_avalon_uart_init
                0x0081c8cc                altera_avalon_uart_close
 .text          0x0081c92c      0x310 ../PepinoBoris_bsp/\libucosii_bsp.a(altera_avalon_uart_read.o)
                0x0081c92c                altera_avalon_uart_read
 .text          0x0081cc3c      0x2a8 ../PepinoBoris_bsp/\libucosii_bsp.a(altera_avalon_uart_write.o)
                0x0081cc3c                altera_avalon_uart_write
 .text          0x0081cee4     0x4200 ../PepinoBoris_bsp/\libucosii_bsp.a(altera_up_sd_card_avalon_interface.o)
                0x0081cee4                Write_Sector_Data
                0x0081cfa0                Save_Modified_Sector
                0x0081cff0                Read_Sector_Data
                0x0081d0e0                get_cluster_flag
                0x0081d190                mark_cluster
                0x0081d274                Check_for_Master_Boot_Record
                0x0081d410                Read_File_Record_At_Offset
                0x0081d650                Write_File_Record_At_Offset
                0x0081d8c0                Check_for_DOS_FAT
                0x0081de54                Look_for_FAT16
                0x0081df4c                filename_to_upper_case
                0x0081e01c                check_file_name_for_FAT16_compliance
                0x0081e2ac                get_dir_divider_location
                0x0081e36c                match_file_record_to_name_ext
                0x0081e658                get_home_directory_cluster_for_file
                0x0081eb6c                find_file_in_directory
                0x0081efd0                find_first_empty_cluster
                0x0081f170                find_first_empty_record_in_a_subdirectory
                0x0081f3b8                find_first_empty_record_in_root_directory
                0x0081f4e0                convert_filename_to_name_extension
                0x0081f698                create_file
                0x0081f96c                copy_file_record_name_to_string
                0x0081fac0                alt_up_sd_card_open_dev
                0x0081fb78                alt_up_sd_card_is_Present
                0x0081fbc8                alt_up_sd_card_is_FAT16
                0x0081fc54                alt_up_sd_card_find_first
                0x0081fd28                alt_up_sd_card_find_next
                0x008200d0                alt_up_sd_card_fopen
                0x00820478                alt_up_sd_card_set_attributes
                0x00820508                alt_up_sd_card_get_attributes
                0x00820594                alt_up_sd_card_read
                0x0082090c                alt_up_sd_card_write
                0x00820f18                alt_up_sd_card_fclose
 .text          0x008210e4      0x6d4 ../PepinoBoris_bsp/\libucosii_bsp.a(epcs_commands.o)
                0x008210e4                epcs_read_status_register
                0x00821144                epcs_sector_erase
                0x008212ac                epcs_read_buffer
                0x008213f8                epcs_write_enable
                0x00821448                epcs_write_status_register
                0x008214ac                epcs_write_buffer
                0x0082161c                epcs_read_electronic_signature
                0x00821688                epcs_read_device_id
                0x00821708                epcs_enter_4_bytes_mode
                0x00821760                epcs_exit_4_bytes_mode
 .text          0x008217b8       0x54 ../PepinoBoris_bsp/\libucosii_bsp.a(alt_iniche_close.o)
                0x008217b8                close
 .text          0x0082180c      0x144 ../PepinoBoris_bsp/\libucosii_bsp.a(alt_iniche_dev.o)
                0x0082180c                iniche_devices_init
 .text          0x00821950       0x78 ../PepinoBoris_bsp/\libucosii_bsp.a(alt_iniche_read.o)
                0x00821950                read
 .text          0x008219c8       0x70 ../PepinoBoris_bsp/\libucosii_bsp.a(alt_iniche_write.o)
                0x008219c8                write
 .text          0x00821a38      0xedc ../PepinoBoris_bsp/\libucosii_bsp.a(ipnet.o)
                0x00821a38                Netinit
                0x00822084                fixup_subnet_mask
                0x008221e4                netclose
                0x008222cc                pktdemux
                0x008226a0                c_older
                0x00822770                ip2mac
 .text          0x00822914      0x4b0 ../PepinoBoris_bsp/\libucosii_bsp.a(ipstart.o)
                0x00822914                ip_startup
                0x00822bf8                exit_hook
                0x00822c64                ip_exit
                0x00822d34                if_netnumber
 .text          0x00822dc4     0x10e8 ../PepinoBoris_bsp/\libucosii_bsp.a(igmp_cmn.o)
                0x00822dc4                igmp_init
                0x00822eb4                igmp_input
                0x00822fac                igmp_fasttimo
                0x008231e0                igmp_send
                0x00823488                igmp_joingroup
                0x008236f4                igmp_leavegroup
                0x00823770                igmp_validate
                0x00823acc                igmp_print_stats
 .text          0x00823eac      0xbc8 ../PepinoBoris_bsp/\libucosii_bsp.a(bsdsock.o)
                0x00823eac                bsd_accept
                0x00823fe4                bsd_getpeername
                0x00824110                bsd_getsockname
                0x0082423c                bsd_i_sockoptlen
                0x008243f4                bsd_getsockopt
                0x00824514                bsd_ioctl
                0x00824618                bsd_inet_ntoa
                0x00824648                bsd_recvfrom
                0x008247a8                bsd_select
                0x00824988                bsd_setsockopt
 .text          0x00824a74      0x118 ../PepinoBoris_bsp/\libucosii_bsp.a(cksum.o)
                0x00824a74                ccksum
                0x00824b24                cksum
 .text          0x00824b8c      0xa9c ../PepinoBoris_bsp/\libucosii_bsp.a(in_utils.o)
                0x00824b8c                do_trap
                0x00824bb8                nextarg
                0x00824c34                hexdump
                0x00824d7c                print_ipad
                0x00824df0                print_uptime
                0x00824f1c                panic
                0x00824f60                print_eth
                0x008250c4                uslash
                0x00825144                ns_printf
                0x008252c8                std_out
                0x0082530c                con_page
                0x008253fc                parse_args
 .text          0x00825628      0x1c8 ../PepinoBoris_bsp/\libucosii_bsp.a(netmain.o)
                0x00825628                netmain
                0x0082571c                tk_netmain
                0x008257a4                tk_nettick
 .text          0x008257f0      0x5e8 ../PepinoBoris_bsp/\libucosii_bsp.a(tk_crnos.o)
                0x008257f0                TK_OSTimeDly
                0x0082581c                TK_OSTaskResume
                0x0082588c                tcp_sleep
                0x00825a2c                tcp_wakeup
                0x00825b30                TK_OSTaskQuery
                0x00825ba4                tk_yield
                0x00825bd0                tk_stats
 .text          0x00825dd8     0x3294 ../PepinoBoris_bsp/\libucosii_bsp.a(dhcpclnt.o)
                0x00825dd8                dhc_get_srv_ipaddr
                0x00825e68                dhc_init
                0x00825f24                dhc_set_callback
                0x00825f68                dhc_upcall
                0x00826798                dhc_buildheader
                0x008269b4                dhc_discover
                0x00826ecc                dhc_rx_offer
                0x00826fd0                dhc_request
                0x00827b0c                dhc_setip
                0x00827d8c                dhc_resetip
                0x00827e70                dhc_decline
                0x00828054                dhc_extract_opts
                0x00828310                dhc_second
                0x00828c00                dhc_halt
                0x00828c88                dhc_reclaim
                0x00828e58                dhc_state_init
                0x00828eb8                dhc_alldone
                0x00828f48                dhc_ifacedone
                0x00828fbc                dhc_set_state
 .text          0x0082906c       0xcc ../PepinoBoris_bsp/\libucosii_bsp.a(dhcputil.o)
                0x0082906c                find_opt
 .text          0x00829138      0x79c ../PepinoBoris_bsp/\libucosii_bsp.a(pktalloc.o)
                0x00829138                pk_init
                0x008293c8                pk_alloc
                0x008294a4                pk_validate
                0x0082975c                pk_free
                0x00829808                pk_get_max_intrsafe_buf_len
                0x00829828                dump_buf_estats
 .text          0x008298d4      0x288 ../PepinoBoris_bsp/\libucosii_bsp.a(q.o)
                0x008298d4                getq
                0x0082999c                putq
                0x00829a4c                qdel
 .text          0x00829b5c      0x31c ../PepinoBoris_bsp/\libucosii_bsp.a(udp_open.o)
                0x00829b5c                udp_open
                0x00829d94                udp_close
 .text          0x00829e78      0x194 ../PepinoBoris_bsp/\libucosii_bsp.a(asm_cksum.o)
                0x00829e78                asm_cksum
 .text          0x0082a00c      0x2e4 ../PepinoBoris_bsp/\libucosii_bsp.a(brdutils.o)
                0x0082a00c                dtrap
                0x0082a03c                kbhit
                0x0082a0e8                getch
                0x0082a148                clock_init
                0x0082a184                clock_c
                0x0082a1a0                cticks_hook
                0x0082a250                irq_Mask
                0x0082a2ac                irq_Unmask
 .text          0x0082a2f0      0x488 ../PepinoBoris_bsp/\libucosii_bsp.a(osportco.o)
                0x0082a2f0                LOCK_NET_RESOURCE
                0x0082a3b0                UNLOCK_NET_RESOURCE
                0x0082a438                TK_NEWTASK
                0x0082a64c                wait_app_sem
                0x0082a700                post_app_sem
 .text          0x0082a778      0x568 ../PepinoBoris_bsp/\libucosii_bsp.a(targnios.o)
                0x0082a778                alt_iniche_init
                0x0082a994                pre_task_setup
                0x0082aa08                post_task_setup
                0x0082aa28                prep_armintcp
                0x0082aa60                calloc2
                0x0082aa94                npalloc
                0x0082ab88                npfree
                0x0082ac40                ncpalloc
                0x0082ac94                ncpfree
 .text          0x0082ace0     0x19b8 ../PepinoBoris_bsp/\libucosii_bsp.a(nptcp.o)
                0x0082ace0                pffindtype
                0x0082ad80                pffindproto
                0x0082ae50                m_getnbuf
                0x0082aff8                m_free
                0x0082b12c                m_freem
                0x0082b170                m_copy
                0x0082b494                m_adj
                0x0082b664                mbuf_len
                0x0082b6bc                dtom
                0x0082b764                remque
                0x0082b7d4                insque
                0x0082b850                nptcp_init
                0x0082b974                tcp_rcv
                0x0082bb60                ip_output
                0x0082c158                in_broadcast
                0x0082c198                np_stripoptions
                0x0082c280                so_icmpdu
                0x0082c5d8                tcp_tick
 .text          0x0082c698      0xa2c ../PepinoBoris_bsp/\libucosii_bsp.a(rawsock.o)
                0x0082c698                rawip_lookup
                0x0082c708                rawip_soinput
                0x0082c8dc                rawip_usrreq
 .text          0x0082d0c4     0x17fc ../PepinoBoris_bsp/\libucosii_bsp.a(sockcall.o)
                0x0082d0c4                DOMAIN_CHECK
                0x0082d110                t_socket
                0x0082d1a0                t_bind
                0x0082d31c                t_listen
                0x0082d400                t_accept
                0x0082d698                t_connect
                0x0082d940                t_getpeername
                0x0082d984                t_getsockname
                0x0082dbc4                t_setsockopt
                0x0082dda0                t_getsockopt
                0x0082df44                t_recv
                0x0082e034                t_recvfrom
                0x0082e184                t_sendto
                0x0082e3b0                t_send
                0x0082e5d8                t_shutdown
                0x0082e6bc                t_socketclose
                0x0082e824                t_errno
 .text          0x0082e8c0     0x23ec ../PepinoBoris_bsp/\libucosii_bsp.a(socket.o)
                0x0082e8c0                socreate
                0x0082ea8c                sobind
                0x0082eae8                solisten
                0x0082ebd8                sofree
                0x0082ed08                soclose
                0x0082f074                soabort
                0x0082f0c4                soaccept
                0x0082f160                soconnect
                0x0082f234                sodisconnect
                0x0082f2d4                sosend
                0x0082f8dc                soreceive
                0x008300c0                soshutdown
                0x00830168                sorflush
                0x00830268                sosetopt
                0x00830728                sogetopt
                0x00830c68                sohasoutofband
 .text          0x00830cac     0x12f8 ../PepinoBoris_bsp/\libucosii_bsp.a(socket2.o)
                0x00830cac                soisconnecting
                0x00830d18                soisconnected
                0x00830e14                soisdisconnecting
                0x00830ea0                soisdisconnected
                0x00830f5c                sonewconn
                0x00831178                soqinsque
                0x00831224                soqremque
                0x00831344                socantsendmore
                0x00831394                socantrcvmore
                0x008313e4                sbselqueue
                0x0083141c                sbwait
                0x00831484                sbwakeup
                0x00831520                soreserve
                0x008315a0                sbreserve
                0x00831600                sbrelease
                0x00831648                sbappend
                0x008316f0                sbappendrecord
                0x008317d0                sbappendaddr
                0x008319b8                sbcompress
                0x00831ba0                sbflush
                0x00831c30                sbdrop
                0x00831e00                sbdropend
                0x00831f10                sbdroprecord
 .text          0x00831fa4      0x914 ../PepinoBoris_bsp/\libucosii_bsp.a(soselect.o)
                0x00831fa4                t_select
                0x008321c4                sock_selscan
                0x0083231c                sock_select
                0x00832530                in_pcbnotify
                0x008325fc                tcp_notify
                0x00832664                ifd_clr
                0x00832754                ifd_set
                0x008327c8                ifd_isset
                0x00832848                ifd_get
 .text          0x008328b8     0x3020 ../PepinoBoris_bsp/\libucosii_bsp.a(tcp_in.o)
                0x008328b8                tcp_reass
                0x00832cc0                tcp_input
                0x00835214                tcp_dooptions
                0x008353a4                tcp_pulloutofband
                0x008354d0                tcp_xmit_timer
                0x00835774                ip4_tcpmss
                0x008357bc                tcp_mss
 .text          0x008358d8     0x1360 ../PepinoBoris_bsp/\libucosii_bsp.a(tcp_out.o)
                0x008358d8                tcp_output
                0x00836a54                tcp_setpersist
 .text          0x00836c38      0x9e8 ../PepinoBoris_bsp/\libucosii_bsp.a(tcp_subr.o)
                0x00836c38                tcp_init
                0x00836c90                tcp_template
                0x00836da8                tcp_respond
                0x00837230                tcp_newtcpcb
                0x00837348                tcp_drop
                0x008373f4                tcp_close
                0x008374dc                tcp_quench
                0x00837528                tcp_putseq
                0x008375a8                tcp_getseq
 .text          0x00837620      0x798 ../PepinoBoris_bsp/\libucosii_bsp.a(tcp_timr.o)
                0x00837620                tcp_slowtimo
                0x008378c0                tcp_canceltimers
                0x0083791c                tcp_timers
 .text          0x00837db8      0x9ec ../PepinoBoris_bsp/\libucosii_bsp.a(tcp_usr.o)
                0x00837db8                tcp_usrreq
                0x008384bc                tcp_attach
                0x008385f0                tcp_disconnect
                0x008386c4                tcp_usrclosed
 .text          0x008387a4       0x4c ../PepinoBoris_bsp/\libucosii_bsp.a(tcpport.o)
                0x008387a4                tcpinit
 .text          0x008387f0      0xd20 ../PepinoBoris_bsp/\libucosii_bsp.a(udpsock.o)
                0x008387f0                udp_lookup
                0x00838860                udp_soinput
                0x00838a18                udp_usrreq
                0x00838c9c                udp4_sockbind
                0x00838fd8                udp4_socksend
                0x008393b4                udp4_sockaddr
 .text          0x00839510      0x154 ../PepinoBoris_bsp/\libucosii_bsp.a(alt_alarm_start.o)
                0x00839510                alt_alarm_start
 .text          0x00839664      0x14c ../PepinoBoris_bsp/\libucosii_bsp.a(alt_busy_sleep.o)
                0x00839664                alt_busy_sleep
 .text          0x008397b0      0x15c ../PepinoBoris_bsp/\libucosii_bsp.a(alt_close.o)
                0x008397b0                alt_close
 .text          0x0083990c       0x78 ../PepinoBoris_bsp/\libucosii_bsp.a(alt_dcache_flush.o)
                0x0083990c                alt_dcache_flush
 .text          0x00839984       0x2c ../PepinoBoris_bsp/\libucosii_bsp.a(alt_dev.o)
 .text          0x008399b0      0x114 ../PepinoBoris_bsp/\libucosii_bsp.a(alt_dev_llist_insert.o)
                0x008399b0                alt_dev_llist_insert
 .text          0x00839ac4       0x64 ../PepinoBoris_bsp/\libucosii_bsp.a(alt_do_ctors.o)
                0x00839ac4                _do_ctors
 .text          0x00839b28       0x64 ../PepinoBoris_bsp/\libucosii_bsp.a(alt_do_dtors.o)
                0x00839b28                _do_dtors
 .text          0x00839b8c        0x0 ../PepinoBoris_bsp/\libucosii_bsp.a(alt_errno.o)
 .text          0x00839b8c       0x94 ../PepinoBoris_bsp/\libucosii_bsp.a(alt_find_dev.o)
                0x00839b8c                alt_find_dev
 .text          0x00839c20      0x1d4 ../PepinoBoris_bsp/\libucosii_bsp.a(alt_iic.o)
                0x00839c20                alt_ic_isr_register
                0x00839c70                alt_ic_irq_enable
                0x00839d0c                alt_ic_irq_disable
                0x00839dac                alt_ic_irq_enabled
 .text          0x00839df4       0xf8 ../PepinoBoris_bsp/\libucosii_bsp.a(alt_iic_isr_register.o)
                0x00839df4                alt_iic_isr_register
 .text          0x00839eec      0x13c ../PepinoBoris_bsp/\libucosii_bsp.a(alt_io_redirect.o)
                0x00839fb0                alt_io_redirect
 .text          0x0083a028        0x0 ../PepinoBoris_bsp/\libucosii_bsp.a(alt_irq_entry.o)
 .text          0x0083a028        0x0 ../PepinoBoris_bsp/\libucosii_bsp.a(alt_irq_handler.o)
 .text          0x0083a028      0x2c4 ../PepinoBoris_bsp/\libucosii_bsp.a(alt_open.o)
                0x0083a104                open
 .text          0x0083a2ec      0x180 ../PepinoBoris_bsp/\libucosii_bsp.a(alt_read.o)
                0x0083a2ec                alt_read
 .text          0x0083a46c       0x60 ../PepinoBoris_bsp/\libucosii_bsp.a(alt_release_fd.o)
                0x0083a46c                alt_release_fd
 .text          0x0083a4cc       0x38 ../PepinoBoris_bsp/\libucosii_bsp.a(alt_remap_cached.o)
                0x0083a4cc                alt_remap_cached
 .text          0x0083a504       0x40 ../PepinoBoris_bsp/\libucosii_bsp.a(alt_remap_uncached.o)
                0x0083a504                alt_remap_uncached
 .text          0x0083a544      0x1a8 ../PepinoBoris_bsp/\libucosii_bsp.a(alt_tick.o)
                0x0083a544                alt_alarm_stop
                0x0083a5dc                alt_tick
 .text          0x0083a6ec      0x180 ../PepinoBoris_bsp/\libucosii_bsp.a(alt_write.o)
                0x0083a6ec                alt_write
 .text          0x0083a86c       0x20 ../PepinoBoris_bsp/\libucosii_bsp.a(altera_nios2_qsys_irq.o)
                0x0083a86c                altera_nios2_qsys_irq_init
 .text          0x0083a88c       0xd0 ../PepinoBoris_bsp/\libucosii_bsp.a(os_cpu_a.o)
                0x0083a88c                OSCtxSw
                0x0083a88c                OSIntCtxSw
                0x0083a918                OSStartHighRdy
                0x0083a938                OSStartTsk
 .text          0x0083a95c      0x424 ../PepinoBoris_bsp/\libucosii_bsp.a(os_cpu_c.o)
                0x0083a95c                OSTaskStkInit
                0x0083ac6c                OSTaskCreateHook
                0x0083ac8c                OSTaskDelHook
                0x0083acac                OSTaskSwHook
                0x0083acc8                OSTaskStatHook
                0x0083ace4                OSTimeTickHook
                0x0083ad0c                OSInitHookBegin
                0x0083ad28                OSInitHookEnd
                0x0083ad44                OSTaskIdleHook
                0x0083ad60                OSTCBInitHook
 .text          0x0083ad80      0x460 ../PepinoBoris_bsp/\libucosii_bsp.a(altera_avalon_cfi_flash_amd.o)
                0x0083ad80                alt_program_amd
                0x0083ade8                alt_erase_block_amd
 .text          0x0083b1e0      0x460 ../PepinoBoris_bsp/\libucosii_bsp.a(altera_avalon_cfi_flash_intel.o)
                0x0083b1e0                alt_program_intel
                0x0083b264                alt_erase_block_intel
 .text          0x0083b640      0x238 ../PepinoBoris_bsp/\libucosii_bsp.a(altera_avalon_spi.o)
                0x0083b640                alt_avalon_spi_command
 .text          0x0083b878      0x444 ../PepinoBoris_bsp/\libucosii_bsp.a(allports.o)
                0x0083b878                netmain_init
                0x0083b974                icmp_port_du
                0x0083b9fc                station_state
                0x0083bb60                sysuptime
                0x0083bbf4                packet_check
                0x0083bc40                mcastlist
                0x0083bc64                prep_modules
 .text          0x0083bcbc      0x580 ../PepinoBoris_bsp/\libucosii_bsp.a(timeouts.o)
                0x0083bcbc                inet_timer
                0x0083bfbc                in_timerset
                0x0083c194                in_timerkill
 .text          0x0083c23c       0xa4 ../PepinoBoris_bsp/\libucosii_bsp.a(tk_misc.o)
                0x0083c23c                create_apptasks
                0x0083c260                task_stats
 .text          0x0083c2e0       0xb0 ../PepinoBoris_bsp/\libucosii_bsp.a(alt_iniche_fcntl.o)
                0x0083c2e0                fcntl
 .text          0x0083c390     0x15b0 ../PepinoBoris_bsp/\libucosii_bsp.a(et_arp.o)
                0x0083c390                etainit
                0x0083c3e4                et_send
                0x0083c560                arp_free_pending
                0x0083c5e8                arp_send_pending
                0x0083c65c                send_arp
                0x0083caf4                find_oldest_arp
                0x0083ccf0                make_arp_entry
                0x0083ce04                arpReply
                0x0083d098                arprcv
                0x0083d2f8                send_via_arp
                0x0083d4c8                cb_arpent_tmo
                0x0083d674                grat_arp
 .text          0x0083d940      0x298 ../PepinoBoris_bsp/\libucosii_bsp.a(iface.o)
                0x0083d940                if_getbynum
                0x0083d9c4                isbcast
                0x0083daa4                reg_type
                0x0083db40                if_killsocks
 .text          0x0083dbd8     0x22a4 ../PepinoBoris_bsp/\libucosii_bsp.a(ip.o)
                0x0083dbd8                ip_init
                0x0083dcd4                ip_bldhead
                0x0083de78                ip_write_internal
                0x0083e5f8                ip_write
                0x0083e840                ip_write2
                0x0083ebf0                ip_raw_write
                0x0083ecc8                ip_fragment_lc
                0x0083f150                ip_fragment
                0x0083f774                ip_mymach
                0x0083f820                ip_dump
                0x0083fad8                iproute
                0x0083fd44                ip_copypkt
 .text          0x0083fe7c     0x1e08 ../PepinoBoris_bsp/\libucosii_bsp.a(ip_reasm.o)
                0x0083fe7c                ip_reasm_match_frag_with_ire
                0x0083ff4c                ip_reasm_determine_type_of_frag
                0x00840038                ip_reasm_check_mem_useage
                0x008400d0                ip_reasm_incr_mem_useage
                0x00840178                ip_reasm_decr_mem_useage
                0x00840218                ip_reasm_process_first_fragment
                0x008404f8                ip_reassm
                0x00840598                ip_reasm_compute_overlap
                0x00840b28                ip_reasm_process_subsequent_fragments
                0x008410bc                ip_reasm_find_ire
                0x00841120                ip_reasm_copy_queued_fragments_into_reassy_buffer
                0x0084147c                ip_reasm_process_timer_tick
                0x0084159c                ip_reasm_delete_ire
                0x00841764                ip_reasm_mark_compact_rfq
                0x008418ac                ipr_stats
                0x00841c30                ip_reasm_send_icmp_timex
 .text          0x00841c84      0xe3c ../PepinoBoris_bsp/\libucosii_bsp.a(ipdemux.o)
                0x00841c84                ip_rcv
                0x00842084                ip_rcv_phase2
                0x00842690                ip_demux
 .text          0x00842ac0      0x2f0 ../PepinoBoris_bsp/\libucosii_bsp.a(ipmc.o)
                0x00842ac0                in_addmulti
                0x00842c28                in_delmulti
                0x00842d40                lookup_mcast
 .text          0x00842db0       0xe4 ../PepinoBoris_bsp/\libucosii_bsp.a(ipport.o)
                0x00842db0                prep_ifaces
                0x00842e44                netexit
                0x00842e6c                evtmap_setup
 .text          0x00842e94      0x550 ../PepinoBoris_bsp/\libucosii_bsp.a(ipraw.o)
                0x00842e94                ip_raw_open
                0x00842f84                ip_raw_close
                0x00843044                ip_raw_input
                0x0084327c                ip_raw_alloc
                0x00843348                ip_raw_free
                0x00843388                ip_raw_maxalloc
 .text          0x008433e4      0x6f0 ../PepinoBoris_bsp/\libucosii_bsp.a(iproute.o)
                0x008433e4                rt_lookup
                0x00843568                add_route
                0x00843990                del_route
 .text          0x00843ad4      0xe3c ../PepinoBoris_bsp/\libucosii_bsp.a(udp.o)
                0x00843ad4                udpdemux
                0x0084432c                udp_send
                0x008445e4                udpswap
                0x00844714                udp_socket
                0x008447e4                udp_alloc
                0x008448a4                udp_maxalloc
                0x008448d0                udp_free
 .text          0x00844910      0x2e8 ../PepinoBoris_bsp/\libucosii_bsp.a(igmp.o)
                0x00844910                igmpv1_input
 .text          0x00844bf8      0x7c0 ../PepinoBoris_bsp/\libucosii_bsp.a(igmp2.o)
                0x00844bf8                igmpv2_input
                0x00844d58                igmpv2_process_report
                0x00844ea4                igmpv2_process_query
                0x008450f0                igmpv2_chk_set_timer
                0x00845248                igmpv2_chk4_rtr_alert_opt
 .text          0x008453b8      0x8fc ../PepinoBoris_bsp/\libucosii_bsp.a(ipopt.o)
                0x008453b8                IPADDR_TO_NETP
                0x00845500                ip_setmoptions
                0x00845af0                ip_getmoptions
                0x00845c30                ip_freemoptions
 .text          0x00845cb4      0x6e8 ../PepinoBoris_bsp/\libucosii_bsp.a(u_mctest.o)
                0x00845cb4                u_mctest_init
                0x00845ce4                u_mctest_run
 .text          0x0084639c      0x3d0 ../PepinoBoris_bsp/\libucosii_bsp.a(dhcsetup.o)
                0x0084639c                dhc_setup
                0x00846668                dhc_main_ipset
 .text          0x0084676c      0x40c ../PepinoBoris_bsp/\libucosii_bsp.a(memdev.o)
                0x0084676c                init_memdev
                0x008467e4                md_fopen
                0x0084680c                md_fclose
                0x0084682c                md_fread
                0x008469ac                md_fwrite
                0x00846a2c                md_fseek
                0x00846a58                md_ftell
                0x00846a7c                md_fgetc
                0x00846b54                md_unlink
 .text          0x00846b78      0x810 ../PepinoBoris_bsp/\libucosii_bsp.a(parseip.o)
                0x00846b78                parse_ipad
                0x00846e94                inet_addr
                0x00846efc                hextoa
                0x00846f6c                inet_pton
                0x00847018                inet_ntop
                0x008470a4                print46_addr
                0x00847104                inet46_addr
                0x008471c8                inet_setport
                0x0084723c                convert_ip
 .text          0x00847388      0x1cc ../PepinoBoris_bsp/\libucosii_bsp.a(tcpcksum.o)
                0x00847388                tcp_cksum
 .text          0x00847554      0x900 ../PepinoBoris_bsp/\libucosii_bsp.a(in_pcb.o)
                0x00847554                in_pcballoc
                0x008475e8                in_pcbdetach
                0x0084763c                in_pcbbind
                0x00847890                in_pcbconnect
                0x00847aa0                in_pcbdisconnect
                0x00847b00                in_setsockaddr
                0x00847b7c                in_setpeeraddr
                0x00847bf8                in_pcblookup
 .text          0x00847e54     0x1a74 ../PepinoBoris_bsp/\libucosii_bsp.a(vfsfiles.o)
                0x00847e54                set_vfopen_error
                0x00847e7c                get_vfopen_error
                0x00847e9c                vf_alloc_and_link_vop
                0x00847f18                vf_alloc_buffer
                0x00847ff0                vf_free_buffer
                0x00848040                vfopen_locked
                0x008483a8                vfopen
                0x008483f8                vfclose_locked
                0x008485a0                vfclose
                0x008485e0                vfflush
                0x00848628                vfgets
                0x0084870c                vfeof
                0x00848764                vunlink_flag_open_files
                0x008487c0                vunlink
                0x008489e0                vfread
                0x00848b8c                vfwrite_locked
                0x00848f74                vfwrite
                0x00848fd4                vfseek
                0x00849150                vftell
                0x00849284                vgetc_locked
                0x008493a4                vgetc
                0x008493ec                vfslookup_locked
                0x00849524                vfslookup
                0x0084956c                strippath
                0x00849754                isvfile_locked
                0x008497b8                isvfile
                0x00849800                vferror
                0x0084986c                vclearerr
 .text          0x008498c8       0x24 ../PepinoBoris_bsp/\libucosii_bsp.a(vfsport.o)
                0x008498c8                prep_vfs
 .text          0x008498ec        0x0 ../PepinoBoris_bsp/\libucosii_bsp.a(alt_exception_entry.o)
 .text          0x008498ec      0x1b4 ../PepinoBoris_bsp/\libucosii_bsp.a(alt_fcntl.o)
                0x008498ec                alt_fcntl
 .text          0x00849aa0      0x120 ../PepinoBoris_bsp/\libucosii_bsp.a(alt_find_file.o)
                0x00849aa0                alt_find_file
 .text          0x00849bc0       0xf4 ../PepinoBoris_bsp/\libucosii_bsp.a(alt_get_fd.o)
                0x00849bc0                alt_get_fd
 .text          0x00849cb4     0x130c ../PepinoBoris_bsp/\libucosii_bsp.a(icmp.o)
                0x00849cb4                icmprcv
                0x0084a8e8                icmp_destun
                0x0084ac38                icmp_timex
                0x0084af6c                icmp_du
 .text          0x0084afc0       0x14 d:/altera/13.0/nios2eds/bin/gnu/h-i686-mingw32/bin/../lib/gcc/nios2-elf/4.1.2/../../../../nios2-elf/lib\libc.a(lib_a-atexit.o)
                0x0084afc0                atexit
 .text          0x0084afd4       0x18 d:/altera/13.0/nios2eds/bin/gnu/h-i686-mingw32/bin/../lib/gcc/nios2-elf/4.1.2/../../../../nios2-elf/lib\libc.a(lib_a-atoi.o)
                0x0084afd4                _atoi_r
                0x0084afe0                atoi
 .text          0x0084afec       0x1c d:/altera/13.0/nios2eds/bin/gnu/h-i686-mingw32/bin/../lib/gcc/nios2-elf/4.1.2/../../../../nios2-elf/lib\libc.a(lib_a-calloc.o)
                0x0084afec                calloc
 .text          0x0084b008       0x38 d:/altera/13.0/nios2eds/bin/gnu/h-i686-mingw32/bin/../lib/gcc/nios2-elf/4.1.2/../../../../nios2-elf/lib\libc.a(lib_a-exit.o)
                0x0084b008                exit
 .text          0x0084b040       0x28 d:/altera/13.0/nios2eds/bin/gnu/h-i686-mingw32/bin/../lib/gcc/nios2-elf/4.1.2/../../../../nios2-elf/lib\libc.a(lib_a-malloc.o)
                0x0084b040                free
                0x0084b054                malloc
 .text          0x0084b068       0x74 d:/altera/13.0/nios2eds/bin/gnu/h-i686-mingw32/bin/../lib/gcc/nios2-elf/4.1.2/../../../../nios2-elf/lib\libc.a(lib_a-memcmp.o)
                0x0084b068                memcmp
 .text          0x0084b0dc       0xd4 d:/altera/13.0/nios2eds/bin/gnu/h-i686-mingw32/bin/../lib/gcc/nios2-elf/4.1.2/../../../../nios2-elf/lib\libc.a(lib_a-sprintf.o)
                0x0084b0dc                sprintf
                0x0084b150                _sprintf_r
 .text          0x0084b1b0       0xe0 d:/altera/13.0/nios2eds/bin/gnu/h-i686-mingw32/bin/../lib/gcc/nios2-elf/4.1.2/../../../../nios2-elf/lib\libc.a(lib_a-strchr.o)
                0x0084b1b0                strchr
 .text          0x0084b290       0x8c d:/altera/13.0/nios2eds/bin/gnu/h-i686-mingw32/bin/../lib/gcc/nios2-elf/4.1.2/../../../../nios2-elf/lib\libc.a(lib_a-strcpy.o)
                0x0084b290                strcpy
 .text          0x0084b31c       0xf0 d:/altera/13.0/nios2eds/bin/gnu/h-i686-mingw32/bin/../lib/gcc/nios2-elf/4.1.2/../../../../nios2-elf/lib\libc.a(lib_a-strncmp.o)
                0x0084b31c                strncmp
 .text          0x0084b40c       0xbc d:/altera/13.0/nios2eds/bin/gnu/h-i686-mingw32/bin/../lib/gcc/nios2-elf/4.1.2/../../../../nios2-elf/lib\libc.a(lib_a-strncpy.o)
                0x0084b40c                strncpy
 .text          0x0084b4c8      0x268 d:/altera/13.0/nios2eds/bin/gnu/h-i686-mingw32/bin/../lib/gcc/nios2-elf/4.1.2/../../../../nios2-elf/lib\libc.a(lib_a-strtol.o)
                0x0084b4c8                _strtol_r
                0x0084b70c                strtol
 .text          0x0084b730       0x34 d:/altera/13.0/nios2eds/bin/gnu/h-i686-mingw32/bin/../lib/gcc/nios2-elf/4.1.2/../../../../nios2-elf/lib\libc.a(lib_a-vprintf.o)
                0x0084b730                _vprintf_r
                0x0084b744                vprintf
 .text          0x0084b764       0x74 d:/altera/13.0/nios2eds/bin/gnu/h-i686-mingw32/bin/../lib/gcc/nios2-elf/4.1.2/../../../../nios2-elf/lib\libc.a(lib_a-vsprintf.o)
                0x0084b764                _vsprintf_r
                0x0084b7b4                vsprintf
 .text          0x0084b7d8      0x134 d:/altera/13.0/nios2eds/bin/gnu/h-i686-mingw32/bin/../lib/gcc/nios2-elf/4.1.2/../../../../nios2-elf/lib\libc.a(lib_a-__atexit.o)
                0x0084b7d8                __register_exitproc
 .text          0x0084b90c      0x1b4 d:/altera/13.0/nios2eds/bin/gnu/h-i686-mingw32/bin/../lib/gcc/nios2-elf/4.1.2/../../../../nios2-elf/lib\libc.a(lib_a-__call_atexit.o)
                0x0084b910                __call_exitprocs
 .text          0x0084bac0       0x6c ../PepinoBoris_bsp/\libucosii_bsp.a(alt_exit.o)
                0x0084bb00                _exit
 *(.gnu.warning.*)
 *(.fini)
                0x0084bb2c                PROVIDE (__etext, ABSOLUTE (.))
                0x0084bb2c                PROVIDE (_etext, ABSOLUTE (.))
                0x0084bb2c                PROVIDE (etext, ABSOLUTE (.))
 *(.eh_frame_hdr)
                0x0084bb2c                . = ALIGN (0x4)
                0x0084bb2c                PROVIDE (__preinit_array_start, ABSOLUTE (.))
 *(.preinit_array)
                0x0084bb2c                PROVIDE (__preinit_array_end, ABSOLUTE (.))
                0x0084bb2c                PROVIDE (__init_array_start, ABSOLUTE (.))
 *(.init_array)
                0x0084bb2c                PROVIDE (__init_array_end, ABSOLUTE (.))
                0x0084bb2c                PROVIDE (__fini_array_start, ABSOLUTE (.))
 *(.fini_array)
                0x0084bb2c                PROVIDE (__fini_array_end, ABSOLUTE (.))
 *(.eh_frame)
 *(.gcc_except_table)
 *(.dynamic)
                0x0084bb2c                PROVIDE (__CTOR_LIST__, ABSOLUTE (.))
 *(.ctors)
 *(SORT(.ctors.*))
 .ctors.65535   0x0084bb2c        0x4 d:/altera/13.0/nios2eds/bin/gnu/h-i686-mingw32/bin/../lib/gcc/nios2-elf/4.1.2/../../../../nios2-elf/lib\libc.a(lib_a-__call_atexit.o)
                0x0084bb30                PROVIDE (__CTOR_END__, ABSOLUTE (.))
                0x0084bb30                PROVIDE (__DTOR_LIST__, ABSOLUTE (.))
 *(.dtors)
 *(SORT(.dtors.*))
                0x0084bb30                PROVIDE (__DTOR_END__, ABSOLUTE (.))
 *(.jcr)
                0x0084bb30                . = ALIGN (0x4)

.rodata         0x0084bb30     0x3ff8
                0x0084bb30                PROVIDE (__ram_rodata_start, ABSOLUTE (.))
                0x0084bb30                . = ALIGN (0x4)
 *(.rodata .rodata.* .gnu.linkonce.r.*)
 .rodata        0x0084bb30      0xba4 obj/default/alt_error_handler.o
 .rodata        0x0084c6d4       0x64 obj/default/dm9000a.o
 .rodata        0x0084c738       0x9c obj/default/iniche_init.o
 .rodata        0x0084c7d4      0x234 obj/default/network_utilities.o
 .rodata        0x0084ca08       0x10 obj/default/sdcard/my_sdcard.o
 .rodata        0x0084ca18      0x1dc obj/default/simple_socket_server.o
 .rodata        0x0084cbf4       0x10 d:/altera/13.0/nios2eds/bin/gnu/h-i686-mingw32/bin/../lib/gcc/nios2-elf/4.1.2\libgcc.a(_thenan_sf.o)
                0x0084cbf4                __thenan_sf
 .rodata        0x0084cc04       0x14 d:/altera/13.0/nios2eds/bin/gnu/h-i686-mingw32/bin/../lib/gcc/nios2-elf/4.1.2\libgcc.a(_thenan_df.o)
                0x0084cc04                __thenan_df
 .rodata        0x0084cc18      0x100 d:/altera/13.0/nios2eds/bin/gnu/h-i686-mingw32/bin/../lib/gcc/nios2-elf/4.1.2\libgcc.a(_clz.o)
                0x0084cc18                __clz_tab
 .rodata        0x0084cd18      0x284 d:/altera/13.0/nios2eds/bin/gnu/h-i686-mingw32/bin/../lib/gcc/nios2-elf/4.1.2/../../../../nios2-elf/lib\libc.a(lib_a-ctype_.o)
                0x0084cd18                _ctype_
 .rodata.str1.4
                0x0084cf9c        0x2 d:/altera/13.0/nios2eds/bin/gnu/h-i686-mingw32/bin/../lib/gcc/nios2-elf/4.1.2/../../../../nios2-elf/lib\libc.a(lib_a-impure.o)
                                  0x4 (size before relaxing)
 *fill*         0x0084cf9e        0x2 00
 .rodata.str1.4
                0x0084cfa0        0x3 d:/altera/13.0/nios2eds/bin/gnu/h-i686-mingw32/bin/../lib/gcc/nios2-elf/4.1.2/../../../../nios2-elf/lib\libc.a(lib_a-perror.o)
                                  0x4 (size before relaxing)
 *fill*         0x0084cfa3        0x1 00
 .rodata.str1.4
                0x0084cfa4        0x2 d:/altera/13.0/nios2eds/bin/gnu/h-i686-mingw32/bin/../lib/gcc/nios2-elf/4.1.2/../../../../nios2-elf/lib\libc.a(lib_a-puts.o)
                                  0x4 (size before relaxing)
 *fill*         0x0084cfa6        0x2 00
 .rodata.str1.4
                0x0084cfa8      0x7a2 d:/altera/13.0/nios2eds/bin/gnu/h-i686-mingw32/bin/../lib/gcc/nios2-elf/4.1.2/../../../../nios2-elf/lib\libc.a(lib_a-strerror.o)
                                0x7a8 (size before relaxing)
 *fill*         0x0084d74a        0x2 00
 .rodata.str1.4
                0x0084d74c       0x5e d:/altera/13.0/nios2eds/bin/gnu/h-i686-mingw32/bin/../lib/gcc/nios2-elf/4.1.2/../../../../nios2-elf/lib\libc.a(lib_a-vfprintf.o)
                                 0x60 (size before relaxing)
 *fill*         0x0084d7aa        0x2 00
 .rodata        0x0084d7ac       0x20 d:/altera/13.0/nios2eds/bin/gnu/h-i686-mingw32/bin/../lib/gcc/nios2-elf/4.1.2/../../../../nios2-elf/lib\libc.a(lib_a-vfprintf.o)
 .rodata.str1.4
                0x0084d7cc       0x10 d:/altera/13.0/nios2eds/bin/gnu/h-i686-mingw32/bin/../lib/gcc/nios2-elf/4.1.2/../../../../nios2-elf/lib\libc.a(lib_a-dtoa.o)
                                 0x14 (size before relaxing)
 .rodata.str1.4
                0x0084d7dc       0x10 d:/altera/13.0/nios2eds/bin/gnu/h-i686-mingw32/bin/../lib/gcc/nios2-elf/4.1.2/../../../../nios2-elf/lib\libc.a(lib_a-locale.o)
                                 0x18 (size before relaxing)
 .rodata        0x0084d7ec       0x30 d:/altera/13.0/nios2eds/bin/gnu/h-i686-mingw32/bin/../lib/gcc/nios2-elf/4.1.2/../../../../nios2-elf/lib\libc.a(lib_a-locale.o)
 .rodata        0x0084d81c      0x124 d:/altera/13.0/nios2eds/bin/gnu/h-i686-mingw32/bin/../lib/gcc/nios2-elf/4.1.2/../../../../nios2-elf/lib\libc.a(lib_a-mprec.o)
                0x0084d81c                __mprec_tens
                0x0084d8e4                __mprec_bigtens
                0x0084d90c                __mprec_tinytens
 .rodata        0x0084d940       0x14 ../PepinoBoris_bsp/\libucosii_bsp.a(alt_main.o)
 .rodata        0x0084d954      0x120 ../PepinoBoris_bsp/\libucosii_bsp.a(os_core.o)
                0x0084d954                OSUnMapTbl
 .rodata        0x0084da74       0x8c ../PepinoBoris_bsp/\libucosii_bsp.a(alt_sys_init.o)
 .rodata        0x0084db00       0xd8 ../PepinoBoris_bsp/\libucosii_bsp.a(ipnet.o)
 .rodata        0x0084dbd8       0xec ../PepinoBoris_bsp/\libucosii_bsp.a(ipstart.o)
 .rodata        0x0084dcc4      0x54c ../PepinoBoris_bsp/\libucosii_bsp.a(igmp_cmn.o)
 .rodata        0x0084e210       0xb8 ../PepinoBoris_bsp/\libucosii_bsp.a(in_utils.o)
 .rodata        0x0084e2c8       0x34 ../PepinoBoris_bsp/\libucosii_bsp.a(netmain.o)
 .rodata        0x0084e2fc      0x1a8 ../PepinoBoris_bsp/\libucosii_bsp.a(tk_crnos.o)
 .rodata        0x0084e4a4        0x8 ../PepinoBoris_bsp/\libucosii_bsp.a(dhcpclnt.o)
 .rodata        0x0084e4ac      0x118 ../PepinoBoris_bsp/\libucosii_bsp.a(pktalloc.o)
 .rodata        0x0084e5c4       0x84 ../PepinoBoris_bsp/\libucosii_bsp.a(udp_open.o)
 .rodata        0x0084e648       0x2c ../PepinoBoris_bsp/\libucosii_bsp.a(brdutils.o)
 .rodata        0x0084e674      0x26c ../PepinoBoris_bsp/\libucosii_bsp.a(osportco.o)
 .rodata        0x0084e8e0       0xa0 ../PepinoBoris_bsp/\libucosii_bsp.a(targnios.o)
 .rodata        0x0084e980       0x90 ../PepinoBoris_bsp/\libucosii_bsp.a(nptcp.o)
 .rodata        0x0084ea10        0x8 ../PepinoBoris_bsp/\libucosii_bsp.a(sockcall.o)
 .rodata        0x0084ea18       0x50 ../PepinoBoris_bsp/\libucosii_bsp.a(socket.o)
 .rodata        0x0084ea68       0x40 ../PepinoBoris_bsp/\libucosii_bsp.a(socket2.o)
 .rodata        0x0084eaa8       0x20 ../PepinoBoris_bsp/\libucosii_bsp.a(tcp_in.o)
 .rodata        0x0084eac8       0x40 ../PepinoBoris_bsp/\libucosii_bsp.a(tcp_out.o)
 .rodata        0x0084eb08       0x24 ../PepinoBoris_bsp/\libucosii_bsp.a(tcp_subr.o)
 .rodata        0x0084eb2c       0x2c ../PepinoBoris_bsp/\libucosii_bsp.a(tcp_usr.o)
 .rodata        0x0084eb58        0xc ../PepinoBoris_bsp/\libucosii_bsp.a(alt_dev.o)
 .rodata        0x0084eb64        0x4 ../PepinoBoris_bsp/\libucosii_bsp.a(os_cpu_c.o)
 .rodata        0x0084eb68      0x1d4 ../PepinoBoris_bsp/\libucosii_bsp.a(allports.o)
 .rodata        0x0084ed3c       0x34 ../PepinoBoris_bsp/\libucosii_bsp.a(tk_misc.o)
 .rodata        0x0084ed70       0x44 ../PepinoBoris_bsp/\libucosii_bsp.a(et_arp.o)
 .rodata        0x0084edb4      0x1dc ../PepinoBoris_bsp/\libucosii_bsp.a(ip.o)
 .rodata        0x0084ef90      0x158 ../PepinoBoris_bsp/\libucosii_bsp.a(ip_reasm.o)
 .rodata        0x0084f0e8      0x120 ../PepinoBoris_bsp/\libucosii_bsp.a(ipdemux.o)
 .rodata        0x0084f208       0x34 ../PepinoBoris_bsp/\libucosii_bsp.a(ipport.o)
 .rodata        0x0084f23c       0x24 ../PepinoBoris_bsp/\libucosii_bsp.a(ipraw.o)
 .rodata        0x0084f260       0x38 ../PepinoBoris_bsp/\libucosii_bsp.a(iproute.o)
 .rodata        0x0084f298       0xe8 ../PepinoBoris_bsp/\libucosii_bsp.a(udp.o)
 .rodata        0x0084f380      0x2d0 ../PepinoBoris_bsp/\libucosii_bsp.a(u_mctest.o)
 .rodata        0x0084f650       0xf8 ../PepinoBoris_bsp/\libucosii_bsp.a(dhcsetup.o)
 .rodata        0x0084f748       0x94 ../PepinoBoris_bsp/\libucosii_bsp.a(parseip.o)
 .rodata        0x0084f7dc       0x34 ../PepinoBoris_bsp/\libucosii_bsp.a(vfsfiles.o)
 .rodata        0x0084f810      0x318 ../PepinoBoris_bsp/\libucosii_bsp.a(icmp.o)
 *(.rodata1)
                0x0084fb28                . = ALIGN (0x4)
                0x0084fb28                PROVIDE (__ram_rodata_end, ABSOLUTE (.))
                0x0084bb30                PROVIDE (__flash_rodata_start, LOADADDR (.rodata))

.rwdata         0x0084fb28     0x216c
                0x0084fb28                PROVIDE (__ram_rwdata_start, ABSOLUTE (.))
                0x0084fb28                . = ALIGN (0x4)
 *(.got.plt)
 *(.got)
 *(.data1)
 *(.data .data.* .gnu.linkonce.d.*)
 .data          0x0084fb28        0x0 ../PepinoBoris_bsp//obj/HAL/src/crt0.o
 .data          0x0084fb28        0x0 obj/default/VGA.o
 .data          0x0084fb28        0x0 obj/default/alt_error_handler.o
 .data          0x0084fb28        0x0 obj/default/dm9000a.o
 .data          0x0084fb28       0x18 obj/default/iniche_init.o
                0x0084fb28                ssstask
 .data          0x0084fb40        0x0 obj/default/led.o
 .data          0x0084fb40        0x0 obj/default/my_threads.o
 .data          0x0084fb40        0x0 obj/default/network_utilities.o
 .data          0x0084fb40        0x0 obj/default/sdcard/my_sdcard.o
 .data          0x0084fb40        0x0 obj/default/simple_socket_server.o
 .data          0x0084fb40        0x0 obj/default/tse_my_system.o
 .data          0x0084fb40        0x0 d:/altera/13.0/nios2eds/bin/gnu/h-i686-mingw32/bin/../lib/gcc/nios2-elf/4.1.2\libgcc.a(_fixunsdfsi.o)
 .data          0x0084fb40        0x0 d:/altera/13.0/nios2eds/bin/gnu/h-i686-mingw32/bin/../lib/gcc/nios2-elf/4.1.2\libgcc.a(_addsub_sf.o)
 .data          0x0084fb40        0x0 d:/altera/13.0/nios2eds/bin/gnu/h-i686-mingw32/bin/../lib/gcc/nios2-elf/4.1.2\libgcc.a(_mul_sf.o)
 .data          0x0084fb40        0x0 d:/altera/13.0/nios2eds/bin/gnu/h-i686-mingw32/bin/../lib/gcc/nios2-elf/4.1.2\libgcc.a(_div_sf.o)
 .data          0x0084fb40        0x0 d:/altera/13.0/nios2eds/bin/gnu/h-i686-mingw32/bin/../lib/gcc/nios2-elf/4.1.2\libgcc.a(_sf_to_si.o)
 .data          0x0084fb40        0x0 d:/altera/13.0/nios2eds/bin/gnu/h-i686-mingw32/bin/../lib/gcc/nios2-elf/4.1.2\libgcc.a(_thenan_sf.o)
 .data          0x0084fb40        0x0 d:/altera/13.0/nios2eds/bin/gnu/h-i686-mingw32/bin/../lib/gcc/nios2-elf/4.1.2\libgcc.a(_usi_to_sf.o)
 .data          0x0084fb40        0x0 d:/altera/13.0/nios2eds/bin/gnu/h-i686-mingw32/bin/../lib/gcc/nios2-elf/4.1.2\libgcc.a(_addsub_df.o)
 .data          0x0084fb40        0x0 d:/altera/13.0/nios2eds/bin/gnu/h-i686-mingw32/bin/../lib/gcc/nios2-elf/4.1.2\libgcc.a(_mul_df.o)
 .data          0x0084fb40        0x0 d:/altera/13.0/nios2eds/bin/gnu/h-i686-mingw32/bin/../lib/gcc/nios2-elf/4.1.2\libgcc.a(_ge_df.o)
 .data          0x0084fb40        0x0 d:/altera/13.0/nios2eds/bin/gnu/h-i686-mingw32/bin/../lib/gcc/nios2-elf/4.1.2\libgcc.a(_df_to_si.o)
 .data          0x0084fb40        0x0 d:/altera/13.0/nios2eds/bin/gnu/h-i686-mingw32/bin/../lib/gcc/nios2-elf/4.1.2\libgcc.a(_thenan_df.o)
 .data          0x0084fb40        0x0 d:/altera/13.0/nios2eds/bin/gnu/h-i686-mingw32/bin/../lib/gcc/nios2-elf/4.1.2\libgcc.a(_usi_to_df.o)
 .data          0x0084fb40        0x0 d:/altera/13.0/nios2eds/bin/gnu/h-i686-mingw32/bin/../lib/gcc/nios2-elf/4.1.2\libgcc.a(_muldi3.o)
 .data          0x0084fb40        0x0 d:/altera/13.0/nios2eds/bin/gnu/h-i686-mingw32/bin/../lib/gcc/nios2-elf/4.1.2\libgcc.a(_clzsi2.o)
 .data          0x0084fb40        0x0 d:/altera/13.0/nios2eds/bin/gnu/h-i686-mingw32/bin/../lib/gcc/nios2-elf/4.1.2\libgcc.a(_pack_sf.o)
 .data          0x0084fb40        0x0 d:/altera/13.0/nios2eds/bin/gnu/h-i686-mingw32/bin/../lib/gcc/nios2-elf/4.1.2\libgcc.a(_unpack_sf.o)
 .data          0x0084fb40        0x0 d:/altera/13.0/nios2eds/bin/gnu/h-i686-mingw32/bin/../lib/gcc/nios2-elf/4.1.2\libgcc.a(_pack_df.o)
 .data          0x0084fb40        0x0 d:/altera/13.0/nios2eds/bin/gnu/h-i686-mingw32/bin/../lib/gcc/nios2-elf/4.1.2\libgcc.a(_unpack_df.o)
 .data          0x0084fb40        0x0 d:/altera/13.0/nios2eds/bin/gnu/h-i686-mingw32/bin/../lib/gcc/nios2-elf/4.1.2\libgcc.a(_fpcmp_parts_df.o)
 .data          0x0084fb40        0x0 d:/altera/13.0/nios2eds/bin/gnu/h-i686-mingw32/bin/../lib/gcc/nios2-elf/4.1.2\libgcc.a(_clz.o)
 .data          0x0084fb40        0x0 d:/altera/13.0/nios2eds/bin/gnu/h-i686-mingw32/bin/../lib/gcc/nios2-elf/4.1.2/../../../../nios2-elf/lib\libc.a(lib_a-ctype_.o)
 .data          0x0084fb40        0x0 d:/altera/13.0/nios2eds/bin/gnu/h-i686-mingw32/bin/../lib/gcc/nios2-elf/4.1.2/../../../../nios2-elf/lib\libc.a(lib_a-fprintf.o)
 .data          0x0084fb40        0x0 d:/altera/13.0/nios2eds/bin/gnu/h-i686-mingw32/bin/../lib/gcc/nios2-elf/4.1.2/../../../../nios2-elf/lib\libc.a(lib_a-fwrite.o)
 .data          0x0084fb40        0x0 d:/altera/13.0/nios2eds/bin/gnu/h-i686-mingw32/bin/../lib/gcc/nios2-elf/4.1.2/../../../../nios2-elf/lib\libc.a(lib_a-getc.o)
 .data          0x0084fb40      0x400 d:/altera/13.0/nios2eds/bin/gnu/h-i686-mingw32/bin/../lib/gcc/nios2-elf/4.1.2/../../../../nios2-elf/lib\libc.a(lib_a-impure.o)
 .data          0x0084ff40        0x0 d:/altera/13.0/nios2eds/bin/gnu/h-i686-mingw32/bin/../lib/gcc/nios2-elf/4.1.2/../../../../nios2-elf/lib\libc.a(lib_a-memset.o)
 .data          0x0084ff40        0x0 d:/altera/13.0/nios2eds/bin/gnu/h-i686-mingw32/bin/../lib/gcc/nios2-elf/4.1.2/../../../../nios2-elf/lib\libc.a(lib_a-perror.o)
 .data          0x0084ff40        0x0 d:/altera/13.0/nios2eds/bin/gnu/h-i686-mingw32/bin/../lib/gcc/nios2-elf/4.1.2/../../../../nios2-elf/lib\libc.a(lib_a-printf.o)
 .data          0x0084ff40        0x0 d:/altera/13.0/nios2eds/bin/gnu/h-i686-mingw32/bin/../lib/gcc/nios2-elf/4.1.2/../../../../nios2-elf/lib\libc.a(lib_a-putc.o)
 .data          0x0084ff40        0x0 d:/altera/13.0/nios2eds/bin/gnu/h-i686-mingw32/bin/../lib/gcc/nios2-elf/4.1.2/../../../../nios2-elf/lib\libc.a(lib_a-putchar.o)
 .data          0x0084ff40        0x0 d:/altera/13.0/nios2eds/bin/gnu/h-i686-mingw32/bin/../lib/gcc/nios2-elf/4.1.2/../../../../nios2-elf/lib\libc.a(lib_a-puts.o)
 .data          0x0084ff40        0x0 d:/altera/13.0/nios2eds/bin/gnu/h-i686-mingw32/bin/../lib/gcc/nios2-elf/4.1.2/../../../../nios2-elf/lib\libc.a(lib_a-rget.o)
 .data          0x0084ff40        0x0 d:/altera/13.0/nios2eds/bin/gnu/h-i686-mingw32/bin/../lib/gcc/nios2-elf/4.1.2/../../../../nios2-elf/lib\libc.a(lib_a-strerror.o)
 .data          0x0084ff40        0x0 d:/altera/13.0/nios2eds/bin/gnu/h-i686-mingw32/bin/../lib/gcc/nios2-elf/4.1.2/../../../../nios2-elf/lib\libc.a(lib_a-strlen.o)
 .data          0x0084ff40        0x0 d:/altera/13.0/nios2eds/bin/gnu/h-i686-mingw32/bin/../lib/gcc/nios2-elf/4.1.2/../../../../nios2-elf/lib\libc.a(lib_a-u_strerr.o)
 .data          0x0084ff40        0x0 d:/altera/13.0/nios2eds/bin/gnu/h-i686-mingw32/bin/../lib/gcc/nios2-elf/4.1.2/../../../../nios2-elf/lib\libc.a(lib_a-vfprintf.o)
 .data          0x0084ff40        0x0 d:/altera/13.0/nios2eds/bin/gnu/h-i686-mingw32/bin/../lib/gcc/nios2-elf/4.1.2/../../../../nios2-elf/lib\libc.a(lib_a-wbuf.o)
 .data          0x0084ff40        0x0 d:/altera/13.0/nios2eds/bin/gnu/h-i686-mingw32/bin/../lib/gcc/nios2-elf/4.1.2/../../../../nios2-elf/lib\libc.a(lib_a-wsetup.o)
 .data          0x0084ff40        0x0 d:/altera/13.0/nios2eds/bin/gnu/h-i686-mingw32/bin/../lib/gcc/nios2-elf/4.1.2/../../../../nios2-elf/lib\libc.a(lib_a-dtoa.o)
 .data          0x0084ff40        0x0 d:/altera/13.0/nios2eds/bin/gnu/h-i686-mingw32/bin/../lib/gcc/nios2-elf/4.1.2/../../../../nios2-elf/lib\libc.a(lib_a-fflush.o)
 .data          0x0084ff40        0x0 d:/altera/13.0/nios2eds/bin/gnu/h-i686-mingw32/bin/../lib/gcc/nios2-elf/4.1.2/../../../../nios2-elf/lib\libc.a(lib_a-findfp.o)
 .data          0x0084ff40        0x0 d:/altera/13.0/nios2eds/bin/gnu/h-i686-mingw32/bin/../lib/gcc/nios2-elf/4.1.2/../../../../nios2-elf/lib\libc.a(lib_a-fputc.o)
 .data          0x0084ff40        0x0 d:/altera/13.0/nios2eds/bin/gnu/h-i686-mingw32/bin/../lib/gcc/nios2-elf/4.1.2/../../../../nios2-elf/lib\libc.a(lib_a-fputs.o)
 .data          0x0084ff40        0x0 d:/altera/13.0/nios2eds/bin/gnu/h-i686-mingw32/bin/../lib/gcc/nios2-elf/4.1.2/../../../../nios2-elf/lib\libc.a(lib_a-freer.o)
 .data          0x0084ff40        0x0 d:/altera/13.0/nios2eds/bin/gnu/h-i686-mingw32/bin/../lib/gcc/nios2-elf/4.1.2/../../../../nios2-elf/lib\libc.a(lib_a-fvwrite.o)
 .data          0x0084ff40        0x0 d:/altera/13.0/nios2eds/bin/gnu/h-i686-mingw32/bin/../lib/gcc/nios2-elf/4.1.2/../../../../nios2-elf/lib\libc.a(lib_a-fwalk.o)
 .data          0x0084ff40        0xc d:/altera/13.0/nios2eds/bin/gnu/h-i686-mingw32/bin/../lib/gcc/nios2-elf/4.1.2/../../../../nios2-elf/lib\libc.a(lib_a-locale.o)
                0x0084ff40                __lc_ctype
 .data          0x0084ff4c        0x0 d:/altera/13.0/nios2eds/bin/gnu/h-i686-mingw32/bin/../lib/gcc/nios2-elf/4.1.2/../../../../nios2-elf/lib\libc.a(lib_a-makebuf.o)
 .data          0x0084ff4c      0x408 d:/altera/13.0/nios2eds/bin/gnu/h-i686-mingw32/bin/../lib/gcc/nios2-elf/4.1.2/../../../../nios2-elf/lib\libc.a(lib_a-mallocr.o)
                0x0084ff4c                __malloc_av_
 .data          0x00850354        0x0 d:/altera/13.0/nios2eds/bin/gnu/h-i686-mingw32/bin/../lib/gcc/nios2-elf/4.1.2/../../../../nios2-elf/lib\libc.a(lib_a-memchr.o)
 .data          0x00850354        0x0 d:/altera/13.0/nios2eds/bin/gnu/h-i686-mingw32/bin/../lib/gcc/nios2-elf/4.1.2/../../../../nios2-elf/lib\libc.a(lib_a-memcpy.o)
 .data          0x00850354        0x0 d:/altera/13.0/nios2eds/bin/gnu/h-i686-mingw32/bin/../lib/gcc/nios2-elf/4.1.2/../../../../nios2-elf/lib\libc.a(lib_a-memmove.o)
 .data          0x00850354        0x0 d:/altera/13.0/nios2eds/bin/gnu/h-i686-mingw32/bin/../lib/gcc/nios2-elf/4.1.2/../../../../nios2-elf/lib\libc.a(lib_a-mprec.o)
 .data          0x00850354        0x0 d:/altera/13.0/nios2eds/bin/gnu/h-i686-mingw32/bin/../lib/gcc/nios2-elf/4.1.2/../../../../nios2-elf/lib\libc.a(lib_a-reallocr.o)
 .data          0x00850354        0x0 d:/altera/13.0/nios2eds/bin/gnu/h-i686-mingw32/bin/../lib/gcc/nios2-elf/4.1.2/../../../../nios2-elf/lib\libc.a(lib_a-refill.o)
 .data          0x00850354        0x0 d:/altera/13.0/nios2eds/bin/gnu/h-i686-mingw32/bin/../lib/gcc/nios2-elf/4.1.2/../../../../nios2-elf/lib\libc.a(lib_a-s_isinfd.o)
 .data          0x00850354        0x0 d:/altera/13.0/nios2eds/bin/gnu/h-i686-mingw32/bin/../lib/gcc/nios2-elf/4.1.2/../../../../nios2-elf/lib\libc.a(lib_a-s_isnand.o)
 .data          0x00850354        0x0 d:/altera/13.0/nios2eds/bin/gnu/h-i686-mingw32/bin/../lib/gcc/nios2-elf/4.1.2/../../../../nios2-elf/lib\libc.a(lib_a-sbrkr.o)
 .data          0x00850354        0x0 d:/altera/13.0/nios2eds/bin/gnu/h-i686-mingw32/bin/../lib/gcc/nios2-elf/4.1.2/../../../../nios2-elf/lib\libc.a(lib_a-stdio.o)
 .data          0x00850354        0x0 d:/altera/13.0/nios2eds/bin/gnu/h-i686-mingw32/bin/../lib/gcc/nios2-elf/4.1.2/../../../../nios2-elf/lib\libc.a(lib_a-strcmp.o)
 .data          0x00850354        0x0 d:/altera/13.0/nios2eds/bin/gnu/h-i686-mingw32/bin/../lib/gcc/nios2-elf/4.1.2/../../../../nios2-elf/lib\libc.a(lib_a-writer.o)
 .data          0x00850354        0x0 d:/altera/13.0/nios2eds/bin/gnu/h-i686-mingw32/bin/../lib/gcc/nios2-elf/4.1.2/../../../../nios2-elf/lib\libc.a(lib_a-callocr.o)
 .data          0x00850354        0x0 d:/altera/13.0/nios2eds/bin/gnu/h-i686-mingw32/bin/../lib/gcc/nios2-elf/4.1.2/../../../../nios2-elf/lib\libc.a(lib_a-closer.o)
 .data          0x00850354        0x0 d:/altera/13.0/nios2eds/bin/gnu/h-i686-mingw32/bin/../lib/gcc/nios2-elf/4.1.2/../../../../nios2-elf/lib\libc.a(lib_a-fclose.o)
 .data          0x00850354        0x0 d:/altera/13.0/nios2eds/bin/gnu/h-i686-mingw32/bin/../lib/gcc/nios2-elf/4.1.2/../../../../nios2-elf/lib\libc.a(lib_a-fstatr.o)
 .data          0x00850354        0x0 d:/altera/13.0/nios2eds/bin/gnu/h-i686-mingw32/bin/../lib/gcc/nios2-elf/4.1.2/../../../../nios2-elf/lib\libc.a(lib_a-int_errno.o)
 .data          0x00850354        0x0 d:/altera/13.0/nios2eds/bin/gnu/h-i686-mingw32/bin/../lib/gcc/nios2-elf/4.1.2/../../../../nios2-elf/lib\libc.a(lib_a-isattyr.o)
 .data          0x00850354        0x0 d:/altera/13.0/nios2eds/bin/gnu/h-i686-mingw32/bin/../lib/gcc/nios2-elf/4.1.2/../../../../nios2-elf/lib\libc.a(lib_a-lseekr.o)
 .data          0x00850354        0x0 d:/altera/13.0/nios2eds/bin/gnu/h-i686-mingw32/bin/../lib/gcc/nios2-elf/4.1.2/../../../../nios2-elf/lib\libc.a(lib_a-readr.o)
 .data          0x00850354        0x0 d:/altera/13.0/nios2eds/bin/gnu/h-i686-mingw32/bin/../lib/gcc/nios2-elf/4.1.2\libgcc.a(_udivdi3.o)
 .data          0x00850354        0x0 d:/altera/13.0/nios2eds/bin/gnu/h-i686-mingw32/bin/../lib/gcc/nios2-elf/4.1.2\libgcc.a(_umoddi3.o)
 .data          0x00850354        0x0 d:/altera/13.0/nios2eds/bin/gnu/h-i686-mingw32/bin/../lib/gcc/nios2-elf/4.1.2\libgcc.a(_div_df.o)
 .data          0x00850354        0x0 d:/altera/13.0/nios2eds/bin/gnu/h-i686-mingw32/bin/../lib/gcc/nios2-elf/4.1.2\libgcc.a(_eq_df.o)
 .data          0x00850354        0x0 d:/altera/13.0/nios2eds/bin/gnu/h-i686-mingw32/bin/../lib/gcc/nios2-elf/4.1.2\libgcc.a(_ne_df.o)
 .data          0x00850354        0x0 d:/altera/13.0/nios2eds/bin/gnu/h-i686-mingw32/bin/../lib/gcc/nios2-elf/4.1.2\libgcc.a(_gt_df.o)
 .data          0x00850354        0x0 d:/altera/13.0/nios2eds/bin/gnu/h-i686-mingw32/bin/../lib/gcc/nios2-elf/4.1.2\libgcc.a(_lt_df.o)
 .data          0x00850354        0x0 d:/altera/13.0/nios2eds/bin/gnu/h-i686-mingw32/bin/../lib/gcc/nios2-elf/4.1.2\libgcc.a(_si_to_df.o)
 .data          0x00850354        0x0 d:/altera/13.0/nios2eds/bin/gnu/h-i686-mingw32/bin/../lib/gcc/nios2-elf/4.1.2\libgcc.a(lib2-divmod.o)
 .data          0x00850354        0x0 ../PepinoBoris_bsp/\libucosii_bsp.a(alt_flash_dev.o)
 .data          0x00850354        0x0 ../PepinoBoris_bsp/\libucosii_bsp.a(alt_fstat.o)
 .data          0x00850354        0x0 ../PepinoBoris_bsp/\libucosii_bsp.a(alt_irq_register.o)
 .data          0x00850354        0x0 ../PepinoBoris_bsp/\libucosii_bsp.a(alt_irq_vars.o)
 .data          0x00850354        0x0 ../PepinoBoris_bsp/\libucosii_bsp.a(alt_isatty.o)
 .data          0x00850354        0x0 ../PepinoBoris_bsp/\libucosii_bsp.a(alt_lseek.o)
 .data          0x00850354        0x0 ../PepinoBoris_bsp/\libucosii_bsp.a(alt_main.o)
 .data          0x00850354        0x0 ../PepinoBoris_bsp/\libucosii_bsp.a(alt_sbrk.o)
 .data          0x00850354        0x0 ../PepinoBoris_bsp/\libucosii_bsp.a(alt_usleep.o)
 .data          0x00850354        0x0 ../PepinoBoris_bsp/\libucosii_bsp.a(alt_env_lock.o)
 .data          0x00850354        0x0 ../PepinoBoris_bsp/\libucosii_bsp.a(alt_malloc_lock.o)
 .data          0x00850354        0x0 ../PepinoBoris_bsp/\libucosii_bsp.a(os_core.o)
 .data          0x00850354        0x0 ../PepinoBoris_bsp/\libucosii_bsp.a(os_dbg.o)
 .data          0x00850354        0x0 ../PepinoBoris_bsp/\libucosii_bsp.a(os_flag.o)
 .data          0x00850354        0x0 ../PepinoBoris_bsp/\libucosii_bsp.a(os_mem.o)
 .data          0x00850354        0x0 ../PepinoBoris_bsp/\libucosii_bsp.a(os_q.o)
 .data          0x00850354        0x0 ../PepinoBoris_bsp/\libucosii_bsp.a(os_sem.o)
 .data          0x00850354        0x0 ../PepinoBoris_bsp/\libucosii_bsp.a(os_task.o)
 .data          0x00850354        0x0 ../PepinoBoris_bsp/\libucosii_bsp.a(os_time.o)
 .data          0x00850354     0x142c ../PepinoBoris_bsp/\libucosii_bsp.a(alt_sys_init.o)
 .data          0x00851780        0x0 ../PepinoBoris_bsp/\libucosii_bsp.a(altera_avalon_cfi_flash.o)
 .data          0x00851780        0x0 ../PepinoBoris_bsp/\libucosii_bsp.a(altera_avalon_cfi_flash_table.o)
 .data          0x00851780        0x0 ../PepinoBoris_bsp/\libucosii_bsp.a(altera_avalon_epcs_flash_controller.o)
 .data          0x00851780        0x0 ../PepinoBoris_bsp/\libucosii_bsp.a(altera_avalon_jtag_uart_fd.o)
 .data          0x00851780        0x0 ../PepinoBoris_bsp/\libucosii_bsp.a(altera_avalon_jtag_uart_init.o)
 .data          0x00851780        0x0 ../PepinoBoris_bsp/\libucosii_bsp.a(altera_avalon_jtag_uart_ioctl.o)
 .data          0x00851780        0x0 ../PepinoBoris_bsp/\libucosii_bsp.a(altera_avalon_jtag_uart_read.o)
 .data          0x00851780        0x0 ../PepinoBoris_bsp/\libucosii_bsp.a(altera_avalon_jtag_uart_write.o)
 .data          0x00851780        0x0 ../PepinoBoris_bsp/\libucosii_bsp.a(altera_avalon_lcd_16207.o)
 .data          0x00851780        0x0 ../PepinoBoris_bsp/\libucosii_bsp.a(altera_avalon_lcd_16207_fd.o)
 .data          0x00851780        0x0 ../PepinoBoris_bsp/\libucosii_bsp.a(altera_avalon_timer_sc.o)
 .data          0x00851780        0x0 ../PepinoBoris_bsp/\libucosii_bsp.a(altera_avalon_uart_fd.o)
 .data          0x00851780        0x0 ../PepinoBoris_bsp/\libucosii_bsp.a(altera_avalon_uart_init.o)
 .data          0x00851780        0x0 ../PepinoBoris_bsp/\libucosii_bsp.a(altera_avalon_uart_read.o)
 .data          0x00851780        0x0 ../PepinoBoris_bsp/\libucosii_bsp.a(altera_avalon_uart_write.o)
 .data          0x00851780        0x0 ../PepinoBoris_bsp/\libucosii_bsp.a(altera_up_sd_card_avalon_interface.o)
 .data          0x00851780        0x0 ../PepinoBoris_bsp/\libucosii_bsp.a(epcs_commands.o)
 .data          0x00851780        0x0 ../PepinoBoris_bsp/\libucosii_bsp.a(alt_iniche_close.o)
 .data          0x00851780        0x0 ../PepinoBoris_bsp/\libucosii_bsp.a(alt_iniche_dev.o)
 .data          0x00851780        0x0 ../PepinoBoris_bsp/\libucosii_bsp.a(alt_iniche_read.o)
 .data          0x00851780        0x0 ../PepinoBoris_bsp/\libucosii_bsp.a(alt_iniche_write.o)
 .data          0x00851780        0x0 ../PepinoBoris_bsp/\libucosii_bsp.a(ipnet.o)
 .data          0x00851780        0x0 ../PepinoBoris_bsp/\libucosii_bsp.a(ipstart.o)
 .data          0x00851780        0x0 ../PepinoBoris_bsp/\libucosii_bsp.a(igmp_cmn.o)
 .data          0x00851780        0x0 ../PepinoBoris_bsp/\libucosii_bsp.a(bsdsock.o)
 .data          0x00851780        0x0 ../PepinoBoris_bsp/\libucosii_bsp.a(cksum.o)
 .data          0x00851780        0x0 ../PepinoBoris_bsp/\libucosii_bsp.a(in_utils.o)
 .data          0x00851780       0x30 ../PepinoBoris_bsp/\libucosii_bsp.a(netmain.o)
                0x00851780                nettasks
 .data          0x008517b0        0x0 ../PepinoBoris_bsp/\libucosii_bsp.a(tk_crnos.o)
 .data          0x008517b0        0x0 ../PepinoBoris_bsp/\libucosii_bsp.a(dhcpclnt.o)
 .data          0x008517b0        0x0 ../PepinoBoris_bsp/\libucosii_bsp.a(dhcputil.o)
 .data          0x008517b0        0x0 ../PepinoBoris_bsp/\libucosii_bsp.a(pktalloc.o)
 .data          0x008517b0        0x0 ../PepinoBoris_bsp/\libucosii_bsp.a(q.o)
 .data          0x008517b0        0x0 ../PepinoBoris_bsp/\libucosii_bsp.a(udp_open.o)
 .data          0x008517b0        0x0 ../PepinoBoris_bsp/\libucosii_bsp.a(asm_cksum.o)
 .data          0x008517b0        0x0 ../PepinoBoris_bsp/\libucosii_bsp.a(brdutils.o)
 .data          0x008517b0        0x0 ../PepinoBoris_bsp/\libucosii_bsp.a(osportco.o)
 .data          0x008517b0        0x0 ../PepinoBoris_bsp/\libucosii_bsp.a(targnios.o)
 .data          0x008517b0       0x48 ../PepinoBoris_bsp/\libucosii_bsp.a(nptcp.o)
                0x008517b0                tcp_protosw
                0x008517c8                udp_protosw
                0x008517e0                rawip_protosw
 .data          0x008517f8        0x0 ../PepinoBoris_bsp/\libucosii_bsp.a(rawsock.o)
 .data          0x008517f8        0x0 ../PepinoBoris_bsp/\libucosii_bsp.a(sockcall.o)
 .data          0x008517f8        0x0 ../PepinoBoris_bsp/\libucosii_bsp.a(socket.o)
 .data          0x008517f8        0x0 ../PepinoBoris_bsp/\libucosii_bsp.a(socket2.o)
 .data          0x008517f8        0x0 ../PepinoBoris_bsp/\libucosii_bsp.a(soselect.o)
 .data          0x008517f8        0x0 ../PepinoBoris_bsp/\libucosii_bsp.a(tcp_in.o)
 .data          0x008517f8        0xc ../PepinoBoris_bsp/\libucosii_bsp.a(tcp_out.o)
                0x008517f8                tcp_outflags
 .data          0x00851804        0x0 ../PepinoBoris_bsp/\libucosii_bsp.a(tcp_subr.o)
 .data          0x00851804       0x10 ../PepinoBoris_bsp/\libucosii_bsp.a(tcp_timr.o)
                0x00851804                tcp_backoff
 .data          0x00851814        0x0 ../PepinoBoris_bsp/\libucosii_bsp.a(tcp_usr.o)
 .data          0x00851814        0x0 ../PepinoBoris_bsp/\libucosii_bsp.a(tcpport.o)
 .data          0x00851814        0x0 ../PepinoBoris_bsp/\libucosii_bsp.a(udpsock.o)
 .data          0x00851814        0x0 ../PepinoBoris_bsp/\libucosii_bsp.a(alt_alarm_start.o)
 .data          0x00851814        0x0 ../PepinoBoris_bsp/\libucosii_bsp.a(alt_busy_sleep.o)
 .data          0x00851814        0x0 ../PepinoBoris_bsp/\libucosii_bsp.a(alt_close.o)
 .data          0x00851814        0x0 ../PepinoBoris_bsp/\libucosii_bsp.a(alt_dcache_flush.o)
 .data          0x00851814      0x1a8 ../PepinoBoris_bsp/\libucosii_bsp.a(alt_dev.o)
                0x00851814                alt_dev_null
                0x0085183c                alt_fd_list
 .data          0x008519bc        0x0 ../PepinoBoris_bsp/\libucosii_bsp.a(alt_dev_llist_insert.o)
 .data          0x008519bc        0x0 ../PepinoBoris_bsp/\libucosii_bsp.a(alt_do_ctors.o)
 .data          0x008519bc        0x0 ../PepinoBoris_bsp/\libucosii_bsp.a(alt_do_dtors.o)
 .data          0x008519bc        0x0 ../PepinoBoris_bsp/\libucosii_bsp.a(alt_errno.o)
 .data          0x008519bc        0x0 ../PepinoBoris_bsp/\libucosii_bsp.a(alt_find_dev.o)
 .data          0x008519bc        0x0 ../PepinoBoris_bsp/\libucosii_bsp.a(alt_iic.o)
 .data          0x008519bc        0x0 ../PepinoBoris_bsp/\libucosii_bsp.a(alt_iic_isr_register.o)
 .data          0x008519bc        0x0 ../PepinoBoris_bsp/\libucosii_bsp.a(alt_io_redirect.o)
 .data          0x008519bc        0x0 ../PepinoBoris_bsp/\libucosii_bsp.a(alt_irq_entry.o)
 .data          0x008519bc        0x0 ../PepinoBoris_bsp/\libucosii_bsp.a(alt_irq_handler.o)
 .data          0x008519bc        0x0 ../PepinoBoris_bsp/\libucosii_bsp.a(alt_open.o)
 .data          0x008519bc        0x0 ../PepinoBoris_bsp/\libucosii_bsp.a(alt_read.o)
 .data          0x008519bc        0x0 ../PepinoBoris_bsp/\libucosii_bsp.a(alt_release_fd.o)
 .data          0x008519bc        0x0 ../PepinoBoris_bsp/\libucosii_bsp.a(alt_remap_cached.o)
 .data          0x008519bc        0x0 ../PepinoBoris_bsp/\libucosii_bsp.a(alt_remap_uncached.o)
 .data          0x008519bc        0x0 ../PepinoBoris_bsp/\libucosii_bsp.a(alt_tick.o)
 .data          0x008519bc        0x0 ../PepinoBoris_bsp/\libucosii_bsp.a(alt_write.o)
 .data          0x008519bc        0x0 ../PepinoBoris_bsp/\libucosii_bsp.a(altera_nios2_qsys_irq.o)
 .data          0x008519bc        0x0 ../PepinoBoris_bsp/\libucosii_bsp.a(os_cpu_a.o)
 .data          0x008519bc        0x0 ../PepinoBoris_bsp/\libucosii_bsp.a(os_cpu_c.o)
 .data          0x008519bc        0x0 ../PepinoBoris_bsp/\libucosii_bsp.a(altera_avalon_cfi_flash_amd.o)
 .data          0x008519bc        0x0 ../PepinoBoris_bsp/\libucosii_bsp.a(altera_avalon_cfi_flash_intel.o)
 .data          0x008519bc        0x0 ../PepinoBoris_bsp/\libucosii_bsp.a(altera_avalon_spi.o)
 .data          0x008519bc       0x18 ../PepinoBoris_bsp/\libucosii_bsp.a(allports.o)
                0x008519bc                icmpdu_types
 .data          0x008519d4        0x0 ../PepinoBoris_bsp/\libucosii_bsp.a(timeouts.o)
 .data          0x008519d4        0x0 ../PepinoBoris_bsp/\libucosii_bsp.a(tk_misc.o)
 .data          0x008519d4        0x0 ../PepinoBoris_bsp/\libucosii_bsp.a(alt_iniche_fcntl.o)
 .data          0x008519d4        0x0 ../PepinoBoris_bsp/\libucosii_bsp.a(et_arp.o)
 .data          0x008519d4        0x0 ../PepinoBoris_bsp/\libucosii_bsp.a(iface.o)
 .data          0x008519d4        0x0 ../PepinoBoris_bsp/\libucosii_bsp.a(ip.o)
 .data          0x008519d4        0x0 ../PepinoBoris_bsp/\libucosii_bsp.a(ip_reasm.o)
 .data          0x008519d4        0x0 ../PepinoBoris_bsp/\libucosii_bsp.a(ipdemux.o)
 .data          0x008519d4        0x0 ../PepinoBoris_bsp/\libucosii_bsp.a(ipmc.o)
 .data          0x008519d4        0x0 ../PepinoBoris_bsp/\libucosii_bsp.a(ipport.o)
 .data          0x008519d4        0x0 ../PepinoBoris_bsp/\libucosii_bsp.a(ipraw.o)
 .data          0x008519d4        0xc ../PepinoBoris_bsp/\libucosii_bsp.a(iproute.o)
                0x008519d4                rtp_priority
 .data          0x008519e0        0x0 ../PepinoBoris_bsp/\libucosii_bsp.a(udp.o)
 .data          0x008519e0        0x0 ../PepinoBoris_bsp/\libucosii_bsp.a(igmp.o)
 .data          0x008519e0        0x0 ../PepinoBoris_bsp/\libucosii_bsp.a(igmp2.o)
 .data          0x008519e0        0x0 ../PepinoBoris_bsp/\libucosii_bsp.a(ipopt.o)
 .data          0x008519e0        0x0 ../PepinoBoris_bsp/\libucosii_bsp.a(u_mctest.o)
 .data          0x008519e0        0x0 ../PepinoBoris_bsp/\libucosii_bsp.a(dhcsetup.o)
 .data          0x008519e0       0xd4 ../PepinoBoris_bsp/\libucosii_bsp.a(memdev.o)
                0x008519e0                mdio
                0x00851a04                mdlist
 .data          0x00851ab4        0x0 ../PepinoBoris_bsp/\libucosii_bsp.a(parseip.o)
 .data          0x00851ab4        0x0 ../PepinoBoris_bsp/\libucosii_bsp.a(tcpcksum.o)
 .data          0x00851ab4        0x0 ../PepinoBoris_bsp/\libucosii_bsp.a(in_pcb.o)
 .data          0x00851ab4       0x80 ../PepinoBoris_bsp/\libucosii_bsp.a(vfsfiles.o)
                0x00851ab4                vfs_root_path
 .data          0x00851b34        0x0 ../PepinoBoris_bsp/\libucosii_bsp.a(vfsport.o)
 .data          0x00851b34        0x0 ../PepinoBoris_bsp/\libucosii_bsp.a(alt_exception_entry.o)
 .data          0x00851b34        0x0 ../PepinoBoris_bsp/\libucosii_bsp.a(alt_fcntl.o)
 .data          0x00851b34        0x0 ../PepinoBoris_bsp/\libucosii_bsp.a(alt_find_file.o)
 .data          0x00851b34        0x0 ../PepinoBoris_bsp/\libucosii_bsp.a(alt_get_fd.o)
 .data          0x00851b34       0x18 ../PepinoBoris_bsp/\libucosii_bsp.a(icmp.o)
 .data          0x00851b4c        0x0 d:/altera/13.0/nios2eds/bin/gnu/h-i686-mingw32/bin/../lib/gcc/nios2-elf/4.1.2/../../../../nios2-elf/lib\libc.a(lib_a-atexit.o)
 .data          0x00851b4c        0x0 d:/altera/13.0/nios2eds/bin/gnu/h-i686-mingw32/bin/../lib/gcc/nios2-elf/4.1.2/../../../../nios2-elf/lib\libc.a(lib_a-atoi.o)
 .data          0x00851b4c        0x0 d:/altera/13.0/nios2eds/bin/gnu/h-i686-mingw32/bin/../lib/gcc/nios2-elf/4.1.2/../../../../nios2-elf/lib\libc.a(lib_a-calloc.o)
 .data          0x00851b4c        0x0 d:/altera/13.0/nios2eds/bin/gnu/h-i686-mingw32/bin/../lib/gcc/nios2-elf/4.1.2/../../../../nios2-elf/lib\libc.a(lib_a-exit.o)
 .data          0x00851b4c        0x0 d:/altera/13.0/nios2eds/bin/gnu/h-i686-mingw32/bin/../lib/gcc/nios2-elf/4.1.2/../../../../nios2-elf/lib\libc.a(lib_a-malloc.o)
 .data          0x00851b4c        0x0 d:/altera/13.0/nios2eds/bin/gnu/h-i686-mingw32/bin/../lib/gcc/nios2-elf/4.1.2/../../../../nios2-elf/lib\libc.a(lib_a-memcmp.o)
 .data          0x00851b4c        0x0 d:/altera/13.0/nios2eds/bin/gnu/h-i686-mingw32/bin/../lib/gcc/nios2-elf/4.1.2/../../../../nios2-elf/lib\libc.a(lib_a-sprintf.o)
 .data          0x00851b4c        0x0 d:/altera/13.0/nios2eds/bin/gnu/h-i686-mingw32/bin/../lib/gcc/nios2-elf/4.1.2/../../../../nios2-elf/lib\libc.a(lib_a-strchr.o)
 .data          0x00851b4c        0x0 d:/altera/13.0/nios2eds/bin/gnu/h-i686-mingw32/bin/../lib/gcc/nios2-elf/4.1.2/../../../../nios2-elf/lib\libc.a(lib_a-strcpy.o)
 .data          0x00851b4c        0x0 d:/altera/13.0/nios2eds/bin/gnu/h-i686-mingw32/bin/../lib/gcc/nios2-elf/4.1.2/../../../../nios2-elf/lib\libc.a(lib_a-strncmp.o)
 .data          0x00851b4c        0x0 d:/altera/13.0/nios2eds/bin/gnu/h-i686-mingw32/bin/../lib/gcc/nios2-elf/4.1.2/../../../../nios2-elf/lib\libc.a(lib_a-strncpy.o)
 .data          0x00851b4c        0x0 d:/altera/13.0/nios2eds/bin/gnu/h-i686-mingw32/bin/../lib/gcc/nios2-elf/4.1.2/../../../../nios2-elf/lib\libc.a(lib_a-strtol.o)
 .data          0x00851b4c        0x0 d:/altera/13.0/nios2eds/bin/gnu/h-i686-mingw32/bin/../lib/gcc/nios2-elf/4.1.2/../../../../nios2-elf/lib\libc.a(lib_a-vprintf.o)
 .data          0x00851b4c        0x0 d:/altera/13.0/nios2eds/bin/gnu/h-i686-mingw32/bin/../lib/gcc/nios2-elf/4.1.2/../../../../nios2-elf/lib\libc.a(lib_a-vsprintf.o)
 .data          0x00851b4c        0x0 d:/altera/13.0/nios2eds/bin/gnu/h-i686-mingw32/bin/../lib/gcc/nios2-elf/4.1.2/../../../../nios2-elf/lib\libc.a(lib_a-__atexit.o)
 .data          0x00851b4c        0x0 d:/altera/13.0/nios2eds/bin/gnu/h-i686-mingw32/bin/../lib/gcc/nios2-elf/4.1.2/../../../../nios2-elf/lib\libc.a(lib_a-__call_atexit.o)
 .data          0x00851b4c        0x0 ../PepinoBoris_bsp/\libucosii_bsp.a(alt_exit.o)
                0x00859b4c                _gp = ABSOLUTE ((. + 0x8000))
                0x00859b4c                PROVIDE (gp, _gp)
 *(.rwdata .rwdata.*)
 *(.sdata .sdata.* .gnu.linkonce.s.*)
 .sdata         0x00851b4c        0x4 d:/altera/13.0/nios2eds/bin/gnu/h-i686-mingw32/bin/../lib/gcc/nios2-elf/4.1.2/../../../../nios2-elf/lib\libc.a(lib_a-ctype_.o)
                0x00851b4c                __ctype_ptr
 .sdata         0x00851b50        0x8 d:/altera/13.0/nios2eds/bin/gnu/h-i686-mingw32/bin/../lib/gcc/nios2-elf/4.1.2/../../../../nios2-elf/lib\libc.a(lib_a-impure.o)
                0x00851b50                _impure_ptr
                0x00851b54                _global_impure_ptr
 .sdata         0x00851b58        0x8 d:/altera/13.0/nios2eds/bin/gnu/h-i686-mingw32/bin/../lib/gcc/nios2-elf/4.1.2/../../../../nios2-elf/lib\libc.a(lib_a-locale.o)
                0x00851b58                __mb_cur_max
 .sdata         0x00851b60        0x8 d:/altera/13.0/nios2eds/bin/gnu/h-i686-mingw32/bin/../lib/gcc/nios2-elf/4.1.2/../../../../nios2-elf/lib\libc.a(lib_a-mallocr.o)
                0x00851b60                __malloc_trim_threshold
                0x00851b64                __malloc_sbrk_base
 .sdata         0x00851b68        0x8 ../PepinoBoris_bsp/\libucosii_bsp.a(alt_flash_dev.o)
                0x00851b68                alt_flash_dev_list
 .sdata         0x00851b70        0x4 ../PepinoBoris_bsp/\libucosii_bsp.a(alt_irq_vars.o)
                0x00851b70                alt_priority_mask
 .sdata         0x00851b74        0x4 ../PepinoBoris_bsp/\libucosii_bsp.a(alt_sbrk.o)
 .sdata         0x00851b78        0x4 ../PepinoBoris_bsp/\libucosii_bsp.a(alt_env_lock.o)
 .sdata         0x00851b7c        0x4 ../PepinoBoris_bsp/\libucosii_bsp.a(alt_malloc_lock.o)
 .sdata         0x00851b80       0x74 ../PepinoBoris_bsp/\libucosii_bsp.a(os_dbg.o)
                0x00851b80                OSDebugEn
                0x00851b84                OSEndiannessTest
                0x00851b88                OSEventEn
                0x00851b8a                OSEventMax
                0x00851b8c                OSEventNameSize
                0x00851b8e                OSEventSize
                0x00851b90                OSEventTblSize
                0x00851b92                OSEventMultiEn
                0x00851b94                OSFlagEn
                0x00851b96                OSFlagGrpSize
                0x00851b98                OSFlagNodeSize
                0x00851b9a                OSFlagWidth
                0x00851b9c                OSFlagMax
                0x00851b9e                OSFlagNameSize
                0x00851ba0                OSLowestPrio
                0x00851ba2                OSMboxEn
                0x00851ba4                OSMemEn
                0x00851ba6                OSMemMax
                0x00851ba8                OSMemNameSize
                0x00851baa                OSMemSize
                0x00851bac                OSMemTblSize
                0x00851bae                OSMutexEn
                0x00851bb0                OSPtrSize
                0x00851bb2                OSQEn
                0x00851bb4                OSQMax
                0x00851bb6                OSQSize
                0x00851bb8                OSRdyTblSize
                0x00851bba                OSSemEn
                0x00851bbc                OSStkWidth
                0x00851bbe                OSTaskCreateEn
                0x00851bc0                OSTaskCreateExtEn
                0x00851bc2                OSTaskDelEn
                0x00851bc4                OSTaskIdleStkSize
                0x00851bc6                OSTaskProfileEn
                0x00851bc8                OSTaskMax
                0x00851bca                OSTaskNameSize
                0x00851bcc                OSTaskStatEn
                0x00851bce                OSTaskStatStkSize
                0x00851bd0                OSTaskStatStkChkEn
                0x00851bd2                OSTaskSwHookEn
                0x00851bd4                OSTCBPrioTblMax
                0x00851bd6                OSTCBSize
                0x00851bd8                OSTicksPerSec
                0x00851bda                OSTimeTickHookEn
                0x00851bdc                OSVersionNbr
                0x00851bde                OSTmrEn
                0x00851be0                OSTmrCfgMax
                0x00851be2                OSTmrCfgNameSize
                0x00851be4                OSTmrCfgWheelSize
                0x00851be6                OSTmrCfgTicksPerSec
                0x00851be8                OSTmrSize
                0x00851bea                OSTmrTblSize
                0x00851bec                OSTmrWheelSize
                0x00851bee                OSTmrWheelTblSize
                0x00851bf0                OSDataSize
 .sdata         0x00851bf4        0x4 ../PepinoBoris_bsp/\libucosii_bsp.a(altera_avalon_lcd_16207.o)
 .sdata         0x00851bf8        0x8 ../PepinoBoris_bsp/\libucosii_bsp.a(alt_iniche_dev.o)
                0x00851bf8                alt_iniche_dev_list
 .sdata         0x00851c00        0x4 ../PepinoBoris_bsp/\libucosii_bsp.a(ipstart.o)
                0x00851c00                ipmcfail_str
 .sdata         0x00851c04        0x4 ../PepinoBoris_bsp/\libucosii_bsp.a(cksum.o)
 .sdata         0x00851c08        0x4 ../PepinoBoris_bsp/\libucosii_bsp.a(netmain.o)
                0x00851c08                num_net_tasks
 .sdata         0x00851c0c        0xc ../PepinoBoris_bsp/\libucosii_bsp.a(dhcpclnt.o)
                0x00851c0c                xids
                0x00851c10                reqlist
                0x00851c14                reqlist_len
 .sdata         0x00851c18       0x10 ../PepinoBoris_bsp/\libucosii_bsp.a(pktalloc.o)
                0x00851c18                lilbufs
                0x00851c1c                lilbufsiz
                0x00851c20                bigbufs
                0x00851c24                bigbufsiz
 .sdata         0x00851c28        0x4 ../PepinoBoris_bsp/\libucosii_bsp.a(brdutils.o)
                0x00851c28                kb_last
 .sdata         0x00851c2c        0x4 ../PepinoBoris_bsp/\libucosii_bsp.a(nptcp.o)
                0x00851c2c                TCPTV_MSL
 .sdata         0x00851c30        0x2 ../PepinoBoris_bsp/\libucosii_bsp.a(socket.o)
                0x00851c30                socket_defaults
 .sdata         0x00851c32        0x1 ../PepinoBoris_bsp/\libucosii_bsp.a(tcp_in.o)
                0x00851c32                tcprexmtthresh
 *fill*         0x00851c33        0x1 00
 .sdata         0x00851c34        0x4 ../PepinoBoris_bsp/\libucosii_bsp.a(tcp_subr.o)
                0x00851c34                tcp_ttl
 .sdata         0x00851c38        0x8 ../PepinoBoris_bsp/\libucosii_bsp.a(tcp_timr.o)
                0x00851c38                tcp_keepidle
                0x00851c3c                tcp_keepintvl
 .sdata         0x00851c40        0x8 ../PepinoBoris_bsp/\libucosii_bsp.a(tcp_usr.o)
                0x00851c40                tcp_sendspace
                0x00851c44                tcp_recvspace
 .sdata         0x00851c48       0x14 ../PepinoBoris_bsp/\libucosii_bsp.a(alt_dev.o)
                0x00851c48                alt_fs_list
                0x00851c50                alt_dev_list
                0x00851c58                alt_max_fd
 .sdata         0x00851c5c        0x4 ../PepinoBoris_bsp/\libucosii_bsp.a(alt_errno.o)
                0x00851c5c                alt_errno
 .sdata         0x00851c60        0x8 ../PepinoBoris_bsp/\libucosii_bsp.a(alt_tick.o)
                0x00851c60                alt_alarm_list
 .sdata         0x00851c68       0x10 ../PepinoBoris_bsp/\libucosii_bsp.a(allports.o)
                0x00851c68                name
                0x00851c6c                prompt
                0x00851c70                pingdelay
                0x00851c74                deflength
 .sdata         0x00851c78        0x4 ../PepinoBoris_bsp/\libucosii_bsp.a(et_arp.o)
                0x00851c78                arp_ageout
 .sdata         0x00851c7c        0x8 ../PepinoBoris_bsp/\libucosii_bsp.a(ip.o)
                0x00851c80                ipRoutes
 .sdata         0x00851c84        0x4 ../PepinoBoris_bsp/\libucosii_bsp.a(u_mctest.o)
 .sdata         0x00851c88        0x4 ../PepinoBoris_bsp/\libucosii_bsp.a(memdev.o)
                0x00851c88                mdlist_size
 .sdata         0x00851c8c        0x4 ../PepinoBoris_bsp/\libucosii_bsp.a(parseip.o)
                0x00851c8c                pton_error
 .sdata         0x00851c90        0x4 ../PepinoBoris_bsp/\libucosii_bsp.a(vfsfiles.o)
                0x00851c90                http_root_path
 *(.sdata2 .sdata2.* .gnu.linkonce.s2.*)
                0x00851c94                . = ALIGN (0x4)
                0x00851c94                _edata = ABSOLUTE (.)
                0x00851c94                PROVIDE (edata, ABSOLUTE (.))
                0x00851c94                PROVIDE (__ram_rwdata_end, ABSOLUTE (.))
                0x0084fb28                PROVIDE (__flash_rwdata_start, LOADADDR (.rwdata))

.bss            0x00851c94     0xf75c
                0x00851c94                __bss_start = ABSOLUTE (.)
                0x00851c94                PROVIDE (__sbss_start, ABSOLUTE (.))
                0x00851c94                PROVIDE (___sbss_start, ABSOLUTE (.))
 *(.dynsbss)
 *(.sbss .sbss.* .gnu.linkonce.sb.*)
 .sbss          0x00851c94        0x8 obj/default/dm9000a.o
                0x00851c94                autoReset
                0x00851c98                netisrs
 .sbss          0x00851c9c        0x1 obj/default/iniche_init.o
                0x00851c9c                to_ssstask
 *fill*         0x00851c9d        0x3 00
 .sbss          0x00851ca0        0x8 obj/default/network_utilities.o
                0x00851ca0                last_flash_sector_offset
                0x00851ca4                last_flash_sector
 .sbss          0x00851ca8       0x18 obj/default/simple_socket_server.o
                0x00851ca8                SSSLEDCommandQ
                0x00851cac                SSSLEDLightshowSem
                0x00851cb0                VGACommandQ
                0x00851cb4                SDCardSem
                0x00851cb8                SSSLEDEventFlag
                0x00851cbc                DisplayVGAEventFlag
 .sbss          0x00851cc0        0xc d:/altera/13.0/nios2eds/bin/gnu/h-i686-mingw32/bin/../lib/gcc/nios2-elf/4.1.2/../../../../nios2-elf/lib\libc.a(lib_a-locale.o)
                0x00851cc0                __nlocale_changed
                0x00851cc4                __mlocale_changed
                0x00851cc8                _PathLocale
 .sbss          0x00851ccc        0xc d:/altera/13.0/nios2eds/bin/gnu/h-i686-mingw32/bin/../lib/gcc/nios2-elf/4.1.2/../../../../nios2-elf/lib\libc.a(lib_a-mallocr.o)
                0x00851ccc                __malloc_top_pad
                0x00851cd0                __malloc_max_sbrked_mem
                0x00851cd4                __malloc_max_total_mem
 .sbss          0x00851cd8        0x4 d:/altera/13.0/nios2eds/bin/gnu/h-i686-mingw32/bin/../lib/gcc/nios2-elf/4.1.2/../../../../nios2-elf/lib\libc.a(lib_a-int_errno.o)
                0x00851cd8                errno
 .sbss          0x00851cdc        0x4 ../PepinoBoris_bsp/\libucosii_bsp.a(alt_irq_vars.o)
                0x00851cdc                alt_irq_active
 .sbss          0x00851ce0        0xc ../PepinoBoris_bsp/\libucosii_bsp.a(alt_main.o)
                0x00851ce0                alt_argc
                0x00851ce4                alt_argv
                0x00851ce8                alt_envp
 .sbss          0x00851cec        0x8 ../PepinoBoris_bsp/\libucosii_bsp.a(alt_env_lock.o)
                0x00851cf0                alt_envsem
 .sbss          0x00851cf4        0x8 ../PepinoBoris_bsp/\libucosii_bsp.a(alt_malloc_lock.o)
                0x00851cf8                alt_heapsem
 .sbss          0x00851cfc       0x54 ../PepinoBoris_bsp/\libucosii_bsp.a(os_core.o)
                0x00851cfc                OSLockNesting
                0x00851cfd                OSRunning
                0x00851d00                OSIdleCtr
                0x00851d04                OSPrioHighRdy
                0x00851d05                OSPrioCur
                0x00851d08                OSTCBList
                0x00851d0c                OSTickStepState
                0x00851d10                OSCtxSwCtr
                0x00851d14                OSIdleCtrMax
                0x00851d18                OSTCBFreeList
                0x00851d1c                OSCPUUsage
                0x00851d1d                OSTaskCtr
                0x00851d20                OSMemFreeList
                0x00851d24                OSTCBHighRdy
                0x00851d28                OSQFreeList
                0x00851d2c                OSRdyGrp
                0x00851d30                OSRdyTbl
                0x00851d34                OSEventFreeList
                0x00851d38                OSIntNesting
                0x00851d3c                OSTCBCur
                0x00851d40                OSTime
                0x00851d44                OSFlagFreeList
                0x00851d48                OSStatRdy
                0x00851d4c                OSIdleCtrRun
 .sbss          0x00851d50       0x30 ../PepinoBoris_bsp/\libucosii_bsp.a(altera_up_sd_card_avalon_interface.o)
                0x00851d50                initialized
                0x00851d54                is_sd_card_formated_as_FAT16
                0x00851d58                aux_status_register
                0x00851d5c                status_register
                0x00851d60                CSD_register_w0
                0x00851d64                command_register
                0x00851d68                command_argument_register
                0x00851d6c                fat_partition_offset_in_512_byte_sectors
                0x00851d70                fat_partition_size_in_512_byte_sectors
                0x00851d74                device_pointer
                0x00851d78                current_sector_modified
                0x00851d7c                current_sector_index
 .sbss          0x00851d80        0xc ../PepinoBoris_bsp/\libucosii_bsp.a(ipnet.o)
                0x00851d80                MaxLnh
                0x00851d84                MaxMtu
                0x00851d88                NDEBUG
 .sbss          0x00851d8c        0x8 ../PepinoBoris_bsp/\libucosii_bsp.a(ipstart.o)
                0x00851d8c                ifNumber
 .sbss          0x00851d94       0x10 ../PepinoBoris_bsp/\libucosii_bsp.a(igmp_cmn.o)
                0x00851d94                igmp_timers_are_running
                0x00851d98                igmp_cticks
                0x00851d9c                igmp_all_hosts_group
                0x00851da0                igmp_all_rtrs_group
 .sbss          0x00851da4        0xe ../PepinoBoris_bsp/\libucosii_bsp.a(netmain.o)
                0x00851da4                netmain_wakes
                0x00851da8                nettick_wakes
                0x00851dac                iniche_net_ready
                0x00851db0                to_netmain
                0x00851db1                to_nettick
 *fill*         0x00851db2        0x2 00
 .sbss          0x00851db4        0x4 ../PepinoBoris_bsp/\libucosii_bsp.a(tk_crnos.o)
                0x00851db4                tcp_sleep_timeout
 .sbss          0x00851db8       0x34 ../PepinoBoris_bsp/\libucosii_bsp.a(dhcpclnt.o)
                0x00851db8                dhc_conn
                0x00851dbc                dsc_errors
                0x00851dc0                dsc_discovers
                0x00851dc4                dsc_offers
                0x00851dc8                dsc_requests
                0x00851dcc                dsc_acks
                0x00851dd0                dsc_bpreplys
                0x00851dd4                dsc_declines
                0x00851dd8                dsc_releases
                0x00851ddc                dsc_naks
                0x00851de0                dsc_renew
                0x00851de4                dsc_rebind
                0x00851de8                dsc_rlyerrs
 .sbss          0x00851dec        0x4 ../PepinoBoris_bsp/\libucosii_bsp.a(udp_open.o)
                0x00851dec                firstudp
 .sbss          0x00851df0       0x18 ../PepinoBoris_bsp/\libucosii_bsp.a(brdutils.o)
                0x00851df4                cticks_initialized
                0x00851df8                irq_level
                0x00851e00                cticks_factor
                0x00851e04                OS_TPS
 .sbss          0x00851e08       0x18 ../PepinoBoris_bsp/\libucosii_bsp.a(osportco.o)
                0x00851e08                tcp_sleep_count
                0x00851e0c                tcp_wakeup_count
                0x00851e10                netq_intmask
                0x00851e14                old_mode
                0x00851e18                global_TCPwakeup_setIndx
                0x00851e1c                cticks
 .sbss          0x00851e20        0xc ../PepinoBoris_bsp/\libucosii_bsp.a(targnios.o)
                0x00851e20                memtrapsize
                0x00851e24                mheap_sem_ptr
                0x00851e28                rcvdq_sem_ptr
 .sbss          0x00851e2c       0x12 ../PepinoBoris_bsp/\libucosii_bsp.a(nptcp.o)
                0x00851e2c                nextslow
                0x00851e34                mbstat
                0x00851e3c                select_wait
 *fill*         0x00851e3e        0x2 00
 .sbss          0x00851e40        0x8 ../PepinoBoris_bsp/\libucosii_bsp.a(tcp_in.o)
                0x00851e40                tcpprintfs
                0x00851e44                dropline
 .sbss          0x00851e48        0x4 ../PepinoBoris_bsp/\libucosii_bsp.a(tcp_out.o)
                0x00851e48                tcp_optionbuf
 .sbss          0x00851e4c        0x8 ../PepinoBoris_bsp/\libucosii_bsp.a(tcp_timr.o)
                0x00851e4c                tcp_maxidle
                0x00851e50                tcp_iss
 .sbss          0x00851e54        0x4 ../PepinoBoris_bsp/\libucosii_bsp.a(alt_dev.o)
                0x00851e54                alt_fd_list_lock
 .sbss          0x00851e58        0x8 ../PepinoBoris_bsp/\libucosii_bsp.a(alt_tick.o)
                0x00851e58                _alt_tick_rate
                0x00851e5c                _alt_nticks
 .sbss          0x00851e60        0x8 ../PepinoBoris_bsp/\libucosii_bsp.a(allports.o)
                0x00851e60                activehost
 .sbss          0x00851e68        0xc ../PepinoBoris_bsp/\libucosii_bsp.a(timeouts.o)
                0x00851e68                nextppp
                0x00851e6c                port_1s_callout
 .sbss          0x00851e74       0x1c ../PepinoBoris_bsp/\libucosii_bsp.a(et_arp.o)
                0x00851e78                arpcache
                0x00851e7c                arpReqsIn
                0x00851e80                arpReqsOut
                0x00851e84                arpRepsIn
                0x00851e88                arpRepsOut
 .sbss          0x00851e90        0x4 ../PepinoBoris_bsp/\libucosii_bsp.a(ip.o)
                0x00851e90                rt_mib
 .sbss          0x00851e94        0xc ../PepinoBoris_bsp/\libucosii_bsp.a(ip_reasm.o)
                0x00851e94                ipr_curr_mem
                0x00851e98                h_ireq
                0x00851e9c                ire_cticks
 .sbss          0x00851ea0       0x11 ../PepinoBoris_bsp/\libucosii_bsp.a(ipport.o)
                0x00851ea0                port_prep
                0x00851ea4                net_system_exit
                0x00851ea8                so_evtmap_create
                0x00851eac                so_evtmap_delete
                0x00851eb0                so_evtmap
 *fill*         0x00851eb1        0x3 00
 .sbss          0x00851eb4        0x4 ../PepinoBoris_bsp/\libucosii_bsp.a(ipraw.o)
                0x00851eb4                ipraw_eps
 .sbss          0x00851eb8        0x4 ../PepinoBoris_bsp/\libucosii_bsp.a(iproute.o)
                0x00851eb8                cachedRoute
 .sbss          0x00851ebc        0x2 ../PepinoBoris_bsp/\libucosii_bsp.a(udp.o)
 *fill*         0x00851ebe        0x2 00
 .sbss          0x00851ec0        0x8 ../PepinoBoris_bsp/\libucosii_bsp.a(in_pcb.o)
                0x00851ec0                inpcb_cachehits
                0x00851ec4                inpcb_cachemiss
 .sbss          0x00851ec8       0x20 ../PepinoBoris_bsp/\libucosii_bsp.a(vfsfiles.o)
                0x00851ec8                vfsystems
                0x00851ecc                vfiles
                0x00851ed0                vfsfiles
                0x00851ed4                vfopen_error
                0x00851ed8                vfs_dir_stale
                0x00851edc                vfs_open_files
                0x00851ee0                vfs_total_rw_space
                0x00851ee4                vfs_total_dyna_files
 .sbss          0x00851ee8        0x4 ../PepinoBoris_bsp/\libucosii_bsp.a(icmp.o)
                0x00851ee8                icmpdu_hook
 *(.sbss2 .sbss2.* .gnu.linkonce.sb2.*)
 *(.scommon)
                0x00851eec                PROVIDE (__sbss_end, ABSOLUTE (.))
                0x00851eec                PROVIDE (___sbss_end, ABSOLUTE (.))
 *(.dynbss)
 *(.bss .bss.* .gnu.linkonce.b.*)
 .bss           0x00851eec        0x0 ../PepinoBoris_bsp//obj/HAL/src/crt0.o
 .bss           0x00851eec        0x0 obj/default/VGA.o
 .bss           0x00851eec        0x0 obj/default/alt_error_handler.o
 .bss           0x00851eec        0x0 obj/default/dm9000a.o
 .bss           0x00851eec        0x0 obj/default/iniche_init.o
 .bss           0x00851eec        0x0 obj/default/led.o
 .bss           0x00851eec        0x0 obj/default/my_threads.o
 .bss           0x00851eec        0x0 obj/default/network_utilities.o
 .bss           0x00851eec        0x0 obj/default/sdcard/my_sdcard.o
 .bss           0x00851eec      0x5f0 obj/default/simple_socket_server.o
 .bss           0x008524dc        0x0 obj/default/tse_my_system.o
 .bss           0x008524dc        0x0 d:/altera/13.0/nios2eds/bin/gnu/h-i686-mingw32/bin/../lib/gcc/nios2-elf/4.1.2\libgcc.a(_fixunsdfsi.o)
 .bss           0x008524dc        0x0 d:/altera/13.0/nios2eds/bin/gnu/h-i686-mingw32/bin/../lib/gcc/nios2-elf/4.1.2\libgcc.a(_addsub_sf.o)
 .bss           0x008524dc        0x0 d:/altera/13.0/nios2eds/bin/gnu/h-i686-mingw32/bin/../lib/gcc/nios2-elf/4.1.2\libgcc.a(_mul_sf.o)
 .bss           0x008524dc        0x0 d:/altera/13.0/nios2eds/bin/gnu/h-i686-mingw32/bin/../lib/gcc/nios2-elf/4.1.2\libgcc.a(_div_sf.o)
 .bss           0x008524dc        0x0 d:/altera/13.0/nios2eds/bin/gnu/h-i686-mingw32/bin/../lib/gcc/nios2-elf/4.1.2\libgcc.a(_sf_to_si.o)
 .bss           0x008524dc        0x0 d:/altera/13.0/nios2eds/bin/gnu/h-i686-mingw32/bin/../lib/gcc/nios2-elf/4.1.2\libgcc.a(_thenan_sf.o)
 .bss           0x008524dc        0x0 d:/altera/13.0/nios2eds/bin/gnu/h-i686-mingw32/bin/../lib/gcc/nios2-elf/4.1.2\libgcc.a(_usi_to_sf.o)
 .bss           0x008524dc        0x0 d:/altera/13.0/nios2eds/bin/gnu/h-i686-mingw32/bin/../lib/gcc/nios2-elf/4.1.2\libgcc.a(_addsub_df.o)
 .bss           0x008524dc        0x0 d:/altera/13.0/nios2eds/bin/gnu/h-i686-mingw32/bin/../lib/gcc/nios2-elf/4.1.2\libgcc.a(_mul_df.o)
 .bss           0x008524dc        0x0 d:/altera/13.0/nios2eds/bin/gnu/h-i686-mingw32/bin/../lib/gcc/nios2-elf/4.1.2\libgcc.a(_ge_df.o)
 .bss           0x008524dc        0x0 d:/altera/13.0/nios2eds/bin/gnu/h-i686-mingw32/bin/../lib/gcc/nios2-elf/4.1.2\libgcc.a(_df_to_si.o)
 .bss           0x008524dc        0x0 d:/altera/13.0/nios2eds/bin/gnu/h-i686-mingw32/bin/../lib/gcc/nios2-elf/4.1.2\libgcc.a(_thenan_df.o)
 .bss           0x008524dc        0x0 d:/altera/13.0/nios2eds/bin/gnu/h-i686-mingw32/bin/../lib/gcc/nios2-elf/4.1.2\libgcc.a(_usi_to_df.o)
 .bss           0x008524dc        0x0 d:/altera/13.0/nios2eds/bin/gnu/h-i686-mingw32/bin/../lib/gcc/nios2-elf/4.1.2\libgcc.a(_muldi3.o)
 .bss           0x008524dc        0x0 d:/altera/13.0/nios2eds/bin/gnu/h-i686-mingw32/bin/../lib/gcc/nios2-elf/4.1.2\libgcc.a(_clzsi2.o)
 .bss           0x008524dc        0x0 d:/altera/13.0/nios2eds/bin/gnu/h-i686-mingw32/bin/../lib/gcc/nios2-elf/4.1.2\libgcc.a(_pack_sf.o)
 .bss           0x008524dc        0x0 d:/altera/13.0/nios2eds/bin/gnu/h-i686-mingw32/bin/../lib/gcc/nios2-elf/4.1.2\libgcc.a(_unpack_sf.o)
 .bss           0x008524dc        0x0 d:/altera/13.0/nios2eds/bin/gnu/h-i686-mingw32/bin/../lib/gcc/nios2-elf/4.1.2\libgcc.a(_pack_df.o)
 .bss           0x008524dc        0x0 d:/altera/13.0/nios2eds/bin/gnu/h-i686-mingw32/bin/../lib/gcc/nios2-elf/4.1.2\libgcc.a(_unpack_df.o)
 .bss           0x008524dc        0x0 d:/altera/13.0/nios2eds/bin/gnu/h-i686-mingw32/bin/../lib/gcc/nios2-elf/4.1.2\libgcc.a(_fpcmp_parts_df.o)
 .bss           0x008524dc        0x0 d:/altera/13.0/nios2eds/bin/gnu/h-i686-mingw32/bin/../lib/gcc/nios2-elf/4.1.2\libgcc.a(_clz.o)
 .bss           0x008524dc        0x0 d:/altera/13.0/nios2eds/bin/gnu/h-i686-mingw32/bin/../lib/gcc/nios2-elf/4.1.2/../../../../nios2-elf/lib\libc.a(lib_a-ctype_.o)
 .bss           0x008524dc        0x0 d:/altera/13.0/nios2eds/bin/gnu/h-i686-mingw32/bin/../lib/gcc/nios2-elf/4.1.2/../../../../nios2-elf/lib\libc.a(lib_a-fprintf.o)
 .bss           0x008524dc        0x0 d:/altera/13.0/nios2eds/bin/gnu/h-i686-mingw32/bin/../lib/gcc/nios2-elf/4.1.2/../../../../nios2-elf/lib\libc.a(lib_a-fwrite.o)
 .bss           0x008524dc        0x0 d:/altera/13.0/nios2eds/bin/gnu/h-i686-mingw32/bin/../lib/gcc/nios2-elf/4.1.2/../../../../nios2-elf/lib\libc.a(lib_a-getc.o)
 .bss           0x008524dc        0x0 d:/altera/13.0/nios2eds/bin/gnu/h-i686-mingw32/bin/../lib/gcc/nios2-elf/4.1.2/../../../../nios2-elf/lib\libc.a(lib_a-impure.o)
 .bss           0x008524dc        0x0 d:/altera/13.0/nios2eds/bin/gnu/h-i686-mingw32/bin/../lib/gcc/nios2-elf/4.1.2/../../../../nios2-elf/lib\libc.a(lib_a-memset.o)
 .bss           0x008524dc        0x0 d:/altera/13.0/nios2eds/bin/gnu/h-i686-mingw32/bin/../lib/gcc/nios2-elf/4.1.2/../../../../nios2-elf/lib\libc.a(lib_a-perror.o)
 .bss           0x008524dc        0x0 d:/altera/13.0/nios2eds/bin/gnu/h-i686-mingw32/bin/../lib/gcc/nios2-elf/4.1.2/../../../../nios2-elf/lib\libc.a(lib_a-printf.o)
 .bss           0x008524dc        0x0 d:/altera/13.0/nios2eds/bin/gnu/h-i686-mingw32/bin/../lib/gcc/nios2-elf/4.1.2/../../../../nios2-elf/lib\libc.a(lib_a-putc.o)
 .bss           0x008524dc        0x0 d:/altera/13.0/nios2eds/bin/gnu/h-i686-mingw32/bin/../lib/gcc/nios2-elf/4.1.2/../../../../nios2-elf/lib\libc.a(lib_a-putchar.o)
 .bss           0x008524dc        0x0 d:/altera/13.0/nios2eds/bin/gnu/h-i686-mingw32/bin/../lib/gcc/nios2-elf/4.1.2/../../../../nios2-elf/lib\libc.a(lib_a-puts.o)
 .bss           0x008524dc        0x0 d:/altera/13.0/nios2eds/bin/gnu/h-i686-mingw32/bin/../lib/gcc/nios2-elf/4.1.2/../../../../nios2-elf/lib\libc.a(lib_a-rget.o)
 .bss           0x008524dc        0x0 d:/altera/13.0/nios2eds/bin/gnu/h-i686-mingw32/bin/../lib/gcc/nios2-elf/4.1.2/../../../../nios2-elf/lib\libc.a(lib_a-strerror.o)
 .bss           0x008524dc        0x0 d:/altera/13.0/nios2eds/bin/gnu/h-i686-mingw32/bin/../lib/gcc/nios2-elf/4.1.2/../../../../nios2-elf/lib\libc.a(lib_a-strlen.o)
 .bss           0x008524dc        0x0 d:/altera/13.0/nios2eds/bin/gnu/h-i686-mingw32/bin/../lib/gcc/nios2-elf/4.1.2/../../../../nios2-elf/lib\libc.a(lib_a-u_strerr.o)
 .bss           0x008524dc        0x0 d:/altera/13.0/nios2eds/bin/gnu/h-i686-mingw32/bin/../lib/gcc/nios2-elf/4.1.2/../../../../nios2-elf/lib\libc.a(lib_a-vfprintf.o)
 .bss           0x008524dc        0x0 d:/altera/13.0/nios2eds/bin/gnu/h-i686-mingw32/bin/../lib/gcc/nios2-elf/4.1.2/../../../../nios2-elf/lib\libc.a(lib_a-wbuf.o)
 .bss           0x008524dc        0x0 d:/altera/13.0/nios2eds/bin/gnu/h-i686-mingw32/bin/../lib/gcc/nios2-elf/4.1.2/../../../../nios2-elf/lib\libc.a(lib_a-wsetup.o)
 .bss           0x008524dc        0x0 d:/altera/13.0/nios2eds/bin/gnu/h-i686-mingw32/bin/../lib/gcc/nios2-elf/4.1.2/../../../../nios2-elf/lib\libc.a(lib_a-dtoa.o)
 .bss           0x008524dc        0x0 d:/altera/13.0/nios2eds/bin/gnu/h-i686-mingw32/bin/../lib/gcc/nios2-elf/4.1.2/../../../../nios2-elf/lib\libc.a(lib_a-fflush.o)
 .bss           0x008524dc        0x0 d:/altera/13.0/nios2eds/bin/gnu/h-i686-mingw32/bin/../lib/gcc/nios2-elf/4.1.2/../../../../nios2-elf/lib\libc.a(lib_a-findfp.o)
 .bss           0x008524dc        0x0 d:/altera/13.0/nios2eds/bin/gnu/h-i686-mingw32/bin/../lib/gcc/nios2-elf/4.1.2/../../../../nios2-elf/lib\libc.a(lib_a-fputc.o)
 .bss           0x008524dc        0x0 d:/altera/13.0/nios2eds/bin/gnu/h-i686-mingw32/bin/../lib/gcc/nios2-elf/4.1.2/../../../../nios2-elf/lib\libc.a(lib_a-fputs.o)
 .bss           0x008524dc        0x0 d:/altera/13.0/nios2eds/bin/gnu/h-i686-mingw32/bin/../lib/gcc/nios2-elf/4.1.2/../../../../nios2-elf/lib\libc.a(lib_a-freer.o)
 .bss           0x008524dc        0x0 d:/altera/13.0/nios2eds/bin/gnu/h-i686-mingw32/bin/../lib/gcc/nios2-elf/4.1.2/../../../../nios2-elf/lib\libc.a(lib_a-fvwrite.o)
 .bss           0x008524dc        0x0 d:/altera/13.0/nios2eds/bin/gnu/h-i686-mingw32/bin/../lib/gcc/nios2-elf/4.1.2/../../../../nios2-elf/lib\libc.a(lib_a-fwalk.o)
 .bss           0x008524dc        0x0 d:/altera/13.0/nios2eds/bin/gnu/h-i686-mingw32/bin/../lib/gcc/nios2-elf/4.1.2/../../../../nios2-elf/lib\libc.a(lib_a-locale.o)
 .bss           0x008524dc        0x0 d:/altera/13.0/nios2eds/bin/gnu/h-i686-mingw32/bin/../lib/gcc/nios2-elf/4.1.2/../../../../nios2-elf/lib\libc.a(lib_a-makebuf.o)
 .bss           0x008524dc       0x28 d:/altera/13.0/nios2eds/bin/gnu/h-i686-mingw32/bin/../lib/gcc/nios2-elf/4.1.2/../../../../nios2-elf/lib\libc.a(lib_a-mallocr.o)
                0x008524dc                __malloc_current_mallinfo
 .bss           0x00852504        0x0 d:/altera/13.0/nios2eds/bin/gnu/h-i686-mingw32/bin/../lib/gcc/nios2-elf/4.1.2/../../../../nios2-elf/lib\libc.a(lib_a-memchr.o)
 .bss           0x00852504        0x0 d:/altera/13.0/nios2eds/bin/gnu/h-i686-mingw32/bin/../lib/gcc/nios2-elf/4.1.2/../../../../nios2-elf/lib\libc.a(lib_a-memcpy.o)
 .bss           0x00852504        0x0 d:/altera/13.0/nios2eds/bin/gnu/h-i686-mingw32/bin/../lib/gcc/nios2-elf/4.1.2/../../../../nios2-elf/lib\libc.a(lib_a-memmove.o)
 .bss           0x00852504        0x0 d:/altera/13.0/nios2eds/bin/gnu/h-i686-mingw32/bin/../lib/gcc/nios2-elf/4.1.2/../../../../nios2-elf/lib\libc.a(lib_a-mprec.o)
 .bss           0x00852504        0x0 d:/altera/13.0/nios2eds/bin/gnu/h-i686-mingw32/bin/../lib/gcc/nios2-elf/4.1.2/../../../../nios2-elf/lib\libc.a(lib_a-reallocr.o)
 .bss           0x00852504        0x0 d:/altera/13.0/nios2eds/bin/gnu/h-i686-mingw32/bin/../lib/gcc/nios2-elf/4.1.2/../../../../nios2-elf/lib\libc.a(lib_a-refill.o)
 .bss           0x00852504        0x0 d:/altera/13.0/nios2eds/bin/gnu/h-i686-mingw32/bin/../lib/gcc/nios2-elf/4.1.2/../../../../nios2-elf/lib\libc.a(lib_a-s_isinfd.o)
 .bss           0x00852504        0x0 d:/altera/13.0/nios2eds/bin/gnu/h-i686-mingw32/bin/../lib/gcc/nios2-elf/4.1.2/../../../../nios2-elf/lib\libc.a(lib_a-s_isnand.o)
 .bss           0x00852504        0x0 d:/altera/13.0/nios2eds/bin/gnu/h-i686-mingw32/bin/../lib/gcc/nios2-elf/4.1.2/../../../../nios2-elf/lib\libc.a(lib_a-sbrkr.o)
 .bss           0x00852504        0x0 d:/altera/13.0/nios2eds/bin/gnu/h-i686-mingw32/bin/../lib/gcc/nios2-elf/4.1.2/../../../../nios2-elf/lib\libc.a(lib_a-stdio.o)
 .bss           0x00852504        0x0 d:/altera/13.0/nios2eds/bin/gnu/h-i686-mingw32/bin/../lib/gcc/nios2-elf/4.1.2/../../../../nios2-elf/lib\libc.a(lib_a-strcmp.o)
 .bss           0x00852504        0x0 d:/altera/13.0/nios2eds/bin/gnu/h-i686-mingw32/bin/../lib/gcc/nios2-elf/4.1.2/../../../../nios2-elf/lib\libc.a(lib_a-writer.o)
 .bss           0x00852504        0x0 d:/altera/13.0/nios2eds/bin/gnu/h-i686-mingw32/bin/../lib/gcc/nios2-elf/4.1.2/../../../../nios2-elf/lib\libc.a(lib_a-callocr.o)
 .bss           0x00852504        0x0 d:/altera/13.0/nios2eds/bin/gnu/h-i686-mingw32/bin/../lib/gcc/nios2-elf/4.1.2/../../../../nios2-elf/lib\libc.a(lib_a-closer.o)
 .bss           0x00852504        0x0 d:/altera/13.0/nios2eds/bin/gnu/h-i686-mingw32/bin/../lib/gcc/nios2-elf/4.1.2/../../../../nios2-elf/lib\libc.a(lib_a-fclose.o)
 .bss           0x00852504        0x0 d:/altera/13.0/nios2eds/bin/gnu/h-i686-mingw32/bin/../lib/gcc/nios2-elf/4.1.2/../../../../nios2-elf/lib\libc.a(lib_a-fstatr.o)
 .bss           0x00852504        0x0 d:/altera/13.0/nios2eds/bin/gnu/h-i686-mingw32/bin/../lib/gcc/nios2-elf/4.1.2/../../../../nios2-elf/lib\libc.a(lib_a-int_errno.o)
 .bss           0x00852504        0x0 d:/altera/13.0/nios2eds/bin/gnu/h-i686-mingw32/bin/../lib/gcc/nios2-elf/4.1.2/../../../../nios2-elf/lib\libc.a(lib_a-isattyr.o)
 .bss           0x00852504        0x0 d:/altera/13.0/nios2eds/bin/gnu/h-i686-mingw32/bin/../lib/gcc/nios2-elf/4.1.2/../../../../nios2-elf/lib\libc.a(lib_a-lseekr.o)
 .bss           0x00852504        0x0 d:/altera/13.0/nios2eds/bin/gnu/h-i686-mingw32/bin/../lib/gcc/nios2-elf/4.1.2/../../../../nios2-elf/lib\libc.a(lib_a-readr.o)
 .bss           0x00852504        0x0 d:/altera/13.0/nios2eds/bin/gnu/h-i686-mingw32/bin/../lib/gcc/nios2-elf/4.1.2\libgcc.a(_udivdi3.o)
 .bss           0x00852504        0x0 d:/altera/13.0/nios2eds/bin/gnu/h-i686-mingw32/bin/../lib/gcc/nios2-elf/4.1.2\libgcc.a(_umoddi3.o)
 .bss           0x00852504        0x0 d:/altera/13.0/nios2eds/bin/gnu/h-i686-mingw32/bin/../lib/gcc/nios2-elf/4.1.2\libgcc.a(_div_df.o)
 .bss           0x00852504        0x0 d:/altera/13.0/nios2eds/bin/gnu/h-i686-mingw32/bin/../lib/gcc/nios2-elf/4.1.2\libgcc.a(_eq_df.o)
 .bss           0x00852504        0x0 d:/altera/13.0/nios2eds/bin/gnu/h-i686-mingw32/bin/../lib/gcc/nios2-elf/4.1.2\libgcc.a(_ne_df.o)
 .bss           0x00852504        0x0 d:/altera/13.0/nios2eds/bin/gnu/h-i686-mingw32/bin/../lib/gcc/nios2-elf/4.1.2\libgcc.a(_gt_df.o)
 .bss           0x00852504        0x0 d:/altera/13.0/nios2eds/bin/gnu/h-i686-mingw32/bin/../lib/gcc/nios2-elf/4.1.2\libgcc.a(_lt_df.o)
 .bss           0x00852504        0x0 d:/altera/13.0/nios2eds/bin/gnu/h-i686-mingw32/bin/../lib/gcc/nios2-elf/4.1.2\libgcc.a(_si_to_df.o)
 .bss           0x00852504        0x0 d:/altera/13.0/nios2eds/bin/gnu/h-i686-mingw32/bin/../lib/gcc/nios2-elf/4.1.2\libgcc.a(lib2-divmod.o)
 .bss           0x00852504        0x0 ../PepinoBoris_bsp/\libucosii_bsp.a(alt_flash_dev.o)
 .bss           0x00852504        0x0 ../PepinoBoris_bsp/\libucosii_bsp.a(alt_fstat.o)
 .bss           0x00852504        0x0 ../PepinoBoris_bsp/\libucosii_bsp.a(alt_irq_register.o)
 .bss           0x00852504        0x0 ../PepinoBoris_bsp/\libucosii_bsp.a(alt_irq_vars.o)
 .bss           0x00852504        0x0 ../PepinoBoris_bsp/\libucosii_bsp.a(alt_isatty.o)
 .bss           0x00852504        0x0 ../PepinoBoris_bsp/\libucosii_bsp.a(alt_lseek.o)
 .bss           0x00852504        0x0 ../PepinoBoris_bsp/\libucosii_bsp.a(alt_main.o)
 .bss           0x00852504        0x0 ../PepinoBoris_bsp/\libucosii_bsp.a(alt_sbrk.o)
 .bss           0x00852504        0x0 ../PepinoBoris_bsp/\libucosii_bsp.a(alt_usleep.o)
 .bss           0x00852504        0x0 ../PepinoBoris_bsp/\libucosii_bsp.a(alt_env_lock.o)
 .bss           0x00852504        0x0 ../PepinoBoris_bsp/\libucosii_bsp.a(alt_malloc_lock.o)
 .bss           0x00852504        0x0 ../PepinoBoris_bsp/\libucosii_bsp.a(os_core.o)
 .bss           0x00852504        0x0 ../PepinoBoris_bsp/\libucosii_bsp.a(os_dbg.o)
 .bss           0x00852504        0x0 ../PepinoBoris_bsp/\libucosii_bsp.a(os_flag.o)
 .bss           0x00852504        0x0 ../PepinoBoris_bsp/\libucosii_bsp.a(os_mem.o)
 .bss           0x00852504        0x0 ../PepinoBoris_bsp/\libucosii_bsp.a(os_q.o)
 .bss           0x00852504        0x0 ../PepinoBoris_bsp/\libucosii_bsp.a(os_sem.o)
 .bss           0x00852504        0x0 ../PepinoBoris_bsp/\libucosii_bsp.a(os_task.o)
 .bss           0x00852504        0x0 ../PepinoBoris_bsp/\libucosii_bsp.a(os_time.o)
 .bss           0x00852504        0x0 ../PepinoBoris_bsp/\libucosii_bsp.a(alt_sys_init.o)
 .bss           0x00852504        0x0 ../PepinoBoris_bsp/\libucosii_bsp.a(altera_avalon_cfi_flash.o)
 .bss           0x00852504        0x0 ../PepinoBoris_bsp/\libucosii_bsp.a(altera_avalon_cfi_flash_table.o)
 .bss           0x00852504        0x0 ../PepinoBoris_bsp/\libucosii_bsp.a(altera_avalon_epcs_flash_controller.o)
 .bss           0x00852504        0x0 ../PepinoBoris_bsp/\libucosii_bsp.a(altera_avalon_jtag_uart_fd.o)
 .bss           0x00852504        0x0 ../PepinoBoris_bsp/\libucosii_bsp.a(altera_avalon_jtag_uart_init.o)
 .bss           0x00852504        0x0 ../PepinoBoris_bsp/\libucosii_bsp.a(altera_avalon_jtag_uart_ioctl.o)
 .bss           0x00852504        0x0 ../PepinoBoris_bsp/\libucosii_bsp.a(altera_avalon_jtag_uart_read.o)
 .bss           0x00852504        0x0 ../PepinoBoris_bsp/\libucosii_bsp.a(altera_avalon_jtag_uart_write.o)
 .bss           0x00852504        0x0 ../PepinoBoris_bsp/\libucosii_bsp.a(altera_avalon_lcd_16207.o)
 .bss           0x00852504        0x0 ../PepinoBoris_bsp/\libucosii_bsp.a(altera_avalon_lcd_16207_fd.o)
 .bss           0x00852504        0x0 ../PepinoBoris_bsp/\libucosii_bsp.a(altera_avalon_timer_sc.o)
 .bss           0x00852504        0x0 ../PepinoBoris_bsp/\libucosii_bsp.a(altera_avalon_uart_fd.o)
 .bss           0x00852504        0x0 ../PepinoBoris_bsp/\libucosii_bsp.a(altera_avalon_uart_init.o)
 .bss           0x00852504        0x0 ../PepinoBoris_bsp/\libucosii_bsp.a(altera_avalon_uart_read.o)
 .bss           0x00852504        0x0 ../PepinoBoris_bsp/\libucosii_bsp.a(altera_avalon_uart_write.o)
 .bss           0x00852504        0x0 ../PepinoBoris_bsp/\libucosii_bsp.a(altera_up_sd_card_avalon_interface.o)
 .bss           0x00852504        0x0 ../PepinoBoris_bsp/\libucosii_bsp.a(epcs_commands.o)
 .bss           0x00852504        0x0 ../PepinoBoris_bsp/\libucosii_bsp.a(alt_iniche_close.o)
 .bss           0x00852504        0x0 ../PepinoBoris_bsp/\libucosii_bsp.a(alt_iniche_dev.o)
 .bss           0x00852504        0x0 ../PepinoBoris_bsp/\libucosii_bsp.a(alt_iniche_read.o)
 .bss           0x00852504        0x0 ../PepinoBoris_bsp/\libucosii_bsp.a(alt_iniche_write.o)
 .bss           0x00852504        0x0 ../PepinoBoris_bsp/\libucosii_bsp.a(ipnet.o)
 .bss           0x00852504       0x3c ../PepinoBoris_bsp/\libucosii_bsp.a(ipstart.o)
 .bss           0x00852540        0x0 ../PepinoBoris_bsp/\libucosii_bsp.a(igmp_cmn.o)
 .bss           0x00852540        0x0 ../PepinoBoris_bsp/\libucosii_bsp.a(bsdsock.o)
 .bss           0x00852540        0x0 ../PepinoBoris_bsp/\libucosii_bsp.a(cksum.o)
 .bss           0x00852540       0x18 ../PepinoBoris_bsp/\libucosii_bsp.a(in_utils.o)
 .bss           0x00852558        0x0 ../PepinoBoris_bsp/\libucosii_bsp.a(netmain.o)
 .bss           0x00852558        0x0 ../PepinoBoris_bsp/\libucosii_bsp.a(tk_crnos.o)
 .bss           0x00852558        0x0 ../PepinoBoris_bsp/\libucosii_bsp.a(dhcpclnt.o)
 .bss           0x00852558        0x0 ../PepinoBoris_bsp/\libucosii_bsp.a(dhcputil.o)
 .bss           0x00852558        0x0 ../PepinoBoris_bsp/\libucosii_bsp.a(pktalloc.o)
 .bss           0x00852558        0x0 ../PepinoBoris_bsp/\libucosii_bsp.a(q.o)
 .bss           0x00852558        0x0 ../PepinoBoris_bsp/\libucosii_bsp.a(udp_open.o)
 .bss           0x00852558        0x0 ../PepinoBoris_bsp/\libucosii_bsp.a(asm_cksum.o)
 .bss           0x00852558        0x0 ../PepinoBoris_bsp/\libucosii_bsp.a(brdutils.o)
 .bss           0x00852558        0x0 ../PepinoBoris_bsp/\libucosii_bsp.a(osportco.o)
 .bss           0x00852558        0x0 ../PepinoBoris_bsp/\libucosii_bsp.a(targnios.o)
 .bss           0x00852558        0x0 ../PepinoBoris_bsp/\libucosii_bsp.a(nptcp.o)
 .bss           0x00852558        0x0 ../PepinoBoris_bsp/\libucosii_bsp.a(rawsock.o)
 .bss           0x00852558        0x0 ../PepinoBoris_bsp/\libucosii_bsp.a(sockcall.o)
 .bss           0x00852558        0x0 ../PepinoBoris_bsp/\libucosii_bsp.a(socket.o)
 .bss           0x00852558        0x0 ../PepinoBoris_bsp/\libucosii_bsp.a(socket2.o)
 .bss           0x00852558        0x0 ../PepinoBoris_bsp/\libucosii_bsp.a(soselect.o)
 .bss           0x00852558        0x0 ../PepinoBoris_bsp/\libucosii_bsp.a(tcp_in.o)
 .bss           0x00852558        0x0 ../PepinoBoris_bsp/\libucosii_bsp.a(tcp_out.o)
 .bss           0x00852558        0x0 ../PepinoBoris_bsp/\libucosii_bsp.a(tcp_subr.o)
 .bss           0x00852558        0x0 ../PepinoBoris_bsp/\libucosii_bsp.a(tcp_timr.o)
 .bss           0x00852558        0x0 ../PepinoBoris_bsp/\libucosii_bsp.a(tcp_usr.o)
 .bss           0x00852558        0x0 ../PepinoBoris_bsp/\libucosii_bsp.a(tcpport.o)
 .bss           0x00852558        0x0 ../PepinoBoris_bsp/\libucosii_bsp.a(udpsock.o)
 .bss           0x00852558        0x0 ../PepinoBoris_bsp/\libucosii_bsp.a(alt_alarm_start.o)
 .bss           0x00852558        0x0 ../PepinoBoris_bsp/\libucosii_bsp.a(alt_busy_sleep.o)
 .bss           0x00852558        0x0 ../PepinoBoris_bsp/\libucosii_bsp.a(alt_close.o)
 .bss           0x00852558        0x0 ../PepinoBoris_bsp/\libucosii_bsp.a(alt_dcache_flush.o)
 .bss           0x00852558        0x0 ../PepinoBoris_bsp/\libucosii_bsp.a(alt_dev.o)
 .bss           0x00852558        0x0 ../PepinoBoris_bsp/\libucosii_bsp.a(alt_dev_llist_insert.o)
 .bss           0x00852558        0x0 ../PepinoBoris_bsp/\libucosii_bsp.a(alt_do_ctors.o)
 .bss           0x00852558        0x0 ../PepinoBoris_bsp/\libucosii_bsp.a(alt_do_dtors.o)
 .bss           0x00852558        0x0 ../PepinoBoris_bsp/\libucosii_bsp.a(alt_errno.o)
 .bss           0x00852558        0x0 ../PepinoBoris_bsp/\libucosii_bsp.a(alt_find_dev.o)
 .bss           0x00852558        0x0 ../PepinoBoris_bsp/\libucosii_bsp.a(alt_iic.o)
 .bss           0x00852558        0x0 ../PepinoBoris_bsp/\libucosii_bsp.a(alt_iic_isr_register.o)
 .bss           0x00852558        0x0 ../PepinoBoris_bsp/\libucosii_bsp.a(alt_io_redirect.o)
 .bss           0x00852558        0x0 ../PepinoBoris_bsp/\libucosii_bsp.a(alt_irq_entry.o)
 .bss           0x00852558        0x0 ../PepinoBoris_bsp/\libucosii_bsp.a(alt_irq_handler.o)
 .bss           0x00852558        0x0 ../PepinoBoris_bsp/\libucosii_bsp.a(alt_open.o)
 .bss           0x00852558        0x0 ../PepinoBoris_bsp/\libucosii_bsp.a(alt_read.o)
 .bss           0x00852558        0x0 ../PepinoBoris_bsp/\libucosii_bsp.a(alt_release_fd.o)
 .bss           0x00852558        0x0 ../PepinoBoris_bsp/\libucosii_bsp.a(alt_remap_cached.o)
 .bss           0x00852558        0x0 ../PepinoBoris_bsp/\libucosii_bsp.a(alt_remap_uncached.o)
 .bss           0x00852558        0x0 ../PepinoBoris_bsp/\libucosii_bsp.a(alt_tick.o)
 .bss           0x00852558        0x0 ../PepinoBoris_bsp/\libucosii_bsp.a(alt_write.o)
 .bss           0x00852558        0x0 ../PepinoBoris_bsp/\libucosii_bsp.a(altera_nios2_qsys_irq.o)
 .bss           0x00852558        0x0 ../PepinoBoris_bsp/\libucosii_bsp.a(os_cpu_a.o)
 .bss           0x00852558        0x0 ../PepinoBoris_bsp/\libucosii_bsp.a(os_cpu_c.o)
 .bss           0x00852558        0x0 ../PepinoBoris_bsp/\libucosii_bsp.a(altera_avalon_cfi_flash_amd.o)
 .bss           0x00852558        0x0 ../PepinoBoris_bsp/\libucosii_bsp.a(altera_avalon_cfi_flash_intel.o)
 .bss           0x00852558        0x0 ../PepinoBoris_bsp/\libucosii_bsp.a(altera_avalon_spi.o)
 .bss           0x00852558        0x0 ../PepinoBoris_bsp/\libucosii_bsp.a(allports.o)
 .bss           0x00852558        0x0 ../PepinoBoris_bsp/\libucosii_bsp.a(timeouts.o)
 .bss           0x00852558        0x0 ../PepinoBoris_bsp/\libucosii_bsp.a(tk_misc.o)
 .bss           0x00852558        0x0 ../PepinoBoris_bsp/\libucosii_bsp.a(alt_iniche_fcntl.o)
 .bss           0x00852558        0x0 ../PepinoBoris_bsp/\libucosii_bsp.a(et_arp.o)
 .bss           0x00852558        0x0 ../PepinoBoris_bsp/\libucosii_bsp.a(iface.o)
 .bss           0x00852558        0x0 ../PepinoBoris_bsp/\libucosii_bsp.a(ip.o)
 .bss           0x00852558        0x0 ../PepinoBoris_bsp/\libucosii_bsp.a(ip_reasm.o)
 .bss           0x00852558        0x0 ../PepinoBoris_bsp/\libucosii_bsp.a(ipdemux.o)
 .bss           0x00852558        0x0 ../PepinoBoris_bsp/\libucosii_bsp.a(ipmc.o)
 .bss           0x00852558        0x0 ../PepinoBoris_bsp/\libucosii_bsp.a(ipport.o)
 .bss           0x00852558        0x0 ../PepinoBoris_bsp/\libucosii_bsp.a(ipraw.o)
 .bss           0x00852558        0x0 ../PepinoBoris_bsp/\libucosii_bsp.a(iproute.o)
 .bss           0x00852558        0x0 ../PepinoBoris_bsp/\libucosii_bsp.a(udp.o)
 .bss           0x00852558        0x0 ../PepinoBoris_bsp/\libucosii_bsp.a(igmp.o)
 .bss           0x00852558        0x0 ../PepinoBoris_bsp/\libucosii_bsp.a(igmp2.o)
 .bss           0x00852558        0x0 ../PepinoBoris_bsp/\libucosii_bsp.a(ipopt.o)
 .bss           0x00852558        0x0 ../PepinoBoris_bsp/\libucosii_bsp.a(u_mctest.o)
 .bss           0x00852558        0x0 ../PepinoBoris_bsp/\libucosii_bsp.a(dhcsetup.o)
 .bss           0x00852558        0x0 ../PepinoBoris_bsp/\libucosii_bsp.a(memdev.o)
 .bss           0x00852558       0x20 ../PepinoBoris_bsp/\libucosii_bsp.a(parseip.o)
 .bss           0x00852578        0x0 ../PepinoBoris_bsp/\libucosii_bsp.a(tcpcksum.o)
 .bss           0x00852578        0x0 ../PepinoBoris_bsp/\libucosii_bsp.a(in_pcb.o)
 .bss           0x00852578        0x0 ../PepinoBoris_bsp/\libucosii_bsp.a(vfsfiles.o)
 .bss           0x00852578        0x0 ../PepinoBoris_bsp/\libucosii_bsp.a(vfsport.o)
 .bss           0x00852578        0x0 ../PepinoBoris_bsp/\libucosii_bsp.a(alt_exception_entry.o)
 .bss           0x00852578        0x0 ../PepinoBoris_bsp/\libucosii_bsp.a(alt_fcntl.o)
 .bss           0x00852578        0x0 ../PepinoBoris_bsp/\libucosii_bsp.a(alt_find_file.o)
 .bss           0x00852578        0x0 ../PepinoBoris_bsp/\libucosii_bsp.a(alt_get_fd.o)
 .bss           0x00852578        0x0 ../PepinoBoris_bsp/\libucosii_bsp.a(icmp.o)
 .bss           0x00852578        0x0 d:/altera/13.0/nios2eds/bin/gnu/h-i686-mingw32/bin/../lib/gcc/nios2-elf/4.1.2/../../../../nios2-elf/lib\libc.a(lib_a-atexit.o)
 .bss           0x00852578        0x0 d:/altera/13.0/nios2eds/bin/gnu/h-i686-mingw32/bin/../lib/gcc/nios2-elf/4.1.2/../../../../nios2-elf/lib\libc.a(lib_a-atoi.o)
 .bss           0x00852578        0x0 d:/altera/13.0/nios2eds/bin/gnu/h-i686-mingw32/bin/../lib/gcc/nios2-elf/4.1.2/../../../../nios2-elf/lib\libc.a(lib_a-calloc.o)
 .bss           0x00852578        0x0 d:/altera/13.0/nios2eds/bin/gnu/h-i686-mingw32/bin/../lib/gcc/nios2-elf/4.1.2/../../../../nios2-elf/lib\libc.a(lib_a-exit.o)
 .bss           0x00852578        0x0 d:/altera/13.0/nios2eds/bin/gnu/h-i686-mingw32/bin/../lib/gcc/nios2-elf/4.1.2/../../../../nios2-elf/lib\libc.a(lib_a-malloc.o)
 .bss           0x00852578        0x0 d:/altera/13.0/nios2eds/bin/gnu/h-i686-mingw32/bin/../lib/gcc/nios2-elf/4.1.2/../../../../nios2-elf/lib\libc.a(lib_a-memcmp.o)
 .bss           0x00852578        0x0 d:/altera/13.0/nios2eds/bin/gnu/h-i686-mingw32/bin/../lib/gcc/nios2-elf/4.1.2/../../../../nios2-elf/lib\libc.a(lib_a-sprintf.o)
 .bss           0x00852578        0x0 d:/altera/13.0/nios2eds/bin/gnu/h-i686-mingw32/bin/../lib/gcc/nios2-elf/4.1.2/../../../../nios2-elf/lib\libc.a(lib_a-strchr.o)
 .bss           0x00852578        0x0 d:/altera/13.0/nios2eds/bin/gnu/h-i686-mingw32/bin/../lib/gcc/nios2-elf/4.1.2/../../../../nios2-elf/lib\libc.a(lib_a-strcpy.o)
 .bss           0x00852578        0x0 d:/altera/13.0/nios2eds/bin/gnu/h-i686-mingw32/bin/../lib/gcc/nios2-elf/4.1.2/../../../../nios2-elf/lib\libc.a(lib_a-strncmp.o)
 .bss           0x00852578        0x0 d:/altera/13.0/nios2eds/bin/gnu/h-i686-mingw32/bin/../lib/gcc/nios2-elf/4.1.2/../../../../nios2-elf/lib\libc.a(lib_a-strncpy.o)
 .bss           0x00852578        0x0 d:/altera/13.0/nios2eds/bin/gnu/h-i686-mingw32/bin/../lib/gcc/nios2-elf/4.1.2/../../../../nios2-elf/lib\libc.a(lib_a-strtol.o)
 .bss           0x00852578        0x0 d:/altera/13.0/nios2eds/bin/gnu/h-i686-mingw32/bin/../lib/gcc/nios2-elf/4.1.2/../../../../nios2-elf/lib\libc.a(lib_a-vprintf.o)
 .bss           0x00852578        0x0 d:/altera/13.0/nios2eds/bin/gnu/h-i686-mingw32/bin/../lib/gcc/nios2-elf/4.1.2/../../../../nios2-elf/lib\libc.a(lib_a-vsprintf.o)
 .bss           0x00852578        0x0 d:/altera/13.0/nios2eds/bin/gnu/h-i686-mingw32/bin/../lib/gcc/nios2-elf/4.1.2/../../../../nios2-elf/lib\libc.a(lib_a-__atexit.o)
 .bss           0x00852578        0x0 d:/altera/13.0/nios2eds/bin/gnu/h-i686-mingw32/bin/../lib/gcc/nios2-elf/4.1.2/../../../../nios2-elf/lib\libc.a(lib_a-__call_atexit.o)
 .bss           0x00852578        0x0 ../PepinoBoris_bsp/\libucosii_bsp.a(alt_exit.o)
 *(COMMON)
 COMMON         0x00852578       0x44 obj/default/dm9000a.o
                0x00852578                g_dm9ka
 COMMON         0x008525bc     0x2000 obj/default/iniche_init.o
                0x008525bc                SSSInitialTaskStk
 COMMON         0x008545bc      0x600 obj/default/sdcard/my_sdcard.o
                0x008545bc                bloco102
                0x008547bc                bloco101
                0x008549bc                bloco103
 COMMON         0x00854bbc     0x8208 obj/default/simple_socket_server.o
                0x00854bbc                VGACommandQTbl
                0x00854d4c                DisplayReadButtonsTaskStk
                0x00856d4c                LED7SegLightshowTaskStk
                0x00858d4c                SSSLEDCommandQTbl
                0x00858dc4                DisplayUpdateVGATaskStk
                0x0085adc4                LEDManagementTaskStk
 COMMON         0x0085cdc4     0x3224 ../PepinoBoris_bsp/\libucosii_bsp.a(os_core.o)
                0x0085cdc4                OSFlagTbl
                0x0085d134                OSMemTbl
                0x0085dd64                OSTaskStatStk
                0x0085e564                OSQTbl
                0x0085e744                OSTaskIdleStk
                0x0085ef44                OSEventTbl
                0x0085fa84                OSTCBTbl
                0x0085ff94                OSTCBPrioTbl
 COMMON         0x0085ffe8      0x568 ../PepinoBoris_bsp/\libucosii_bsp.a(altera_up_sd_card_avalon_interface.o)
                0x0085ffe8                search_data
                0x0085fffc                boot_sector_data
                0x00860050                active_files
 COMMON         0x00860550       0x14 ../PepinoBoris_bsp/\libucosii_bsp.a(ipnet.o)
                0x00860550                rcvdq
 COMMON         0x00860564      0x310 ../PepinoBoris_bsp/\libucosii_bsp.a(ipstart.o)
                0x00860564                netstatic
                0x00860864                nets
 COMMON         0x00860874       0x64 ../PepinoBoris_bsp/\libucosii_bsp.a(igmp_cmn.o)
                0x00860874                igmpstats
 COMMON         0x008608d8       0x26 ../PepinoBoris_bsp/\libucosii_bsp.a(in_utils.o)
                0x008608d8                eth_prt_buf
                0x008608ec                ipreturn
 *fill*         0x008608fe        0x2 00
 COMMON         0x00860900       0xf0 ../PepinoBoris_bsp/\libucosii_bsp.a(dhcpclnt.o)
                0x00860900                dhc_states
 COMMON         0x008609f0      0x128 ../PepinoBoris_bsp/\libucosii_bsp.a(pktalloc.o)
                0x008609f0                lilfreeq
                0x00860a04                memestats
                0x00860a14                pktlog
                0x00860b04                bigfreeq
 COMMON         0x00860b18      0x1ec ../PepinoBoris_bsp/\libucosii_bsp.a(osportco.o)
                0x00860b18                global_tcb_ext
                0x00860c14                global_TCPwakeup_set
 COMMON         0x00860d04       0x58 ../PepinoBoris_bsp/\libucosii_bsp.a(targnios.o)
                0x00860d04                resid_semaphore
                0x00860d44                app_semaphore
 COMMON         0x00860d5c       0x78 ../PepinoBoris_bsp/\libucosii_bsp.a(nptcp.o)
                0x00860d5c                soq
                0x00860d70                tcpmib
                0x00860dac                mbufq
                0x00860dc0                mfreeq
 COMMON         0x00860dd4       0x28 ../PepinoBoris_bsp/\libucosii_bsp.a(tcp_in.o)
                0x00860dd4                tcp_saveti
 COMMON         0x00860dfc      0x10c ../PepinoBoris_bsp/\libucosii_bsp.a(tcp_subr.o)
                0x00860dfc                tcb
                0x00860e28                tcpstat
 COMMON         0x00860f08      0x100 ../PepinoBoris_bsp/\libucosii_bsp.a(alt_irq_handler.o)
                0x00860f08                alt_irq
 COMMON         0x00861008       0x64 ../PepinoBoris_bsp/\libucosii_bsp.a(timeouts.o)
                0x00861008                intimers
 COMMON         0x0086106c      0x100 ../PepinoBoris_bsp/\libucosii_bsp.a(et_arp.o)
                0x0086106c                arp_table
 COMMON         0x0086116c       0x14 ../PepinoBoris_bsp/\libucosii_bsp.a(iface.o)
                0x0086116c                netlist
 COMMON         0x00861180       0x50 ../PepinoBoris_bsp/\libucosii_bsp.a(ip.o)
                0x00861180                ip_mib
 COMMON         0x008611d0       0x18 ../PepinoBoris_bsp/\libucosii_bsp.a(ip_reasm.o)
                0x008611d0                ire_stats
 COMMON         0x008611e8       0x10 ../PepinoBoris_bsp/\libucosii_bsp.a(udp.o)
                0x008611e8                udp_mib
 COMMON         0x008611f8       0x68 ../PepinoBoris_bsp/\libucosii_bsp.a(icmp.o)
                0x008611f8                icmp_mib
 COMMON         0x00861260      0x190 d:/altera/13.0/nios2eds/bin/gnu/h-i686-mingw32/bin/../lib/gcc/nios2-elf/4.1.2/../../../../nios2-elf/lib\libc.a(lib_a-atexit.o)
                0x00861260                _atexit0
                0x008613f0                . = ALIGN (0x4)
                0x008613f0                __bss_end = ABSOLUTE (.)

.sdram_0        0x008613f0        0x0
                0x008613f0                PROVIDE (_alt_partition_sdram_0_start, ABSOLUTE (.))
 *(.sdram_0. sdram_0.*)
                0x008613f0                . = ALIGN (0x4)
                0x008613f0                PROVIDE (_alt_partition_sdram_0_end, ABSOLUTE (.))
                0x008613f0                _end = ABSOLUTE (.)
                0x008613f0                end = ABSOLUTE (.)
                0x008613f0                __alt_stack_base = ABSOLUTE (.)
                0x008613f0                PROVIDE (_alt_partition_sdram_0_load_addr, LOADADDR (.sdram_0))

.cfi_flash_0    0x01400020        0x0
                0x01400020                PROVIDE (_alt_partition_cfi_flash_0_start, ABSOLUTE (.))
 *(.cfi_flash_0. cfi_flash_0.*)
                0x01400020                . = ALIGN (0x4)
                0x01400020                PROVIDE (_alt_partition_cfi_flash_0_end, ABSOLUTE (.))
                0x01400020                PROVIDE (_alt_partition_cfi_flash_0_load_addr, LOADADDR (.cfi_flash_0))

.sram_0         0x01a00000        0x0
                0x01a00000                PROVIDE (_alt_partition_sram_0_start, ABSOLUTE (.))
 *(.sram_0. sram_0.*)
                0x01a00000                . = ALIGN (0x4)
                0x01a00000                PROVIDE (_alt_partition_sram_0_end, ABSOLUTE (.))
                0x01a00000                PROVIDE (_alt_partition_sram_0_load_addr, LOADADDR (.sram_0))

.epcs_controller
                0x01a81000        0x0
                0x01a81000                PROVIDE (_alt_partition_epcs_controller_start, ABSOLUTE (.))
 *(.epcs_controller. epcs_controller.*)
                0x01a81000                . = ALIGN (0x4)
                0x01a81000                PROVIDE (_alt_partition_epcs_controller_end, ABSOLUTE (.))
                0x01a81000                PROVIDE (_alt_partition_epcs_controller_load_addr, LOADADDR (.epcs_controller))

.stab
 *(.stab)

.stabstr
 *(.stabstr)

.stab.excl
 *(.stab.excl)

.stab.exclstr
 *(.stab.exclstr)

.stab.index
 *(.stab.index)

.stab.indexstr
 *(.stab.indexstr)

.comment        0x00000000       0x23
 *(.comment)
 .comment       0x00000000       0x23 obj/default/VGA.o
                                 0x24 (size before relaxing)
 .comment       0x00000000       0x24 obj/default/alt_error_handler.o
 .comment       0x00000000       0x24 obj/default/dm9000a.o
 .comment       0x00000000       0x24 obj/default/iniche_init.o
 .comment       0x00000000       0x24 obj/default/led.o
 .comment       0x00000000       0x24 obj/default/my_threads.o
 .comment       0x00000000       0x24 obj/default/network_utilities.o
 .comment       0x00000000       0x24 obj/default/sdcard/my_sdcard.o
 .comment       0x00000000       0x24 obj/default/simple_socket_server.o
 .comment       0x00000000       0x24 obj/default/tse_my_system.o
 .comment       0x00000000       0x24 d:/altera/13.0/nios2eds/bin/gnu/h-i686-mingw32/bin/../lib/gcc/nios2-elf/4.1.2\libgcc.a(_fixunsdfsi.o)
 .comment       0x00000000       0x24 d:/altera/13.0/nios2eds/bin/gnu/h-i686-mingw32/bin/../lib/gcc/nios2-elf/4.1.2\libgcc.a(_addsub_sf.o)
 .comment       0x00000000       0x24 d:/altera/13.0/nios2eds/bin/gnu/h-i686-mingw32/bin/../lib/gcc/nios2-elf/4.1.2\libgcc.a(_mul_sf.o)
 .comment       0x00000000       0x24 d:/altera/13.0/nios2eds/bin/gnu/h-i686-mingw32/bin/../lib/gcc/nios2-elf/4.1.2\libgcc.a(_div_sf.o)
 .comment       0x00000000       0x24 d:/altera/13.0/nios2eds/bin/gnu/h-i686-mingw32/bin/../lib/gcc/nios2-elf/4.1.2\libgcc.a(_sf_to_si.o)
 .comment       0x00000000       0x24 d:/altera/13.0/nios2eds/bin/gnu/h-i686-mingw32/bin/../lib/gcc/nios2-elf/4.1.2\libgcc.a(_thenan_sf.o)
 .comment       0x00000000       0x24 d:/altera/13.0/nios2eds/bin/gnu/h-i686-mingw32/bin/../lib/gcc/nios2-elf/4.1.2\libgcc.a(_usi_to_sf.o)
 .comment       0x00000000       0x24 d:/altera/13.0/nios2eds/bin/gnu/h-i686-mingw32/bin/../lib/gcc/nios2-elf/4.1.2\libgcc.a(_addsub_df.o)
 .comment       0x00000000       0x24 d:/altera/13.0/nios2eds/bin/gnu/h-i686-mingw32/bin/../lib/gcc/nios2-elf/4.1.2\libgcc.a(_mul_df.o)
 .comment       0x00000000       0x24 d:/altera/13.0/nios2eds/bin/gnu/h-i686-mingw32/bin/../lib/gcc/nios2-elf/4.1.2\libgcc.a(_ge_df.o)
 .comment       0x00000000       0x24 d:/altera/13.0/nios2eds/bin/gnu/h-i686-mingw32/bin/../lib/gcc/nios2-elf/4.1.2\libgcc.a(_df_to_si.o)
 .comment       0x00000000       0x24 d:/altera/13.0/nios2eds/bin/gnu/h-i686-mingw32/bin/../lib/gcc/nios2-elf/4.1.2\libgcc.a(_thenan_df.o)
 .comment       0x00000000       0x24 d:/altera/13.0/nios2eds/bin/gnu/h-i686-mingw32/bin/../lib/gcc/nios2-elf/4.1.2\libgcc.a(_usi_to_df.o)
 .comment       0x00000000       0x24 d:/altera/13.0/nios2eds/bin/gnu/h-i686-mingw32/bin/../lib/gcc/nios2-elf/4.1.2\libgcc.a(_muldi3.o)
 .comment       0x00000000       0x24 d:/altera/13.0/nios2eds/bin/gnu/h-i686-mingw32/bin/../lib/gcc/nios2-elf/4.1.2\libgcc.a(_clzsi2.o)
 .comment       0x00000000       0x24 d:/altera/13.0/nios2eds/bin/gnu/h-i686-mingw32/bin/../lib/gcc/nios2-elf/4.1.2\libgcc.a(_pack_sf.o)
 .comment       0x00000000       0x24 d:/altera/13.0/nios2eds/bin/gnu/h-i686-mingw32/bin/../lib/gcc/nios2-elf/4.1.2\libgcc.a(_unpack_sf.o)
 .comment       0x00000000       0x24 d:/altera/13.0/nios2eds/bin/gnu/h-i686-mingw32/bin/../lib/gcc/nios2-elf/4.1.2\libgcc.a(_pack_df.o)
 .comment       0x00000000       0x24 d:/altera/13.0/nios2eds/bin/gnu/h-i686-mingw32/bin/../lib/gcc/nios2-elf/4.1.2\libgcc.a(_unpack_df.o)
 .comment       0x00000000       0x24 d:/altera/13.0/nios2eds/bin/gnu/h-i686-mingw32/bin/../lib/gcc/nios2-elf/4.1.2\libgcc.a(_fpcmp_parts_df.o)
 .comment       0x00000000       0x24 d:/altera/13.0/nios2eds/bin/gnu/h-i686-mingw32/bin/../lib/gcc/nios2-elf/4.1.2\libgcc.a(_clz.o)
 .comment       0x00000000       0x24 d:/altera/13.0/nios2eds/bin/gnu/h-i686-mingw32/bin/../lib/gcc/nios2-elf/4.1.2/../../../../nios2-elf/lib\libc.a(lib_a-ctype_.o)
 .comment       0x00000000       0x24 d:/altera/13.0/nios2eds/bin/gnu/h-i686-mingw32/bin/../lib/gcc/nios2-elf/4.1.2/../../../../nios2-elf/lib\libc.a(lib_a-fprintf.o)
 .comment       0x00000000       0x24 d:/altera/13.0/nios2eds/bin/gnu/h-i686-mingw32/bin/../lib/gcc/nios2-elf/4.1.2/../../../../nios2-elf/lib\libc.a(lib_a-fwrite.o)
 .comment       0x00000000       0x24 d:/altera/13.0/nios2eds/bin/gnu/h-i686-mingw32/bin/../lib/gcc/nios2-elf/4.1.2/../../../../nios2-elf/lib\libc.a(lib_a-getc.o)
 .comment       0x00000000       0x24 d:/altera/13.0/nios2eds/bin/gnu/h-i686-mingw32/bin/../lib/gcc/nios2-elf/4.1.2/../../../../nios2-elf/lib\libc.a(lib_a-impure.o)
 .comment       0x00000000       0x24 d:/altera/13.0/nios2eds/bin/gnu/h-i686-mingw32/bin/../lib/gcc/nios2-elf/4.1.2/../../../../nios2-elf/lib\libc.a(lib_a-memset.o)
 .comment       0x00000000       0x24 d:/altera/13.0/nios2eds/bin/gnu/h-i686-mingw32/bin/../lib/gcc/nios2-elf/4.1.2/../../../../nios2-elf/lib\libc.a(lib_a-perror.o)
 .comment       0x00000000       0x24 d:/altera/13.0/nios2eds/bin/gnu/h-i686-mingw32/bin/../lib/gcc/nios2-elf/4.1.2/../../../../nios2-elf/lib\libc.a(lib_a-printf.o)
 .comment       0x00000000       0x24 d:/altera/13.0/nios2eds/bin/gnu/h-i686-mingw32/bin/../lib/gcc/nios2-elf/4.1.2/../../../../nios2-elf/lib\libc.a(lib_a-putc.o)
 .comment       0x00000000       0x24 d:/altera/13.0/nios2eds/bin/gnu/h-i686-mingw32/bin/../lib/gcc/nios2-elf/4.1.2/../../../../nios2-elf/lib\libc.a(lib_a-putchar.o)
 .comment       0x00000000       0x24 d:/altera/13.0/nios2eds/bin/gnu/h-i686-mingw32/bin/../lib/gcc/nios2-elf/4.1.2/../../../../nios2-elf/lib\libc.a(lib_a-puts.o)
 .comment       0x00000000       0x24 d:/altera/13.0/nios2eds/bin/gnu/h-i686-mingw32/bin/../lib/gcc/nios2-elf/4.1.2/../../../../nios2-elf/lib\libc.a(lib_a-rget.o)
 .comment       0x00000000       0x24 d:/altera/13.0/nios2eds/bin/gnu/h-i686-mingw32/bin/../lib/gcc/nios2-elf/4.1.2/../../../../nios2-elf/lib\libc.a(lib_a-strerror.o)
 .comment       0x00000000       0x24 d:/altera/13.0/nios2eds/bin/gnu/h-i686-mingw32/bin/../lib/gcc/nios2-elf/4.1.2/../../../../nios2-elf/lib\libc.a(lib_a-strlen.o)
 .comment       0x00000000       0x24 d:/altera/13.0/nios2eds/bin/gnu/h-i686-mingw32/bin/../lib/gcc/nios2-elf/4.1.2/../../../../nios2-elf/lib\libc.a(lib_a-u_strerr.o)
 .comment       0x00000000       0x24 d:/altera/13.0/nios2eds/bin/gnu/h-i686-mingw32/bin/../lib/gcc/nios2-elf/4.1.2/../../../../nios2-elf/lib\libc.a(lib_a-vfprintf.o)
 .comment       0x00000000       0x24 d:/altera/13.0/nios2eds/bin/gnu/h-i686-mingw32/bin/../lib/gcc/nios2-elf/4.1.2/../../../../nios2-elf/lib\libc.a(lib_a-wbuf.o)
 .comment       0x00000000       0x24 d:/altera/13.0/nios2eds/bin/gnu/h-i686-mingw32/bin/../lib/gcc/nios2-elf/4.1.2/../../../../nios2-elf/lib\libc.a(lib_a-wsetup.o)
 .comment       0x00000000       0x24 d:/altera/13.0/nios2eds/bin/gnu/h-i686-mingw32/bin/../lib/gcc/nios2-elf/4.1.2/../../../../nios2-elf/lib\libc.a(lib_a-dtoa.o)
 .comment       0x00000000       0x24 d:/altera/13.0/nios2eds/bin/gnu/h-i686-mingw32/bin/../lib/gcc/nios2-elf/4.1.2/../../../../nios2-elf/lib\libc.a(lib_a-fflush.o)
 .comment       0x00000000       0x24 d:/altera/13.0/nios2eds/bin/gnu/h-i686-mingw32/bin/../lib/gcc/nios2-elf/4.1.2/../../../../nios2-elf/lib\libc.a(lib_a-findfp.o)
 .comment       0x00000000       0x24 d:/altera/13.0/nios2eds/bin/gnu/h-i686-mingw32/bin/../lib/gcc/nios2-elf/4.1.2/../../../../nios2-elf/lib\libc.a(lib_a-fputc.o)
 .comment       0x00000000       0x24 d:/altera/13.0/nios2eds/bin/gnu/h-i686-mingw32/bin/../lib/gcc/nios2-elf/4.1.2/../../../../nios2-elf/lib\libc.a(lib_a-fputs.o)
 .comment       0x00000000       0x24 d:/altera/13.0/nios2eds/bin/gnu/h-i686-mingw32/bin/../lib/gcc/nios2-elf/4.1.2/../../../../nios2-elf/lib\libc.a(lib_a-freer.o)
 .comment       0x00000000       0x24 d:/altera/13.0/nios2eds/bin/gnu/h-i686-mingw32/bin/../lib/gcc/nios2-elf/4.1.2/../../../../nios2-elf/lib\libc.a(lib_a-fvwrite.o)
 .comment       0x00000000       0x24 d:/altera/13.0/nios2eds/bin/gnu/h-i686-mingw32/bin/../lib/gcc/nios2-elf/4.1.2/../../../../nios2-elf/lib\libc.a(lib_a-fwalk.o)
 .comment       0x00000000       0x24 d:/altera/13.0/nios2eds/bin/gnu/h-i686-mingw32/bin/../lib/gcc/nios2-elf/4.1.2/../../../../nios2-elf/lib\libc.a(lib_a-locale.o)
 .comment       0x00000000       0x24 d:/altera/13.0/nios2eds/bin/gnu/h-i686-mingw32/bin/../lib/gcc/nios2-elf/4.1.2/../../../../nios2-elf/lib\libc.a(lib_a-makebuf.o)
 .comment       0x00000000       0x24 d:/altera/13.0/nios2eds/bin/gnu/h-i686-mingw32/bin/../lib/gcc/nios2-elf/4.1.2/../../../../nios2-elf/lib\libc.a(lib_a-mallocr.o)
 .comment       0x00000000       0x24 d:/altera/13.0/nios2eds/bin/gnu/h-i686-mingw32/bin/../lib/gcc/nios2-elf/4.1.2/../../../../nios2-elf/lib\libc.a(lib_a-memchr.o)
 .comment       0x00000000       0x24 d:/altera/13.0/nios2eds/bin/gnu/h-i686-mingw32/bin/../lib/gcc/nios2-elf/4.1.2/../../../../nios2-elf/lib\libc.a(lib_a-memcpy.o)
 .comment       0x00000000       0x24 d:/altera/13.0/nios2eds/bin/gnu/h-i686-mingw32/bin/../lib/gcc/nios2-elf/4.1.2/../../../../nios2-elf/lib\libc.a(lib_a-memmove.o)
 .comment       0x00000000       0x24 d:/altera/13.0/nios2eds/bin/gnu/h-i686-mingw32/bin/../lib/gcc/nios2-elf/4.1.2/../../../../nios2-elf/lib\libc.a(lib_a-mprec.o)
 .comment       0x00000000       0x24 d:/altera/13.0/nios2eds/bin/gnu/h-i686-mingw32/bin/../lib/gcc/nios2-elf/4.1.2/../../../../nios2-elf/lib\libc.a(lib_a-reallocr.o)
 .comment       0x00000000       0x24 d:/altera/13.0/nios2eds/bin/gnu/h-i686-mingw32/bin/../lib/gcc/nios2-elf/4.1.2/../../../../nios2-elf/lib\libc.a(lib_a-refill.o)
 .comment       0x00000000       0x24 d:/altera/13.0/nios2eds/bin/gnu/h-i686-mingw32/bin/../lib/gcc/nios2-elf/4.1.2/../../../../nios2-elf/lib\libc.a(lib_a-s_isinfd.o)
 .comment       0x00000000       0x24 d:/altera/13.0/nios2eds/bin/gnu/h-i686-mingw32/bin/../lib/gcc/nios2-elf/4.1.2/../../../../nios2-elf/lib\libc.a(lib_a-s_isnand.o)
 .comment       0x00000000       0x24 d:/altera/13.0/nios2eds/bin/gnu/h-i686-mingw32/bin/../lib/gcc/nios2-elf/4.1.2/../../../../nios2-elf/lib\libc.a(lib_a-sbrkr.o)
 .comment       0x00000000       0x24 d:/altera/13.0/nios2eds/bin/gnu/h-i686-mingw32/bin/../lib/gcc/nios2-elf/4.1.2/../../../../nios2-elf/lib\libc.a(lib_a-stdio.o)
 .comment       0x00000000       0x24 d:/altera/13.0/nios2eds/bin/gnu/h-i686-mingw32/bin/../lib/gcc/nios2-elf/4.1.2/../../../../nios2-elf/lib\libc.a(lib_a-strcmp.o)
 .comment       0x00000000       0x24 d:/altera/13.0/nios2eds/bin/gnu/h-i686-mingw32/bin/../lib/gcc/nios2-elf/4.1.2/../../../../nios2-elf/lib\libc.a(lib_a-writer.o)
 .comment       0x00000000       0x24 d:/altera/13.0/nios2eds/bin/gnu/h-i686-mingw32/bin/../lib/gcc/nios2-elf/4.1.2/../../../../nios2-elf/lib\libc.a(lib_a-callocr.o)
 .comment       0x00000000       0x24 d:/altera/13.0/nios2eds/bin/gnu/h-i686-mingw32/bin/../lib/gcc/nios2-elf/4.1.2/../../../../nios2-elf/lib\libc.a(lib_a-closer.o)
 .comment       0x00000000       0x24 d:/altera/13.0/nios2eds/bin/gnu/h-i686-mingw32/bin/../lib/gcc/nios2-elf/4.1.2/../../../../nios2-elf/lib\libc.a(lib_a-fclose.o)
 .comment       0x00000000       0x24 d:/altera/13.0/nios2eds/bin/gnu/h-i686-mingw32/bin/../lib/gcc/nios2-elf/4.1.2/../../../../nios2-elf/lib\libc.a(lib_a-fstatr.o)
 .comment       0x00000000       0x24 d:/altera/13.0/nios2eds/bin/gnu/h-i686-mingw32/bin/../lib/gcc/nios2-elf/4.1.2/../../../../nios2-elf/lib\libc.a(lib_a-int_errno.o)
 .comment       0x00000000       0x24 d:/altera/13.0/nios2eds/bin/gnu/h-i686-mingw32/bin/../lib/gcc/nios2-elf/4.1.2/../../../../nios2-elf/lib\libc.a(lib_a-isattyr.o)
 .comment       0x00000000       0x24 d:/altera/13.0/nios2eds/bin/gnu/h-i686-mingw32/bin/../lib/gcc/nios2-elf/4.1.2/../../../../nios2-elf/lib\libc.a(lib_a-lseekr.o)
 .comment       0x00000000       0x24 d:/altera/13.0/nios2eds/bin/gnu/h-i686-mingw32/bin/../lib/gcc/nios2-elf/4.1.2/../../../../nios2-elf/lib\libc.a(lib_a-readr.o)
 .comment       0x00000000       0x24 d:/altera/13.0/nios2eds/bin/gnu/h-i686-mingw32/bin/../lib/gcc/nios2-elf/4.1.2\libgcc.a(_udivdi3.o)
 .comment       0x00000000       0x24 d:/altera/13.0/nios2eds/bin/gnu/h-i686-mingw32/bin/../lib/gcc/nios2-elf/4.1.2\libgcc.a(_umoddi3.o)
 .comment       0x00000000       0x24 d:/altera/13.0/nios2eds/bin/gnu/h-i686-mingw32/bin/../lib/gcc/nios2-elf/4.1.2\libgcc.a(_div_df.o)
 .comment       0x00000000       0x24 d:/altera/13.0/nios2eds/bin/gnu/h-i686-mingw32/bin/../lib/gcc/nios2-elf/4.1.2\libgcc.a(_eq_df.o)
 .comment       0x00000000       0x24 d:/altera/13.0/nios2eds/bin/gnu/h-i686-mingw32/bin/../lib/gcc/nios2-elf/4.1.2\libgcc.a(_ne_df.o)
 .comment       0x00000000       0x24 d:/altera/13.0/nios2eds/bin/gnu/h-i686-mingw32/bin/../lib/gcc/nios2-elf/4.1.2\libgcc.a(_gt_df.o)
 .comment       0x00000000       0x24 d:/altera/13.0/nios2eds/bin/gnu/h-i686-mingw32/bin/../lib/gcc/nios2-elf/4.1.2\libgcc.a(_lt_df.o)
 .comment       0x00000000       0x24 d:/altera/13.0/nios2eds/bin/gnu/h-i686-mingw32/bin/../lib/gcc/nios2-elf/4.1.2\libgcc.a(_si_to_df.o)
 .comment       0x00000000       0x24 d:/altera/13.0/nios2eds/bin/gnu/h-i686-mingw32/bin/../lib/gcc/nios2-elf/4.1.2\libgcc.a(lib2-divmod.o)
 .comment       0x00000000       0x24 ../PepinoBoris_bsp/\libucosii_bsp.a(alt_flash_dev.o)
 .comment       0x00000000       0x24 ../PepinoBoris_bsp/\libucosii_bsp.a(alt_fstat.o)
 .comment       0x00000000       0x24 ../PepinoBoris_bsp/\libucosii_bsp.a(alt_irq_register.o)
 .comment       0x00000000       0x24 ../PepinoBoris_bsp/\libucosii_bsp.a(alt_irq_vars.o)
 .comment       0x00000000       0x24 ../PepinoBoris_bsp/\libucosii_bsp.a(alt_isatty.o)
 .comment       0x00000000       0x24 ../PepinoBoris_bsp/\libucosii_bsp.a(alt_lseek.o)
 .comment       0x00000000       0x24 ../PepinoBoris_bsp/\libucosii_bsp.a(alt_main.o)
 .comment       0x00000000       0x24 ../PepinoBoris_bsp/\libucosii_bsp.a(alt_sbrk.o)
 .comment       0x00000000       0x24 ../PepinoBoris_bsp/\libucosii_bsp.a(alt_usleep.o)
 .comment       0x00000000       0x24 ../PepinoBoris_bsp/\libucosii_bsp.a(alt_env_lock.o)
 .comment       0x00000000       0x24 ../PepinoBoris_bsp/\libucosii_bsp.a(alt_malloc_lock.o)
 .comment       0x00000000       0x24 ../PepinoBoris_bsp/\libucosii_bsp.a(os_core.o)
 .comment       0x00000000       0x24 ../PepinoBoris_bsp/\libucosii_bsp.a(os_dbg.o)
 .comment       0x00000000       0x24 ../PepinoBoris_bsp/\libucosii_bsp.a(os_flag.o)
 .comment       0x00000000       0x24 ../PepinoBoris_bsp/\libucosii_bsp.a(os_mem.o)
 .comment       0x00000000       0x24 ../PepinoBoris_bsp/\libucosii_bsp.a(os_q.o)
 .comment       0x00000000       0x24 ../PepinoBoris_bsp/\libucosii_bsp.a(os_sem.o)
 .comment       0x00000000       0x24 ../PepinoBoris_bsp/\libucosii_bsp.a(os_task.o)
 .comment       0x00000000       0x24 ../PepinoBoris_bsp/\libucosii_bsp.a(os_time.o)
 .comment       0x00000000       0x24 ../PepinoBoris_bsp/\libucosii_bsp.a(alt_sys_init.o)
 .comment       0x00000000       0x24 ../PepinoBoris_bsp/\libucosii_bsp.a(altera_avalon_cfi_flash.o)
 .comment       0x00000000       0x24 ../PepinoBoris_bsp/\libucosii_bsp.a(altera_avalon_cfi_flash_table.o)
 .comment       0x00000000       0x24 ../PepinoBoris_bsp/\libucosii_bsp.a(altera_avalon_epcs_flash_controller.o)
 .comment       0x00000000       0x24 ../PepinoBoris_bsp/\libucosii_bsp.a(altera_avalon_jtag_uart_fd.o)
 .comment       0x00000000       0x24 ../PepinoBoris_bsp/\libucosii_bsp.a(altera_avalon_jtag_uart_init.o)
 .comment       0x00000000       0x24 ../PepinoBoris_bsp/\libucosii_bsp.a(altera_avalon_jtag_uart_ioctl.o)
 .comment       0x00000000       0x24 ../PepinoBoris_bsp/\libucosii_bsp.a(altera_avalon_jtag_uart_read.o)
 .comment       0x00000000       0x24 ../PepinoBoris_bsp/\libucosii_bsp.a(altera_avalon_jtag_uart_write.o)
 .comment       0x00000000       0x24 ../PepinoBoris_bsp/\libucosii_bsp.a(altera_avalon_lcd_16207.o)
 .comment       0x00000000       0x24 ../PepinoBoris_bsp/\libucosii_bsp.a(altera_avalon_lcd_16207_fd.o)
 .comment       0x00000000       0x24 ../PepinoBoris_bsp/\libucosii_bsp.a(altera_avalon_timer_sc.o)
 .comment       0x00000000       0x24 ../PepinoBoris_bsp/\libucosii_bsp.a(altera_avalon_uart_fd.o)
 .comment       0x00000000       0x24 ../PepinoBoris_bsp/\libucosii_bsp.a(altera_avalon_uart_init.o)
 .comment       0x00000000       0x24 ../PepinoBoris_bsp/\libucosii_bsp.a(altera_avalon_uart_read.o)
 .comment       0x00000000       0x24 ../PepinoBoris_bsp/\libucosii_bsp.a(altera_avalon_uart_write.o)
 .comment       0x00000000       0x24 ../PepinoBoris_bsp/\libucosii_bsp.a(altera_up_sd_card_avalon_interface.o)
 .comment       0x00000000       0x24 ../PepinoBoris_bsp/\libucosii_bsp.a(epcs_commands.o)
 .comment       0x00000000       0x24 ../PepinoBoris_bsp/\libucosii_bsp.a(alt_iniche_close.o)
 .comment       0x00000000       0x24 ../PepinoBoris_bsp/\libucosii_bsp.a(alt_iniche_dev.o)
 .comment       0x00000000       0x24 ../PepinoBoris_bsp/\libucosii_bsp.a(alt_iniche_read.o)
 .comment       0x00000000       0x24 ../PepinoBoris_bsp/\libucosii_bsp.a(alt_iniche_write.o)
 .comment       0x00000000       0x24 ../PepinoBoris_bsp/\libucosii_bsp.a(ipnet.o)
 .comment       0x00000000       0x24 ../PepinoBoris_bsp/\libucosii_bsp.a(ipstart.o)
 .comment       0x00000000       0x24 ../PepinoBoris_bsp/\libucosii_bsp.a(igmp_cmn.o)
 .comment       0x00000000       0x24 ../PepinoBoris_bsp/\libucosii_bsp.a(bsdsock.o)
 .comment       0x00000000       0x24 ../PepinoBoris_bsp/\libucosii_bsp.a(cksum.o)
 .comment       0x00000000       0x24 ../PepinoBoris_bsp/\libucosii_bsp.a(in_utils.o)
 .comment       0x00000000       0x24 ../PepinoBoris_bsp/\libucosii_bsp.a(netmain.o)
 .comment       0x00000000       0x24 ../PepinoBoris_bsp/\libucosii_bsp.a(tk_crnos.o)
 .comment       0x00000000       0x24 ../PepinoBoris_bsp/\libucosii_bsp.a(dhcpclnt.o)
 .comment       0x00000000       0x24 ../PepinoBoris_bsp/\libucosii_bsp.a(dhcputil.o)
 .comment       0x00000000       0x24 ../PepinoBoris_bsp/\libucosii_bsp.a(pktalloc.o)
 .comment       0x00000000       0x24 ../PepinoBoris_bsp/\libucosii_bsp.a(q.o)
 .comment       0x00000000       0x24 ../PepinoBoris_bsp/\libucosii_bsp.a(udp_open.o)
 .comment       0x00000000       0x24 ../PepinoBoris_bsp/\libucosii_bsp.a(brdutils.o)
 .comment       0x00000000       0x24 ../PepinoBoris_bsp/\libucosii_bsp.a(osportco.o)
 .comment       0x00000000       0x24 ../PepinoBoris_bsp/\libucosii_bsp.a(targnios.o)
 .comment       0x00000000       0x24 ../PepinoBoris_bsp/\libucosii_bsp.a(nptcp.o)
 .comment       0x00000000       0x24 ../PepinoBoris_bsp/\libucosii_bsp.a(rawsock.o)
 .comment       0x00000000       0x24 ../PepinoBoris_bsp/\libucosii_bsp.a(sockcall.o)
 .comment       0x00000000       0x24 ../PepinoBoris_bsp/\libucosii_bsp.a(socket.o)
 .comment       0x00000000       0x24 ../PepinoBoris_bsp/\libucosii_bsp.a(socket2.o)
 .comment       0x00000000       0x24 ../PepinoBoris_bsp/\libucosii_bsp.a(soselect.o)
 .comment       0x00000000       0x24 ../PepinoBoris_bsp/\libucosii_bsp.a(tcp_in.o)
 .comment       0x00000000       0x24 ../PepinoBoris_bsp/\libucosii_bsp.a(tcp_out.o)
 .comment       0x00000000       0x24 ../PepinoBoris_bsp/\libucosii_bsp.a(tcp_subr.o)
 .comment       0x00000000       0x24 ../PepinoBoris_bsp/\libucosii_bsp.a(tcp_timr.o)
 .comment       0x00000000       0x24 ../PepinoBoris_bsp/\libucosii_bsp.a(tcp_usr.o)
 .comment       0x00000000       0x24 ../PepinoBoris_bsp/\libucosii_bsp.a(tcpport.o)
 .comment       0x00000000       0x24 ../PepinoBoris_bsp/\libucosii_bsp.a(udpsock.o)
 .comment       0x00000000       0x24 ../PepinoBoris_bsp/\libucosii_bsp.a(alt_alarm_start.o)
 .comment       0x00000000       0x24 ../PepinoBoris_bsp/\libucosii_bsp.a(alt_busy_sleep.o)
 .comment       0x00000000       0x24 ../PepinoBoris_bsp/\libucosii_bsp.a(alt_close.o)
 .comment       0x00000000       0x24 ../PepinoBoris_bsp/\libucosii_bsp.a(alt_dcache_flush.o)
 .comment       0x00000000       0x24 ../PepinoBoris_bsp/\libucosii_bsp.a(alt_dev.o)
 .comment       0x00000000       0x24 ../PepinoBoris_bsp/\libucosii_bsp.a(alt_dev_llist_insert.o)
 .comment       0x00000000       0x24 ../PepinoBoris_bsp/\libucosii_bsp.a(alt_do_ctors.o)
 .comment       0x00000000       0x24 ../PepinoBoris_bsp/\libucosii_bsp.a(alt_do_dtors.o)
 .comment       0x00000000       0x24 ../PepinoBoris_bsp/\libucosii_bsp.a(alt_errno.o)
 .comment       0x00000000       0x24 ../PepinoBoris_bsp/\libucosii_bsp.a(alt_find_dev.o)
 .comment       0x00000000       0x24 ../PepinoBoris_bsp/\libucosii_bsp.a(alt_iic.o)
 .comment       0x00000000       0x24 ../PepinoBoris_bsp/\libucosii_bsp.a(alt_iic_isr_register.o)
 .comment       0x00000000       0x24 ../PepinoBoris_bsp/\libucosii_bsp.a(alt_io_redirect.o)
 .comment       0x00000000       0x24 ../PepinoBoris_bsp/\libucosii_bsp.a(alt_irq_handler.o)
 .comment       0x00000000       0x24 ../PepinoBoris_bsp/\libucosii_bsp.a(alt_open.o)
 .comment       0x00000000       0x24 ../PepinoBoris_bsp/\libucosii_bsp.a(alt_read.o)
 .comment       0x00000000       0x24 ../PepinoBoris_bsp/\libucosii_bsp.a(alt_release_fd.o)
 .comment       0x00000000       0x24 ../PepinoBoris_bsp/\libucosii_bsp.a(alt_remap_cached.o)
 .comment       0x00000000       0x24 ../PepinoBoris_bsp/\libucosii_bsp.a(alt_remap_uncached.o)
 .comment       0x00000000       0x24 ../PepinoBoris_bsp/\libucosii_bsp.a(alt_tick.o)
 .comment       0x00000000       0x24 ../PepinoBoris_bsp/\libucosii_bsp.a(alt_write.o)
 .comment       0x00000000       0x24 ../PepinoBoris_bsp/\libucosii_bsp.a(altera_nios2_qsys_irq.o)
 .comment       0x00000000       0x24 ../PepinoBoris_bsp/\libucosii_bsp.a(os_cpu_c.o)
 .comment       0x00000000       0x24 ../PepinoBoris_bsp/\libucosii_bsp.a(altera_avalon_cfi_flash_amd.o)
 .comment       0x00000000       0x24 ../PepinoBoris_bsp/\libucosii_bsp.a(altera_avalon_cfi_flash_intel.o)
 .comment       0x00000000       0x24 ../PepinoBoris_bsp/\libucosii_bsp.a(altera_avalon_spi.o)
 .comment       0x00000000       0x24 ../PepinoBoris_bsp/\libucosii_bsp.a(allports.o)
 .comment       0x00000000       0x24 ../PepinoBoris_bsp/\libucosii_bsp.a(timeouts.o)
 .comment       0x00000000       0x24 ../PepinoBoris_bsp/\libucosii_bsp.a(tk_misc.o)
 .comment       0x00000000       0x24 ../PepinoBoris_bsp/\libucosii_bsp.a(alt_iniche_fcntl.o)
 .comment       0x00000000       0x24 ../PepinoBoris_bsp/\libucosii_bsp.a(et_arp.o)
 .comment       0x00000000       0x24 ../PepinoBoris_bsp/\libucosii_bsp.a(iface.o)
 .comment       0x00000000       0x24 ../PepinoBoris_bsp/\libucosii_bsp.a(ip.o)
 .comment       0x00000000       0x24 ../PepinoBoris_bsp/\libucosii_bsp.a(ip_reasm.o)
 .comment       0x00000000       0x24 ../PepinoBoris_bsp/\libucosii_bsp.a(ipdemux.o)
 .comment       0x00000000       0x24 ../PepinoBoris_bsp/\libucosii_bsp.a(ipmc.o)
 .comment       0x00000000       0x24 ../PepinoBoris_bsp/\libucosii_bsp.a(ipport.o)
 .comment       0x00000000       0x24 ../PepinoBoris_bsp/\libucosii_bsp.a(ipraw.o)
 .comment       0x00000000       0x24 ../PepinoBoris_bsp/\libucosii_bsp.a(iproute.o)
 .comment       0x00000000       0x24 ../PepinoBoris_bsp/\libucosii_bsp.a(udp.o)
 .comment       0x00000000       0x24 ../PepinoBoris_bsp/\libucosii_bsp.a(igmp.o)
 .comment       0x00000000       0x24 ../PepinoBoris_bsp/\libucosii_bsp.a(igmp2.o)
 .comment       0x00000000       0x24 ../PepinoBoris_bsp/\libucosii_bsp.a(ipopt.o)
 .comment       0x00000000       0x24 ../PepinoBoris_bsp/\libucosii_bsp.a(u_mctest.o)
 .comment       0x00000000       0x24 ../PepinoBoris_bsp/\libucosii_bsp.a(dhcsetup.o)
 .comment       0x00000000       0x24 ../PepinoBoris_bsp/\libucosii_bsp.a(memdev.o)
 .comment       0x00000000       0x24 ../PepinoBoris_bsp/\libucosii_bsp.a(parseip.o)
 .comment       0x00000000       0x24 ../PepinoBoris_bsp/\libucosii_bsp.a(tcpcksum.o)
 .comment       0x00000000       0x24 ../PepinoBoris_bsp/\libucosii_bsp.a(in_pcb.o)
 .comment       0x00000000       0x24 ../PepinoBoris_bsp/\libucosii_bsp.a(vfsfiles.o)
 .comment       0x00000000       0x24 ../PepinoBoris_bsp/\libucosii_bsp.a(vfsport.o)
 .comment       0x00000000       0x24 ../PepinoBoris_bsp/\libucosii_bsp.a(alt_fcntl.o)
 .comment       0x00000000       0x24 ../PepinoBoris_bsp/\libucosii_bsp.a(alt_find_file.o)
 .comment       0x00000000       0x24 ../PepinoBoris_bsp/\libucosii_bsp.a(alt_get_fd.o)
 .comment       0x00000000       0x24 ../PepinoBoris_bsp/\libucosii_bsp.a(icmp.o)
 .comment       0x00000000       0x24 d:/altera/13.0/nios2eds/bin/gnu/h-i686-mingw32/bin/../lib/gcc/nios2-elf/4.1.2/../../../../nios2-elf/lib\libc.a(lib_a-atexit.o)
 .comment       0x00000000       0x24 d:/altera/13.0/nios2eds/bin/gnu/h-i686-mingw32/bin/../lib/gcc/nios2-elf/4.1.2/../../../../nios2-elf/lib\libc.a(lib_a-atoi.o)
 .comment       0x00000000       0x24 d:/altera/13.0/nios2eds/bin/gnu/h-i686-mingw32/bin/../lib/gcc/nios2-elf/4.1.2/../../../../nios2-elf/lib\libc.a(lib_a-calloc.o)
 .comment       0x00000000       0x24 d:/altera/13.0/nios2eds/bin/gnu/h-i686-mingw32/bin/../lib/gcc/nios2-elf/4.1.2/../../../../nios2-elf/lib\libc.a(lib_a-exit.o)
 .comment       0x00000000       0x24 d:/altera/13.0/nios2eds/bin/gnu/h-i686-mingw32/bin/../lib/gcc/nios2-elf/4.1.2/../../../../nios2-elf/lib\libc.a(lib_a-malloc.o)
 .comment       0x00000000       0x24 d:/altera/13.0/nios2eds/bin/gnu/h-i686-mingw32/bin/../lib/gcc/nios2-elf/4.1.2/../../../../nios2-elf/lib\libc.a(lib_a-memcmp.o)
 .comment       0x00000000       0x24 d:/altera/13.0/nios2eds/bin/gnu/h-i686-mingw32/bin/../lib/gcc/nios2-elf/4.1.2/../../../../nios2-elf/lib\libc.a(lib_a-sprintf.o)
 .comment       0x00000000       0x24 d:/altera/13.0/nios2eds/bin/gnu/h-i686-mingw32/bin/../lib/gcc/nios2-elf/4.1.2/../../../../nios2-elf/lib\libc.a(lib_a-strchr.o)
 .comment       0x00000000       0x24 d:/altera/13.0/nios2eds/bin/gnu/h-i686-mingw32/bin/../lib/gcc/nios2-elf/4.1.2/../../../../nios2-elf/lib\libc.a(lib_a-strcpy.o)
 .comment       0x00000000       0x24 d:/altera/13.0/nios2eds/bin/gnu/h-i686-mingw32/bin/../lib/gcc/nios2-elf/4.1.2/../../../../nios2-elf/lib\libc.a(lib_a-strncmp.o)
 .comment       0x00000000       0x24 d:/altera/13.0/nios2eds/bin/gnu/h-i686-mingw32/bin/../lib/gcc/nios2-elf/4.1.2/../../../../nios2-elf/lib\libc.a(lib_a-strncpy.o)
 .comment       0x00000000       0x24 d:/altera/13.0/nios2eds/bin/gnu/h-i686-mingw32/bin/../lib/gcc/nios2-elf/4.1.2/../../../../nios2-elf/lib\libc.a(lib_a-strtol.o)
 .comment       0x00000000       0x24 d:/altera/13.0/nios2eds/bin/gnu/h-i686-mingw32/bin/../lib/gcc/nios2-elf/4.1.2/../../../../nios2-elf/lib\libc.a(lib_a-vprintf.o)
 .comment       0x00000000       0x24 d:/altera/13.0/nios2eds/bin/gnu/h-i686-mingw32/bin/../lib/gcc/nios2-elf/4.1.2/../../../../nios2-elf/lib\libc.a(lib_a-vsprintf.o)
 .comment       0x00000000       0x24 d:/altera/13.0/nios2eds/bin/gnu/h-i686-mingw32/bin/../lib/gcc/nios2-elf/4.1.2/../../../../nios2-elf/lib\libc.a(lib_a-__atexit.o)
 .comment       0x00000000       0x24 d:/altera/13.0/nios2eds/bin/gnu/h-i686-mingw32/bin/../lib/gcc/nios2-elf/4.1.2/../../../../nios2-elf/lib\libc.a(lib_a-__call_atexit.o)
 .comment       0x00000000       0x24 ../PepinoBoris_bsp/\libucosii_bsp.a(alt_exit.o)

.debug
 *(.debug)

.line
 *(.line)

.debug_srcinfo
 *(.debug_srcinfo)

.debug_sfnames
 *(.debug_sfnames)

.debug_aranges  0x00000000     0x1c90
 *(.debug_aranges)
 .debug_aranges
                0x00000000       0x20 ../PepinoBoris_bsp//obj/HAL/src/crt0.o
 .debug_aranges
                0x00000020       0x20 obj/default/VGA.o
 .debug_aranges
                0x00000040       0x20 obj/default/alt_error_handler.o
 .debug_aranges
                0x00000060       0x20 obj/default/dm9000a.o
 .debug_aranges
                0x00000080       0x20 obj/default/iniche_init.o
 .debug_aranges
                0x000000a0       0x20 obj/default/led.o
 .debug_aranges
                0x000000c0       0x20 obj/default/my_threads.o
 .debug_aranges
                0x000000e0       0x20 obj/default/network_utilities.o
 .debug_aranges
                0x00000100       0x20 obj/default/sdcard/my_sdcard.o
 .debug_aranges
                0x00000120       0x20 obj/default/simple_socket_server.o
 .debug_aranges
                0x00000140       0x20 d:/altera/13.0/nios2eds/bin/gnu/h-i686-mingw32/bin/../lib/gcc/nios2-elf/4.1.2\libgcc.a(_fixunsdfsi.o)
 .debug_aranges
                0x00000160       0x20 d:/altera/13.0/nios2eds/bin/gnu/h-i686-mingw32/bin/../lib/gcc/nios2-elf/4.1.2\libgcc.a(_addsub_sf.o)
 .debug_aranges
                0x00000180       0x20 d:/altera/13.0/nios2eds/bin/gnu/h-i686-mingw32/bin/../lib/gcc/nios2-elf/4.1.2\libgcc.a(_mul_sf.o)
 .debug_aranges
                0x000001a0       0x20 d:/altera/13.0/nios2eds/bin/gnu/h-i686-mingw32/bin/../lib/gcc/nios2-elf/4.1.2\libgcc.a(_div_sf.o)
 .debug_aranges
                0x000001c0       0x20 d:/altera/13.0/nios2eds/bin/gnu/h-i686-mingw32/bin/../lib/gcc/nios2-elf/4.1.2\libgcc.a(_sf_to_si.o)
 .debug_aranges
                0x000001e0       0x20 d:/altera/13.0/nios2eds/bin/gnu/h-i686-mingw32/bin/../lib/gcc/nios2-elf/4.1.2\libgcc.a(_usi_to_sf.o)
 .debug_aranges
                0x00000200       0x20 d:/altera/13.0/nios2eds/bin/gnu/h-i686-mingw32/bin/../lib/gcc/nios2-elf/4.1.2\libgcc.a(_addsub_df.o)
 .debug_aranges
                0x00000220       0x20 d:/altera/13.0/nios2eds/bin/gnu/h-i686-mingw32/bin/../lib/gcc/nios2-elf/4.1.2\libgcc.a(_mul_df.o)
 .debug_aranges
                0x00000240       0x20 d:/altera/13.0/nios2eds/bin/gnu/h-i686-mingw32/bin/../lib/gcc/nios2-elf/4.1.2\libgcc.a(_ge_df.o)
 .debug_aranges
                0x00000260       0x20 d:/altera/13.0/nios2eds/bin/gnu/h-i686-mingw32/bin/../lib/gcc/nios2-elf/4.1.2\libgcc.a(_df_to_si.o)
 .debug_aranges
                0x00000280       0x20 d:/altera/13.0/nios2eds/bin/gnu/h-i686-mingw32/bin/../lib/gcc/nios2-elf/4.1.2\libgcc.a(_usi_to_df.o)
 .debug_aranges
                0x000002a0       0x20 d:/altera/13.0/nios2eds/bin/gnu/h-i686-mingw32/bin/../lib/gcc/nios2-elf/4.1.2\libgcc.a(_muldi3.o)
 .debug_aranges
                0x000002c0       0x20 d:/altera/13.0/nios2eds/bin/gnu/h-i686-mingw32/bin/../lib/gcc/nios2-elf/4.1.2\libgcc.a(_clzsi2.o)
 .debug_aranges
                0x000002e0       0x20 d:/altera/13.0/nios2eds/bin/gnu/h-i686-mingw32/bin/../lib/gcc/nios2-elf/4.1.2\libgcc.a(_pack_sf.o)
 .debug_aranges
                0x00000300       0x20 d:/altera/13.0/nios2eds/bin/gnu/h-i686-mingw32/bin/../lib/gcc/nios2-elf/4.1.2\libgcc.a(_unpack_sf.o)
 .debug_aranges
                0x00000320       0x20 d:/altera/13.0/nios2eds/bin/gnu/h-i686-mingw32/bin/../lib/gcc/nios2-elf/4.1.2\libgcc.a(_pack_df.o)
 .debug_aranges
                0x00000340       0x20 d:/altera/13.0/nios2eds/bin/gnu/h-i686-mingw32/bin/../lib/gcc/nios2-elf/4.1.2\libgcc.a(_unpack_df.o)
 .debug_aranges
                0x00000360       0x20 d:/altera/13.0/nios2eds/bin/gnu/h-i686-mingw32/bin/../lib/gcc/nios2-elf/4.1.2\libgcc.a(_fpcmp_parts_df.o)
 .debug_aranges
                0x00000380       0x20 d:/altera/13.0/nios2eds/bin/gnu/h-i686-mingw32/bin/../lib/gcc/nios2-elf/4.1.2/../../../../nios2-elf/lib\libc.a(lib_a-fprintf.o)
 .debug_aranges
                0x000003a0       0x20 d:/altera/13.0/nios2eds/bin/gnu/h-i686-mingw32/bin/../lib/gcc/nios2-elf/4.1.2/../../../../nios2-elf/lib\libc.a(lib_a-fwrite.o)
 .debug_aranges
                0x000003c0       0x20 d:/altera/13.0/nios2eds/bin/gnu/h-i686-mingw32/bin/../lib/gcc/nios2-elf/4.1.2/../../../../nios2-elf/lib\libc.a(lib_a-getc.o)
 .debug_aranges
                0x000003e0       0x20 d:/altera/13.0/nios2eds/bin/gnu/h-i686-mingw32/bin/../lib/gcc/nios2-elf/4.1.2/../../../../nios2-elf/lib\libc.a(lib_a-memset.o)
 .debug_aranges
                0x00000400       0x20 d:/altera/13.0/nios2eds/bin/gnu/h-i686-mingw32/bin/../lib/gcc/nios2-elf/4.1.2/../../../../nios2-elf/lib\libc.a(lib_a-perror.o)
 .debug_aranges
                0x00000420       0x20 d:/altera/13.0/nios2eds/bin/gnu/h-i686-mingw32/bin/../lib/gcc/nios2-elf/4.1.2/../../../../nios2-elf/lib\libc.a(lib_a-printf.o)
 .debug_aranges
                0x00000440       0x20 d:/altera/13.0/nios2eds/bin/gnu/h-i686-mingw32/bin/../lib/gcc/nios2-elf/4.1.2/../../../../nios2-elf/lib\libc.a(lib_a-putc.o)
 .debug_aranges
                0x00000460       0x20 d:/altera/13.0/nios2eds/bin/gnu/h-i686-mingw32/bin/../lib/gcc/nios2-elf/4.1.2/../../../../nios2-elf/lib\libc.a(lib_a-putchar.o)
 .debug_aranges
                0x00000480       0x20 d:/altera/13.0/nios2eds/bin/gnu/h-i686-mingw32/bin/../lib/gcc/nios2-elf/4.1.2/../../../../nios2-elf/lib\libc.a(lib_a-puts.o)
 .debug_aranges
                0x000004a0       0x20 d:/altera/13.0/nios2eds/bin/gnu/h-i686-mingw32/bin/../lib/gcc/nios2-elf/4.1.2/../../../../nios2-elf/lib\libc.a(lib_a-rget.o)
 .debug_aranges
                0x000004c0       0x20 d:/altera/13.0/nios2eds/bin/gnu/h-i686-mingw32/bin/../lib/gcc/nios2-elf/4.1.2/../../../../nios2-elf/lib\libc.a(lib_a-strerror.o)
 .debug_aranges
                0x000004e0       0x20 d:/altera/13.0/nios2eds/bin/gnu/h-i686-mingw32/bin/../lib/gcc/nios2-elf/4.1.2/../../../../nios2-elf/lib\libc.a(lib_a-strlen.o)
 .debug_aranges
                0x00000500       0x20 d:/altera/13.0/nios2eds/bin/gnu/h-i686-mingw32/bin/../lib/gcc/nios2-elf/4.1.2/../../../../nios2-elf/lib\libc.a(lib_a-u_strerr.o)
 .debug_aranges
                0x00000520       0x20 d:/altera/13.0/nios2eds/bin/gnu/h-i686-mingw32/bin/../lib/gcc/nios2-elf/4.1.2/../../../../nios2-elf/lib\libc.a(lib_a-vfprintf.o)
 .debug_aranges
                0x00000540       0x20 d:/altera/13.0/nios2eds/bin/gnu/h-i686-mingw32/bin/../lib/gcc/nios2-elf/4.1.2/../../../../nios2-elf/lib\libc.a(lib_a-wbuf.o)
 .debug_aranges
                0x00000560       0x20 d:/altera/13.0/nios2eds/bin/gnu/h-i686-mingw32/bin/../lib/gcc/nios2-elf/4.1.2/../../../../nios2-elf/lib\libc.a(lib_a-wsetup.o)
 .debug_aranges
                0x00000580       0x20 d:/altera/13.0/nios2eds/bin/gnu/h-i686-mingw32/bin/../lib/gcc/nios2-elf/4.1.2/../../../../nios2-elf/lib\libc.a(lib_a-dtoa.o)
 .debug_aranges
                0x000005a0       0x20 d:/altera/13.0/nios2eds/bin/gnu/h-i686-mingw32/bin/../lib/gcc/nios2-elf/4.1.2/../../../../nios2-elf/lib\libc.a(lib_a-fflush.o)
 .debug_aranges
                0x000005c0       0x20 d:/altera/13.0/nios2eds/bin/gnu/h-i686-mingw32/bin/../lib/gcc/nios2-elf/4.1.2/../../../../nios2-elf/lib\libc.a(lib_a-findfp.o)
 .debug_aranges
                0x000005e0       0x20 d:/altera/13.0/nios2eds/bin/gnu/h-i686-mingw32/bin/../lib/gcc/nios2-elf/4.1.2/../../../../nios2-elf/lib\libc.a(lib_a-fputc.o)
 .debug_aranges
                0x00000600       0x20 d:/altera/13.0/nios2eds/bin/gnu/h-i686-mingw32/bin/../lib/gcc/nios2-elf/4.1.2/../../../../nios2-elf/lib\libc.a(lib_a-fputs.o)
 .debug_aranges
                0x00000620       0x20 d:/altera/13.0/nios2eds/bin/gnu/h-i686-mingw32/bin/../lib/gcc/nios2-elf/4.1.2/../../../../nios2-elf/lib\libc.a(lib_a-freer.o)
 .debug_aranges
                0x00000640       0x20 d:/altera/13.0/nios2eds/bin/gnu/h-i686-mingw32/bin/../lib/gcc/nios2-elf/4.1.2/../../../../nios2-elf/lib\libc.a(lib_a-fvwrite.o)
 .debug_aranges
                0x00000660       0x20 d:/altera/13.0/nios2eds/bin/gnu/h-i686-mingw32/bin/../lib/gcc/nios2-elf/4.1.2/../../../../nios2-elf/lib\libc.a(lib_a-fwalk.o)
 .debug_aranges
                0x00000680       0x20 d:/altera/13.0/nios2eds/bin/gnu/h-i686-mingw32/bin/../lib/gcc/nios2-elf/4.1.2/../../../../nios2-elf/lib\libc.a(lib_a-locale.o)
 .debug_aranges
                0x000006a0       0x20 d:/altera/13.0/nios2eds/bin/gnu/h-i686-mingw32/bin/../lib/gcc/nios2-elf/4.1.2/../../../../nios2-elf/lib\libc.a(lib_a-makebuf.o)
 .debug_aranges
                0x000006c0       0x20 d:/altera/13.0/nios2eds/bin/gnu/h-i686-mingw32/bin/../lib/gcc/nios2-elf/4.1.2/../../../../nios2-elf/lib\libc.a(lib_a-mallocr.o)
 .debug_aranges
                0x000006e0       0x20 d:/altera/13.0/nios2eds/bin/gnu/h-i686-mingw32/bin/../lib/gcc/nios2-elf/4.1.2/../../../../nios2-elf/lib\libc.a(lib_a-memchr.o)
 .debug_aranges
                0x00000700       0x20 d:/altera/13.0/nios2eds/bin/gnu/h-i686-mingw32/bin/../lib/gcc/nios2-elf/4.1.2/../../../../nios2-elf/lib\libc.a(lib_a-memcpy.o)
 .debug_aranges
                0x00000720       0x20 d:/altera/13.0/nios2eds/bin/gnu/h-i686-mingw32/bin/../lib/gcc/nios2-elf/4.1.2/../../../../nios2-elf/lib\libc.a(lib_a-memmove.o)
 .debug_aranges
                0x00000740       0x20 d:/altera/13.0/nios2eds/bin/gnu/h-i686-mingw32/bin/../lib/gcc/nios2-elf/4.1.2/../../../../nios2-elf/lib\libc.a(lib_a-mprec.o)
 .debug_aranges
                0x00000760       0x20 d:/altera/13.0/nios2eds/bin/gnu/h-i686-mingw32/bin/../lib/gcc/nios2-elf/4.1.2/../../../../nios2-elf/lib\libc.a(lib_a-reallocr.o)
 .debug_aranges
                0x00000780       0x20 d:/altera/13.0/nios2eds/bin/gnu/h-i686-mingw32/bin/../lib/gcc/nios2-elf/4.1.2/../../../../nios2-elf/lib\libc.a(lib_a-refill.o)
 .debug_aranges
                0x000007a0       0x20 d:/altera/13.0/nios2eds/bin/gnu/h-i686-mingw32/bin/../lib/gcc/nios2-elf/4.1.2/../../../../nios2-elf/lib\libc.a(lib_a-s_isinfd.o)
 .debug_aranges
                0x000007c0       0x20 d:/altera/13.0/nios2eds/bin/gnu/h-i686-mingw32/bin/../lib/gcc/nios2-elf/4.1.2/../../../../nios2-elf/lib\libc.a(lib_a-s_isnand.o)
 .debug_aranges
                0x000007e0       0x20 d:/altera/13.0/nios2eds/bin/gnu/h-i686-mingw32/bin/../lib/gcc/nios2-elf/4.1.2/../../../../nios2-elf/lib\libc.a(lib_a-sbrkr.o)
 .debug_aranges
                0x00000800       0x20 d:/altera/13.0/nios2eds/bin/gnu/h-i686-mingw32/bin/../lib/gcc/nios2-elf/4.1.2/../../../../nios2-elf/lib\libc.a(lib_a-stdio.o)
 .debug_aranges
                0x00000820       0x20 d:/altera/13.0/nios2eds/bin/gnu/h-i686-mingw32/bin/../lib/gcc/nios2-elf/4.1.2/../../../../nios2-elf/lib\libc.a(lib_a-strcmp.o)
 .debug_aranges
                0x00000840       0x20 d:/altera/13.0/nios2eds/bin/gnu/h-i686-mingw32/bin/../lib/gcc/nios2-elf/4.1.2/../../../../nios2-elf/lib\libc.a(lib_a-writer.o)
 .debug_aranges
                0x00000860       0x20 d:/altera/13.0/nios2eds/bin/gnu/h-i686-mingw32/bin/../lib/gcc/nios2-elf/4.1.2/../../../../nios2-elf/lib\libc.a(lib_a-callocr.o)
 .debug_aranges
                0x00000880       0x20 d:/altera/13.0/nios2eds/bin/gnu/h-i686-mingw32/bin/../lib/gcc/nios2-elf/4.1.2/../../../../nios2-elf/lib\libc.a(lib_a-closer.o)
 .debug_aranges
                0x000008a0       0x20 d:/altera/13.0/nios2eds/bin/gnu/h-i686-mingw32/bin/../lib/gcc/nios2-elf/4.1.2/../../../../nios2-elf/lib\libc.a(lib_a-fclose.o)
 .debug_aranges
                0x000008c0       0x20 d:/altera/13.0/nios2eds/bin/gnu/h-i686-mingw32/bin/../lib/gcc/nios2-elf/4.1.2/../../../../nios2-elf/lib\libc.a(lib_a-fstatr.o)
 .debug_aranges
                0x000008e0       0x20 d:/altera/13.0/nios2eds/bin/gnu/h-i686-mingw32/bin/../lib/gcc/nios2-elf/4.1.2/../../../../nios2-elf/lib\libc.a(lib_a-isattyr.o)
 .debug_aranges
                0x00000900       0x20 d:/altera/13.0/nios2eds/bin/gnu/h-i686-mingw32/bin/../lib/gcc/nios2-elf/4.1.2/../../../../nios2-elf/lib\libc.a(lib_a-lseekr.o)
 .debug_aranges
                0x00000920       0x20 d:/altera/13.0/nios2eds/bin/gnu/h-i686-mingw32/bin/../lib/gcc/nios2-elf/4.1.2/../../../../nios2-elf/lib\libc.a(lib_a-readr.o)
 .debug_aranges
                0x00000940       0x20 d:/altera/13.0/nios2eds/bin/gnu/h-i686-mingw32/bin/../lib/gcc/nios2-elf/4.1.2\libgcc.a(_udivdi3.o)
 .debug_aranges
                0x00000960       0x20 d:/altera/13.0/nios2eds/bin/gnu/h-i686-mingw32/bin/../lib/gcc/nios2-elf/4.1.2\libgcc.a(_umoddi3.o)
 .debug_aranges
                0x00000980       0x20 d:/altera/13.0/nios2eds/bin/gnu/h-i686-mingw32/bin/../lib/gcc/nios2-elf/4.1.2\libgcc.a(_div_df.o)
 .debug_aranges
                0x000009a0       0x20 d:/altera/13.0/nios2eds/bin/gnu/h-i686-mingw32/bin/../lib/gcc/nios2-elf/4.1.2\libgcc.a(_eq_df.o)
 .debug_aranges
                0x000009c0       0x20 d:/altera/13.0/nios2eds/bin/gnu/h-i686-mingw32/bin/../lib/gcc/nios2-elf/4.1.2\libgcc.a(_ne_df.o)
 .debug_aranges
                0x000009e0       0x20 d:/altera/13.0/nios2eds/bin/gnu/h-i686-mingw32/bin/../lib/gcc/nios2-elf/4.1.2\libgcc.a(_gt_df.o)
 .debug_aranges
                0x00000a00       0x20 d:/altera/13.0/nios2eds/bin/gnu/h-i686-mingw32/bin/../lib/gcc/nios2-elf/4.1.2\libgcc.a(_lt_df.o)
 .debug_aranges
                0x00000a20       0x20 d:/altera/13.0/nios2eds/bin/gnu/h-i686-mingw32/bin/../lib/gcc/nios2-elf/4.1.2\libgcc.a(_si_to_df.o)
 .debug_aranges
                0x00000a40       0x20 d:/altera/13.0/nios2eds/bin/gnu/h-i686-mingw32/bin/../lib/gcc/nios2-elf/4.1.2\libgcc.a(lib2-divmod.o)
 .debug_aranges
                0x00000a60       0x20 ../PepinoBoris_bsp/\libucosii_bsp.a(alt_flash_dev.o)
 .debug_aranges
                0x00000a80       0x20 ../PepinoBoris_bsp/\libucosii_bsp.a(alt_fstat.o)
 .debug_aranges
                0x00000aa0       0x20 ../PepinoBoris_bsp/\libucosii_bsp.a(alt_irq_register.o)
 .debug_aranges
                0x00000ac0       0x20 ../PepinoBoris_bsp/\libucosii_bsp.a(alt_isatty.o)
 .debug_aranges
                0x00000ae0       0x20 ../PepinoBoris_bsp/\libucosii_bsp.a(alt_lseek.o)
 .debug_aranges
                0x00000b00       0x20 ../PepinoBoris_bsp/\libucosii_bsp.a(alt_main.o)
 .debug_aranges
                0x00000b20       0x20 ../PepinoBoris_bsp/\libucosii_bsp.a(alt_sbrk.o)
 .debug_aranges
                0x00000b40       0x20 ../PepinoBoris_bsp/\libucosii_bsp.a(alt_usleep.o)
 .debug_aranges
                0x00000b60       0x20 ../PepinoBoris_bsp/\libucosii_bsp.a(alt_env_lock.o)
 .debug_aranges
                0x00000b80       0x20 ../PepinoBoris_bsp/\libucosii_bsp.a(alt_malloc_lock.o)
 .debug_aranges
                0x00000ba0       0x20 ../PepinoBoris_bsp/\libucosii_bsp.a(os_core.o)
 .debug_aranges
                0x00000bc0       0x20 ../PepinoBoris_bsp/\libucosii_bsp.a(os_dbg.o)
 .debug_aranges
                0x00000be0       0x20 ../PepinoBoris_bsp/\libucosii_bsp.a(os_flag.o)
 .debug_aranges
                0x00000c00       0x20 ../PepinoBoris_bsp/\libucosii_bsp.a(os_mem.o)
 .debug_aranges
                0x00000c20       0x20 ../PepinoBoris_bsp/\libucosii_bsp.a(os_q.o)
 .debug_aranges
                0x00000c40       0x20 ../PepinoBoris_bsp/\libucosii_bsp.a(os_sem.o)
 .debug_aranges
                0x00000c60       0x20 ../PepinoBoris_bsp/\libucosii_bsp.a(os_task.o)
 .debug_aranges
                0x00000c80       0x20 ../PepinoBoris_bsp/\libucosii_bsp.a(os_time.o)
 .debug_aranges
                0x00000ca0       0x20 ../PepinoBoris_bsp/\libucosii_bsp.a(alt_sys_init.o)
 .debug_aranges
                0x00000cc0       0x20 ../PepinoBoris_bsp/\libucosii_bsp.a(altera_avalon_cfi_flash.o)
 .debug_aranges
                0x00000ce0       0x20 ../PepinoBoris_bsp/\libucosii_bsp.a(altera_avalon_cfi_flash_table.o)
 .debug_aranges
                0x00000d00       0x20 ../PepinoBoris_bsp/\libucosii_bsp.a(altera_avalon_epcs_flash_controller.o)
 .debug_aranges
                0x00000d20       0x20 ../PepinoBoris_bsp/\libucosii_bsp.a(altera_avalon_jtag_uart_fd.o)
 .debug_aranges
                0x00000d40       0x20 ../PepinoBoris_bsp/\libucosii_bsp.a(altera_avalon_jtag_uart_init.o)
 .debug_aranges
                0x00000d60       0x20 ../PepinoBoris_bsp/\libucosii_bsp.a(altera_avalon_jtag_uart_ioctl.o)
 .debug_aranges
                0x00000d80       0x20 ../PepinoBoris_bsp/\libucosii_bsp.a(altera_avalon_jtag_uart_read.o)
 .debug_aranges
                0x00000da0       0x20 ../PepinoBoris_bsp/\libucosii_bsp.a(altera_avalon_jtag_uart_write.o)
 .debug_aranges
                0x00000dc0       0x20 ../PepinoBoris_bsp/\libucosii_bsp.a(altera_avalon_lcd_16207.o)
 .debug_aranges
                0x00000de0       0x20 ../PepinoBoris_bsp/\libucosii_bsp.a(altera_avalon_lcd_16207_fd.o)
 .debug_aranges
                0x00000e00       0x20 ../PepinoBoris_bsp/\libucosii_bsp.a(altera_avalon_timer_sc.o)
 .debug_aranges
                0x00000e20       0x20 ../PepinoBoris_bsp/\libucosii_bsp.a(altera_avalon_uart_fd.o)
 .debug_aranges
                0x00000e40       0x20 ../PepinoBoris_bsp/\libucosii_bsp.a(altera_avalon_uart_init.o)
 .debug_aranges
                0x00000e60       0x20 ../PepinoBoris_bsp/\libucosii_bsp.a(altera_avalon_uart_read.o)
 .debug_aranges
                0x00000e80       0x20 ../PepinoBoris_bsp/\libucosii_bsp.a(altera_avalon_uart_write.o)
 .debug_aranges
                0x00000ea0       0x20 ../PepinoBoris_bsp/\libucosii_bsp.a(altera_up_sd_card_avalon_interface.o)
 .debug_aranges
                0x00000ec0       0x20 ../PepinoBoris_bsp/\libucosii_bsp.a(epcs_commands.o)
 .debug_aranges
                0x00000ee0       0x20 ../PepinoBoris_bsp/\libucosii_bsp.a(alt_iniche_close.o)
 .debug_aranges
                0x00000f00       0x20 ../PepinoBoris_bsp/\libucosii_bsp.a(alt_iniche_dev.o)
 .debug_aranges
                0x00000f20       0x20 ../PepinoBoris_bsp/\libucosii_bsp.a(alt_iniche_read.o)
 .debug_aranges
                0x00000f40       0x20 ../PepinoBoris_bsp/\libucosii_bsp.a(alt_iniche_write.o)
 .debug_aranges
                0x00000f60       0x20 ../PepinoBoris_bsp/\libucosii_bsp.a(ipnet.o)
 .debug_aranges
                0x00000f80       0x20 ../PepinoBoris_bsp/\libucosii_bsp.a(ipstart.o)
 .debug_aranges
                0x00000fa0       0x20 ../PepinoBoris_bsp/\libucosii_bsp.a(igmp_cmn.o)
 .debug_aranges
                0x00000fc0       0x20 ../PepinoBoris_bsp/\libucosii_bsp.a(bsdsock.o)
 .debug_aranges
                0x00000fe0       0x20 ../PepinoBoris_bsp/\libucosii_bsp.a(cksum.o)
 .debug_aranges
                0x00001000       0x20 ../PepinoBoris_bsp/\libucosii_bsp.a(in_utils.o)
 .debug_aranges
                0x00001020       0x20 ../PepinoBoris_bsp/\libucosii_bsp.a(netmain.o)
 .debug_aranges
                0x00001040       0x20 ../PepinoBoris_bsp/\libucosii_bsp.a(tk_crnos.o)
 .debug_aranges
                0x00001060       0x20 ../PepinoBoris_bsp/\libucosii_bsp.a(dhcpclnt.o)
 .debug_aranges
                0x00001080       0x20 ../PepinoBoris_bsp/\libucosii_bsp.a(dhcputil.o)
 .debug_aranges
                0x000010a0       0x20 ../PepinoBoris_bsp/\libucosii_bsp.a(pktalloc.o)
 .debug_aranges
                0x000010c0       0x20 ../PepinoBoris_bsp/\libucosii_bsp.a(q.o)
 .debug_aranges
                0x000010e0       0x20 ../PepinoBoris_bsp/\libucosii_bsp.a(udp_open.o)
 .debug_aranges
                0x00001100       0x20 ../PepinoBoris_bsp/\libucosii_bsp.a(asm_cksum.o)
 .debug_aranges
                0x00001120       0x20 ../PepinoBoris_bsp/\libucosii_bsp.a(brdutils.o)
 .debug_aranges
                0x00001140       0x20 ../PepinoBoris_bsp/\libucosii_bsp.a(osportco.o)
 .debug_aranges
                0x00001160       0x20 ../PepinoBoris_bsp/\libucosii_bsp.a(targnios.o)
 .debug_aranges
                0x00001180       0x20 ../PepinoBoris_bsp/\libucosii_bsp.a(nptcp.o)
 .debug_aranges
                0x000011a0       0x20 ../PepinoBoris_bsp/\libucosii_bsp.a(rawsock.o)
 .debug_aranges
                0x000011c0       0x20 ../PepinoBoris_bsp/\libucosii_bsp.a(sockcall.o)
 .debug_aranges
                0x000011e0       0x20 ../PepinoBoris_bsp/\libucosii_bsp.a(socket.o)
 .debug_aranges
                0x00001200       0x20 ../PepinoBoris_bsp/\libucosii_bsp.a(socket2.o)
 .debug_aranges
                0x00001220       0x20 ../PepinoBoris_bsp/\libucosii_bsp.a(soselect.o)
 .debug_aranges
                0x00001240       0x20 ../PepinoBoris_bsp/\libucosii_bsp.a(tcp_in.o)
 .debug_aranges
                0x00001260       0x20 ../PepinoBoris_bsp/\libucosii_bsp.a(tcp_out.o)
 .debug_aranges
                0x00001280       0x20 ../PepinoBoris_bsp/\libucosii_bsp.a(tcp_subr.o)
 .debug_aranges
                0x000012a0       0x20 ../PepinoBoris_bsp/\libucosii_bsp.a(tcp_timr.o)
 .debug_aranges
                0x000012c0       0x20 ../PepinoBoris_bsp/\libucosii_bsp.a(tcp_usr.o)
 .debug_aranges
                0x000012e0       0x20 ../PepinoBoris_bsp/\libucosii_bsp.a(tcpport.o)
 .debug_aranges
                0x00001300       0x20 ../PepinoBoris_bsp/\libucosii_bsp.a(udpsock.o)
 .debug_aranges
                0x00001320       0x20 ../PepinoBoris_bsp/\libucosii_bsp.a(alt_alarm_start.o)
 .debug_aranges
                0x00001340       0x20 ../PepinoBoris_bsp/\libucosii_bsp.a(alt_busy_sleep.o)
 .debug_aranges
                0x00001360       0x20 ../PepinoBoris_bsp/\libucosii_bsp.a(alt_close.o)
 .debug_aranges
                0x00001380       0x20 ../PepinoBoris_bsp/\libucosii_bsp.a(alt_dcache_flush.o)
 .debug_aranges
                0x000013a0       0x20 ../PepinoBoris_bsp/\libucosii_bsp.a(alt_dev.o)
 .debug_aranges
                0x000013c0       0x20 ../PepinoBoris_bsp/\libucosii_bsp.a(alt_dev_llist_insert.o)
 .debug_aranges
                0x000013e0       0x20 ../PepinoBoris_bsp/\libucosii_bsp.a(alt_do_ctors.o)
 .debug_aranges
                0x00001400       0x20 ../PepinoBoris_bsp/\libucosii_bsp.a(alt_do_dtors.o)
 .debug_aranges
                0x00001420       0x20 ../PepinoBoris_bsp/\libucosii_bsp.a(alt_find_dev.o)
 .debug_aranges
                0x00001440       0x20 ../PepinoBoris_bsp/\libucosii_bsp.a(alt_iic.o)
 .debug_aranges
                0x00001460       0x20 ../PepinoBoris_bsp/\libucosii_bsp.a(alt_iic_isr_register.o)
 .debug_aranges
                0x00001480       0x20 ../PepinoBoris_bsp/\libucosii_bsp.a(alt_io_redirect.o)
 .debug_aranges
                0x000014a0       0x30 ../PepinoBoris_bsp/\libucosii_bsp.a(alt_irq_entry.o)
 .debug_aranges
                0x000014d0       0x28 ../PepinoBoris_bsp/\libucosii_bsp.a(alt_irq_handler.o)
 .debug_aranges
                0x000014f8       0x20 ../PepinoBoris_bsp/\libucosii_bsp.a(alt_open.o)
 .debug_aranges
                0x00001518       0x20 ../PepinoBoris_bsp/\libucosii_bsp.a(alt_read.o)
 .debug_aranges
                0x00001538       0x20 ../PepinoBoris_bsp/\libucosii_bsp.a(alt_release_fd.o)
 .debug_aranges
                0x00001558       0x20 ../PepinoBoris_bsp/\libucosii_bsp.a(alt_remap_cached.o)
 .debug_aranges
                0x00001578       0x20 ../PepinoBoris_bsp/\libucosii_bsp.a(alt_remap_uncached.o)
 .debug_aranges
                0x00001598       0x20 ../PepinoBoris_bsp/\libucosii_bsp.a(alt_tick.o)
 .debug_aranges
                0x000015b8       0x20 ../PepinoBoris_bsp/\libucosii_bsp.a(alt_write.o)
 .debug_aranges
                0x000015d8       0x20 ../PepinoBoris_bsp/\libucosii_bsp.a(altera_nios2_qsys_irq.o)
 .debug_aranges
                0x000015f8       0x20 ../PepinoBoris_bsp/\libucosii_bsp.a(os_cpu_a.o)
 .debug_aranges
                0x00001618       0x20 ../PepinoBoris_bsp/\libucosii_bsp.a(os_cpu_c.o)
 .debug_aranges
                0x00001638       0x20 ../PepinoBoris_bsp/\libucosii_bsp.a(altera_avalon_cfi_flash_amd.o)
 .debug_aranges
                0x00001658       0x20 ../PepinoBoris_bsp/\libucosii_bsp.a(altera_avalon_cfi_flash_intel.o)
 .debug_aranges
                0x00001678       0x20 ../PepinoBoris_bsp/\libucosii_bsp.a(altera_avalon_spi.o)
 .debug_aranges
                0x00001698       0x20 ../PepinoBoris_bsp/\libucosii_bsp.a(allports.o)
 .debug_aranges
                0x000016b8       0x20 ../PepinoBoris_bsp/\libucosii_bsp.a(timeouts.o)
 .debug_aranges
                0x000016d8       0x20 ../PepinoBoris_bsp/\libucosii_bsp.a(tk_misc.o)
 .debug_aranges
                0x000016f8       0x20 ../PepinoBoris_bsp/\libucosii_bsp.a(alt_iniche_fcntl.o)
 .debug_aranges
                0x00001718       0x20 ../PepinoBoris_bsp/\libucosii_bsp.a(et_arp.o)
 .debug_aranges
                0x00001738       0x20 ../PepinoBoris_bsp/\libucosii_bsp.a(iface.o)
 .debug_aranges
                0x00001758       0x20 ../PepinoBoris_bsp/\libucosii_bsp.a(ip.o)
 .debug_aranges
                0x00001778       0x20 ../PepinoBoris_bsp/\libucosii_bsp.a(ip_reasm.o)
 .debug_aranges
                0x00001798       0x20 ../PepinoBoris_bsp/\libucosii_bsp.a(ipdemux.o)
 .debug_aranges
                0x000017b8       0x20 ../PepinoBoris_bsp/\libucosii_bsp.a(ipmc.o)
 .debug_aranges
                0x000017d8       0x20 ../PepinoBoris_bsp/\libucosii_bsp.a(ipport.o)
 .debug_aranges
                0x000017f8       0x20 ../PepinoBoris_bsp/\libucosii_bsp.a(ipraw.o)
 .debug_aranges
                0x00001818       0x20 ../PepinoBoris_bsp/\libucosii_bsp.a(iproute.o)
 .debug_aranges
                0x00001838       0x20 ../PepinoBoris_bsp/\libucosii_bsp.a(udp.o)
 .debug_aranges
                0x00001858       0x20 ../PepinoBoris_bsp/\libucosii_bsp.a(igmp.o)
 .debug_aranges
                0x00001878       0x20 ../PepinoBoris_bsp/\libucosii_bsp.a(igmp2.o)
 .debug_aranges
                0x00001898       0x20 ../PepinoBoris_bsp/\libucosii_bsp.a(ipopt.o)
 .debug_aranges
                0x000018b8       0x20 ../PepinoBoris_bsp/\libucosii_bsp.a(u_mctest.o)
 .debug_aranges
                0x000018d8       0x20 ../PepinoBoris_bsp/\libucosii_bsp.a(dhcsetup.o)
 .debug_aranges
                0x000018f8       0x20 ../PepinoBoris_bsp/\libucosii_bsp.a(memdev.o)
 .debug_aranges
                0x00001918       0x20 ../PepinoBoris_bsp/\libucosii_bsp.a(parseip.o)
 .debug_aranges
                0x00001938       0x20 ../PepinoBoris_bsp/\libucosii_bsp.a(tcpcksum.o)
 .debug_aranges
                0x00001958       0x20 ../PepinoBoris_bsp/\libucosii_bsp.a(in_pcb.o)
 .debug_aranges
                0x00001978       0x20 ../PepinoBoris_bsp/\libucosii_bsp.a(vfsfiles.o)
 .debug_aranges
                0x00001998       0x20 ../PepinoBoris_bsp/\libucosii_bsp.a(vfsport.o)
 .debug_aranges
                0x000019b8       0x38 ../PepinoBoris_bsp/\libucosii_bsp.a(alt_exception_entry.o)
 .debug_aranges
                0x000019f0       0x20 ../PepinoBoris_bsp/\libucosii_bsp.a(alt_fcntl.o)
 .debug_aranges
                0x00001a10       0x20 ../PepinoBoris_bsp/\libucosii_bsp.a(alt_find_file.o)
 .debug_aranges
                0x00001a30       0x20 ../PepinoBoris_bsp/\libucosii_bsp.a(alt_get_fd.o)
 .debug_aranges
                0x00001a50       0x20 ../PepinoBoris_bsp/\libucosii_bsp.a(icmp.o)
 .debug_aranges
                0x00001a70       0x20 d:/altera/13.0/nios2eds/bin/gnu/h-i686-mingw32/bin/../lib/gcc/nios2-elf/4.1.2/../../../../nios2-elf/lib\libc.a(lib_a-atexit.o)
 .debug_aranges
                0x00001a90       0x20 d:/altera/13.0/nios2eds/bin/gnu/h-i686-mingw32/bin/../lib/gcc/nios2-elf/4.1.2/../../../../nios2-elf/lib\libc.a(lib_a-atoi.o)
 .debug_aranges
                0x00001ab0       0x20 d:/altera/13.0/nios2eds/bin/gnu/h-i686-mingw32/bin/../lib/gcc/nios2-elf/4.1.2/../../../../nios2-elf/lib\libc.a(lib_a-calloc.o)
 .debug_aranges
                0x00001ad0       0x20 d:/altera/13.0/nios2eds/bin/gnu/h-i686-mingw32/bin/../lib/gcc/nios2-elf/4.1.2/../../../../nios2-elf/lib\libc.a(lib_a-exit.o)
 .debug_aranges
                0x00001af0       0x20 d:/altera/13.0/nios2eds/bin/gnu/h-i686-mingw32/bin/../lib/gcc/nios2-elf/4.1.2/../../../../nios2-elf/lib\libc.a(lib_a-malloc.o)
 .debug_aranges
                0x00001b10       0x20 d:/altera/13.0/nios2eds/bin/gnu/h-i686-mingw32/bin/../lib/gcc/nios2-elf/4.1.2/../../../../nios2-elf/lib\libc.a(lib_a-memcmp.o)
 .debug_aranges
                0x00001b30       0x20 d:/altera/13.0/nios2eds/bin/gnu/h-i686-mingw32/bin/../lib/gcc/nios2-elf/4.1.2/../../../../nios2-elf/lib\libc.a(lib_a-sprintf.o)
 .debug_aranges
                0x00001b50       0x20 d:/altera/13.0/nios2eds/bin/gnu/h-i686-mingw32/bin/../lib/gcc/nios2-elf/4.1.2/../../../../nios2-elf/lib\libc.a(lib_a-strchr.o)
 .debug_aranges
                0x00001b70       0x20 d:/altera/13.0/nios2eds/bin/gnu/h-i686-mingw32/bin/../lib/gcc/nios2-elf/4.1.2/../../../../nios2-elf/lib\libc.a(lib_a-strcpy.o)
 .debug_aranges
                0x00001b90       0x20 d:/altera/13.0/nios2eds/bin/gnu/h-i686-mingw32/bin/../lib/gcc/nios2-elf/4.1.2/../../../../nios2-elf/lib\libc.a(lib_a-strncmp.o)
 .debug_aranges
                0x00001bb0       0x20 d:/altera/13.0/nios2eds/bin/gnu/h-i686-mingw32/bin/../lib/gcc/nios2-elf/4.1.2/../../../../nios2-elf/lib\libc.a(lib_a-strncpy.o)
 .debug_aranges
                0x00001bd0       0x20 d:/altera/13.0/nios2eds/bin/gnu/h-i686-mingw32/bin/../lib/gcc/nios2-elf/4.1.2/../../../../nios2-elf/lib\libc.a(lib_a-strtol.o)
 .debug_aranges
                0x00001bf0       0x20 d:/altera/13.0/nios2eds/bin/gnu/h-i686-mingw32/bin/../lib/gcc/nios2-elf/4.1.2/../../../../nios2-elf/lib\libc.a(lib_a-vprintf.o)
 .debug_aranges
                0x00001c10       0x20 d:/altera/13.0/nios2eds/bin/gnu/h-i686-mingw32/bin/../lib/gcc/nios2-elf/4.1.2/../../../../nios2-elf/lib\libc.a(lib_a-vsprintf.o)
 .debug_aranges
                0x00001c30       0x20 d:/altera/13.0/nios2eds/bin/gnu/h-i686-mingw32/bin/../lib/gcc/nios2-elf/4.1.2/../../../../nios2-elf/lib\libc.a(lib_a-__atexit.o)
 .debug_aranges
                0x00001c50       0x20 d:/altera/13.0/nios2eds/bin/gnu/h-i686-mingw32/bin/../lib/gcc/nios2-elf/4.1.2/../../../../nios2-elf/lib\libc.a(lib_a-__call_atexit.o)
 .debug_aranges
                0x00001c70       0x20 ../PepinoBoris_bsp/\libucosii_bsp.a(alt_exit.o)

.debug_pubnames
                0x00000000     0x5d13
 *(.debug_pubnames)
 .debug_pubnames
                0x00000000       0x68 obj/default/VGA.o
 .debug_pubnames
                0x00000068       0x61 obj/default/alt_error_handler.o
 .debug_pubnames
                0x000000c9      0x102 obj/default/dm9000a.o
 .debug_pubnames
                0x000001cb       0x5f obj/default/iniche_init.o
 .debug_pubnames
                0x0000022a       0x54 obj/default/led.o
 .debug_pubnames
                0x0000027e       0x46 obj/default/my_threads.o
 .debug_pubnames
                0x000002c4       0xe7 obj/default/network_utilities.o
 .debug_pubnames
                0x000003ab       0xba obj/default/sdcard/my_sdcard.o
 .debug_pubnames
                0x00000465      0x199 obj/default/simple_socket_server.o
 .debug_pubnames
                0x000005fe       0x23 d:/altera/13.0/nios2eds/bin/gnu/h-i686-mingw32/bin/../lib/gcc/nios2-elf/4.1.2\libgcc.a(_fixunsdfsi.o)
 .debug_pubnames
                0x00000621       0x2c d:/altera/13.0/nios2eds/bin/gnu/h-i686-mingw32/bin/../lib/gcc/nios2-elf/4.1.2\libgcc.a(_addsub_sf.o)
 .debug_pubnames
                0x0000064d       0x1f d:/altera/13.0/nios2eds/bin/gnu/h-i686-mingw32/bin/../lib/gcc/nios2-elf/4.1.2\libgcc.a(_mul_sf.o)
 .debug_pubnames
                0x0000066c       0x1f d:/altera/13.0/nios2eds/bin/gnu/h-i686-mingw32/bin/../lib/gcc/nios2-elf/4.1.2\libgcc.a(_div_sf.o)
 .debug_pubnames
                0x0000068b       0x20 d:/altera/13.0/nios2eds/bin/gnu/h-i686-mingw32/bin/../lib/gcc/nios2-elf/4.1.2\libgcc.a(_sf_to_si.o)
 .debug_pubnames
                0x000006ab       0x22 d:/altera/13.0/nios2eds/bin/gnu/h-i686-mingw32/bin/../lib/gcc/nios2-elf/4.1.2\libgcc.a(_thenan_sf.o)
 .debug_pubnames
                0x000006cd       0x24 d:/altera/13.0/nios2eds/bin/gnu/h-i686-mingw32/bin/../lib/gcc/nios2-elf/4.1.2\libgcc.a(_usi_to_sf.o)
 .debug_pubnames
                0x000006f1       0x2c d:/altera/13.0/nios2eds/bin/gnu/h-i686-mingw32/bin/../lib/gcc/nios2-elf/4.1.2\libgcc.a(_addsub_df.o)
 .debug_pubnames
                0x0000071d       0x1f d:/altera/13.0/nios2eds/bin/gnu/h-i686-mingw32/bin/../lib/gcc/nios2-elf/4.1.2\libgcc.a(_mul_df.o)
 .debug_pubnames
                0x0000073c       0x1e d:/altera/13.0/nios2eds/bin/gnu/h-i686-mingw32/bin/../lib/gcc/nios2-elf/4.1.2\libgcc.a(_ge_df.o)
 .debug_pubnames
                0x0000075a       0x20 d:/altera/13.0/nios2eds/bin/gnu/h-i686-mingw32/bin/../lib/gcc/nios2-elf/4.1.2\libgcc.a(_df_to_si.o)
 .debug_pubnames
                0x0000077a       0x22 d:/altera/13.0/nios2eds/bin/gnu/h-i686-mingw32/bin/../lib/gcc/nios2-elf/4.1.2\libgcc.a(_thenan_df.o)
 .debug_pubnames
                0x0000079c       0x24 d:/altera/13.0/nios2eds/bin/gnu/h-i686-mingw32/bin/../lib/gcc/nios2-elf/4.1.2\libgcc.a(_usi_to_df.o)
 .debug_pubnames
                0x000007c0       0x1f d:/altera/13.0/nios2eds/bin/gnu/h-i686-mingw32/bin/../lib/gcc/nios2-elf/4.1.2\libgcc.a(_muldi3.o)
 .debug_pubnames
                0x000007df       0x1f d:/altera/13.0/nios2eds/bin/gnu/h-i686-mingw32/bin/../lib/gcc/nios2-elf/4.1.2\libgcc.a(_clzsi2.o)
 .debug_pubnames
                0x000007fe       0x1f d:/altera/13.0/nios2eds/bin/gnu/h-i686-mingw32/bin/../lib/gcc/nios2-elf/4.1.2\libgcc.a(_pack_sf.o)
 .debug_pubnames
                0x0000081d       0x21 d:/altera/13.0/nios2eds/bin/gnu/h-i686-mingw32/bin/../lib/gcc/nios2-elf/4.1.2\libgcc.a(_unpack_sf.o)
 .debug_pubnames
                0x0000083e       0x1f d:/altera/13.0/nios2eds/bin/gnu/h-i686-mingw32/bin/../lib/gcc/nios2-elf/4.1.2\libgcc.a(_pack_df.o)
 .debug_pubnames
                0x0000085d       0x21 d:/altera/13.0/nios2eds/bin/gnu/h-i686-mingw32/bin/../lib/gcc/nios2-elf/4.1.2\libgcc.a(_unpack_df.o)
 .debug_pubnames
                0x0000087e       0x26 d:/altera/13.0/nios2eds/bin/gnu/h-i686-mingw32/bin/../lib/gcc/nios2-elf/4.1.2\libgcc.a(_fpcmp_parts_df.o)
 .debug_pubnames
                0x000008a4       0x20 d:/altera/13.0/nios2eds/bin/gnu/h-i686-mingw32/bin/../lib/gcc/nios2-elf/4.1.2\libgcc.a(_clz.o)
 .debug_pubnames
                0x000008c4       0x2e d:/altera/13.0/nios2eds/bin/gnu/h-i686-mingw32/bin/../lib/gcc/nios2-elf/4.1.2/../../../../nios2-elf/lib\libc.a(lib_a-ctype_.o)
 .debug_pubnames
                0x000008f2       0x2d d:/altera/13.0/nios2eds/bin/gnu/h-i686-mingw32/bin/../lib/gcc/nios2-elf/4.1.2/../../../../nios2-elf/lib\libc.a(lib_a-fprintf.o)
 .debug_pubnames
                0x0000091f       0x2b d:/altera/13.0/nios2eds/bin/gnu/h-i686-mingw32/bin/../lib/gcc/nios2-elf/4.1.2/../../../../nios2-elf/lib\libc.a(lib_a-fwrite.o)
 .debug_pubnames
                0x0000094a       0x27 d:/altera/13.0/nios2eds/bin/gnu/h-i686-mingw32/bin/../lib/gcc/nios2-elf/4.1.2/../../../../nios2-elf/lib\libc.a(lib_a-getc.o)
 .debug_pubnames
                0x00000971       0x39 d:/altera/13.0/nios2eds/bin/gnu/h-i686-mingw32/bin/../lib/gcc/nios2-elf/4.1.2/../../../../nios2-elf/lib\libc.a(lib_a-impure.o)
 .debug_pubnames
                0x000009aa       0x1d d:/altera/13.0/nios2eds/bin/gnu/h-i686-mingw32/bin/../lib/gcc/nios2-elf/4.1.2/../../../../nios2-elf/lib\libc.a(lib_a-memset.o)
 .debug_pubnames
                0x000009c7       0x2b d:/altera/13.0/nios2eds/bin/gnu/h-i686-mingw32/bin/../lib/gcc/nios2-elf/4.1.2/../../../../nios2-elf/lib\libc.a(lib_a-perror.o)
 .debug_pubnames
                0x000009f2       0x2b d:/altera/13.0/nios2eds/bin/gnu/h-i686-mingw32/bin/../lib/gcc/nios2-elf/4.1.2/../../../../nios2-elf/lib\libc.a(lib_a-printf.o)
 .debug_pubnames
                0x00000a1d       0x27 d:/altera/13.0/nios2eds/bin/gnu/h-i686-mingw32/bin/../lib/gcc/nios2-elf/4.1.2/../../../../nios2-elf/lib\libc.a(lib_a-putc.o)
 .debug_pubnames
                0x00000a44       0x2d d:/altera/13.0/nios2eds/bin/gnu/h-i686-mingw32/bin/../lib/gcc/nios2-elf/4.1.2/../../../../nios2-elf/lib\libc.a(lib_a-putchar.o)
 .debug_pubnames
                0x00000a71       0x27 d:/altera/13.0/nios2eds/bin/gnu/h-i686-mingw32/bin/../lib/gcc/nios2-elf/4.1.2/../../../../nios2-elf/lib\libc.a(lib_a-puts.o)
 .debug_pubnames
                0x00000a98       0x2c d:/altera/13.0/nios2eds/bin/gnu/h-i686-mingw32/bin/../lib/gcc/nios2-elf/4.1.2/../../../../nios2-elf/lib\libc.a(lib_a-rget.o)
 .debug_pubnames
                0x00000ac4       0x1f d:/altera/13.0/nios2eds/bin/gnu/h-i686-mingw32/bin/../lib/gcc/nios2-elf/4.1.2/../../../../nios2-elf/lib\libc.a(lib_a-strerror.o)
 .debug_pubnames
                0x00000ae3       0x1d d:/altera/13.0/nios2eds/bin/gnu/h-i686-mingw32/bin/../lib/gcc/nios2-elf/4.1.2/../../../../nios2-elf/lib\libc.a(lib_a-strlen.o)
 .debug_pubnames
                0x00000b00       0x25 d:/altera/13.0/nios2eds/bin/gnu/h-i686-mingw32/bin/../lib/gcc/nios2-elf/4.1.2/../../../../nios2-elf/lib\libc.a(lib_a-u_strerr.o)
 .debug_pubnames
                0x00000b25       0x45 d:/altera/13.0/nios2eds/bin/gnu/h-i686-mingw32/bin/../lib/gcc/nios2-elf/4.1.2/../../../../nios2-elf/lib\libc.a(lib_a-vfprintf.o)
 .debug_pubnames
                0x00000b6a       0x2c d:/altera/13.0/nios2eds/bin/gnu/h-i686-mingw32/bin/../lib/gcc/nios2-elf/4.1.2/../../../../nios2-elf/lib\libc.a(lib_a-wbuf.o)
 .debug_pubnames
                0x00000b96       0x22 d:/altera/13.0/nios2eds/bin/gnu/h-i686-mingw32/bin/../lib/gcc/nios2-elf/4.1.2/../../../../nios2-elf/lib\libc.a(lib_a-wsetup.o)
 .debug_pubnames
                0x00000bb8       0x1e d:/altera/13.0/nios2eds/bin/gnu/h-i686-mingw32/bin/../lib/gcc/nios2-elf/4.1.2/../../../../nios2-elf/lib\libc.a(lib_a-dtoa.o)
 .debug_pubnames
                0x00000bd6       0x2b d:/altera/13.0/nios2eds/bin/gnu/h-i686-mingw32/bin/../lib/gcc/nios2-elf/4.1.2/../../../../nios2-elf/lib\libc.a(lib_a-fflush.o)
 .debug_pubnames
                0x00000c01       0xdb d:/altera/13.0/nios2eds/bin/gnu/h-i686-mingw32/bin/../lib/gcc/nios2-elf/4.1.2/../../../../nios2-elf/lib\libc.a(lib_a-findfp.o)
 .debug_pubnames
                0x00000cdc       0x29 d:/altera/13.0/nios2eds/bin/gnu/h-i686-mingw32/bin/../lib/gcc/nios2-elf/4.1.2/../../../../nios2-elf/lib\libc.a(lib_a-fputc.o)
 .debug_pubnames
                0x00000d05       0x29 d:/altera/13.0/nios2eds/bin/gnu/h-i686-mingw32/bin/../lib/gcc/nios2-elf/4.1.2/../../../../nios2-elf/lib\libc.a(lib_a-fputs.o)
 .debug_pubnames
                0x00000d2e       0x31 d:/altera/13.0/nios2eds/bin/gnu/h-i686-mingw32/bin/../lib/gcc/nios2-elf/4.1.2/../../../../nios2-elf/lib\libc.a(lib_a-freer.o)
 .debug_pubnames
                0x00000d5f       0x23 d:/altera/13.0/nios2eds/bin/gnu/h-i686-mingw32/bin/../lib/gcc/nios2-elf/4.1.2/../../../../nios2-elf/lib\libc.a(lib_a-fvwrite.o)
 .debug_pubnames
                0x00000d82       0x2e d:/altera/13.0/nios2eds/bin/gnu/h-i686-mingw32/bin/../lib/gcc/nios2-elf/4.1.2/../../../../nios2-elf/lib\libc.a(lib_a-fwalk.o)
 .debug_pubnames
                0x00000db0       0xc3 d:/altera/13.0/nios2eds/bin/gnu/h-i686-mingw32/bin/../lib/gcc/nios2-elf/4.1.2/../../../../nios2-elf/lib\libc.a(lib_a-locale.o)
 .debug_pubnames
                0x00000e73       0x23 d:/altera/13.0/nios2eds/bin/gnu/h-i686-mingw32/bin/../lib/gcc/nios2-elf/4.1.2/../../../../nios2-elf/lib\libc.a(lib_a-makebuf.o)
 .debug_pubnames
                0x00000e96       0xce d:/altera/13.0/nios2eds/bin/gnu/h-i686-mingw32/bin/../lib/gcc/nios2-elf/4.1.2/../../../../nios2-elf/lib\libc.a(lib_a-mallocr.o)
 .debug_pubnames
                0x00000f64       0x1d d:/altera/13.0/nios2eds/bin/gnu/h-i686-mingw32/bin/../lib/gcc/nios2-elf/4.1.2/../../../../nios2-elf/lib\libc.a(lib_a-memchr.o)
 .debug_pubnames
                0x00000f81       0x1d d:/altera/13.0/nios2eds/bin/gnu/h-i686-mingw32/bin/../lib/gcc/nios2-elf/4.1.2/../../../../nios2-elf/lib\libc.a(lib_a-memcpy.o)
 .debug_pubnames
                0x00000f9e       0x1e d:/altera/13.0/nios2eds/bin/gnu/h-i686-mingw32/bin/../lib/gcc/nios2-elf/4.1.2/../../../../nios2-elf/lib\libc.a(lib_a-memmove.o)
 .debug_pubnames
                0x00000fbc      0x13a d:/altera/13.0/nios2eds/bin/gnu/h-i686-mingw32/bin/../lib/gcc/nios2-elf/4.1.2/../../../../nios2-elf/lib\libc.a(lib_a-mprec.o)
 .debug_pubnames
                0x000010f6       0x21 d:/altera/13.0/nios2eds/bin/gnu/h-i686-mingw32/bin/../lib/gcc/nios2-elf/4.1.2/../../../../nios2-elf/lib\libc.a(lib_a-reallocr.o)
 .debug_pubnames
                0x00001117       0x22 d:/altera/13.0/nios2eds/bin/gnu/h-i686-mingw32/bin/../lib/gcc/nios2-elf/4.1.2/../../../../nios2-elf/lib\libc.a(lib_a-refill.o)
 .debug_pubnames
                0x00001139       0x1f d:/altera/13.0/nios2eds/bin/gnu/h-i686-mingw32/bin/../lib/gcc/nios2-elf/4.1.2/../../../../nios2-elf/lib\libc.a(lib_a-s_isinfd.o)
 .debug_pubnames
                0x00001158       0x1f d:/altera/13.0/nios2eds/bin/gnu/h-i686-mingw32/bin/../lib/gcc/nios2-elf/4.1.2/../../../../nios2-elf/lib\libc.a(lib_a-s_isnand.o)
 .debug_pubnames
                0x00001177       0x1e d:/altera/13.0/nios2eds/bin/gnu/h-i686-mingw32/bin/../lib/gcc/nios2-elf/4.1.2/../../../../nios2-elf/lib\libc.a(lib_a-sbrkr.o)
 .debug_pubnames
                0x00001195       0x44 d:/altera/13.0/nios2eds/bin/gnu/h-i686-mingw32/bin/../lib/gcc/nios2-elf/4.1.2/../../../../nios2-elf/lib\libc.a(lib_a-stdio.o)
 .debug_pubnames
                0x000011d9       0x1d d:/altera/13.0/nios2eds/bin/gnu/h-i686-mingw32/bin/../lib/gcc/nios2-elf/4.1.2/../../../../nios2-elf/lib\libc.a(lib_a-strcmp.o)
 .debug_pubnames
                0x000011f6       0x1f d:/altera/13.0/nios2eds/bin/gnu/h-i686-mingw32/bin/../lib/gcc/nios2-elf/4.1.2/../../../../nios2-elf/lib\libc.a(lib_a-writer.o)
 .debug_pubnames
                0x00001215       0x20 d:/altera/13.0/nios2eds/bin/gnu/h-i686-mingw32/bin/../lib/gcc/nios2-elf/4.1.2/../../../../nios2-elf/lib\libc.a(lib_a-callocr.o)
 .debug_pubnames
                0x00001235       0x1f d:/altera/13.0/nios2eds/bin/gnu/h-i686-mingw32/bin/../lib/gcc/nios2-elf/4.1.2/../../../../nios2-elf/lib\libc.a(lib_a-closer.o)
 .debug_pubnames
                0x00001254       0x2b d:/altera/13.0/nios2eds/bin/gnu/h-i686-mingw32/bin/../lib/gcc/nios2-elf/4.1.2/../../../../nios2-elf/lib\libc.a(lib_a-fclose.o)
 .debug_pubnames
                0x0000127f       0x1f d:/altera/13.0/nios2eds/bin/gnu/h-i686-mingw32/bin/../lib/gcc/nios2-elf/4.1.2/../../../../nios2-elf/lib\libc.a(lib_a-fstatr.o)
 .debug_pubnames
                0x0000129e       0x1c d:/altera/13.0/nios2eds/bin/gnu/h-i686-mingw32/bin/../lib/gcc/nios2-elf/4.1.2/../../../../nios2-elf/lib\libc.a(lib_a-int_errno.o)
 .debug_pubnames
                0x000012ba       0x20 d:/altera/13.0/nios2eds/bin/gnu/h-i686-mingw32/bin/../lib/gcc/nios2-elf/4.1.2/../../../../nios2-elf/lib\libc.a(lib_a-isattyr.o)
 .debug_pubnames
                0x000012da       0x1f d:/altera/13.0/nios2eds/bin/gnu/h-i686-mingw32/bin/../lib/gcc/nios2-elf/4.1.2/../../../../nios2-elf/lib\libc.a(lib_a-lseekr.o)
 .debug_pubnames
                0x000012f9       0x1e d:/altera/13.0/nios2eds/bin/gnu/h-i686-mingw32/bin/../lib/gcc/nios2-elf/4.1.2/../../../../nios2-elf/lib\libc.a(lib_a-readr.o)
 .debug_pubnames
                0x00001317       0x20 d:/altera/13.0/nios2eds/bin/gnu/h-i686-mingw32/bin/../lib/gcc/nios2-elf/4.1.2\libgcc.a(_udivdi3.o)
 .debug_pubnames
                0x00001337       0x20 d:/altera/13.0/nios2eds/bin/gnu/h-i686-mingw32/bin/../lib/gcc/nios2-elf/4.1.2\libgcc.a(_umoddi3.o)
 .debug_pubnames
                0x00001357       0x1f d:/altera/13.0/nios2eds/bin/gnu/h-i686-mingw32/bin/../lib/gcc/nios2-elf/4.1.2\libgcc.a(_div_df.o)
 .debug_pubnames
                0x00001376       0x1e d:/altera/13.0/nios2eds/bin/gnu/h-i686-mingw32/bin/../lib/gcc/nios2-elf/4.1.2\libgcc.a(_eq_df.o)
 .debug_pubnames
                0x00001394       0x1e d:/altera/13.0/nios2eds/bin/gnu/h-i686-mingw32/bin/../lib/gcc/nios2-elf/4.1.2\libgcc.a(_ne_df.o)
 .debug_pubnames
                0x000013b2       0x1e d:/altera/13.0/nios2eds/bin/gnu/h-i686-mingw32/bin/../lib/gcc/nios2-elf/4.1.2\libgcc.a(_gt_df.o)
 .debug_pubnames
                0x000013d0       0x1e d:/altera/13.0/nios2eds/bin/gnu/h-i686-mingw32/bin/../lib/gcc/nios2-elf/4.1.2\libgcc.a(_lt_df.o)
 .debug_pubnames
                0x000013ee       0x22 d:/altera/13.0/nios2eds/bin/gnu/h-i686-mingw32/bin/../lib/gcc/nios2-elf/4.1.2\libgcc.a(_si_to_df.o)
 .debug_pubnames
                0x00001410       0x48 d:/altera/13.0/nios2eds/bin/gnu/h-i686-mingw32/bin/../lib/gcc/nios2-elf/4.1.2\libgcc.a(lib2-divmod.o)
 .debug_pubnames
                0x00001458       0x58 ../PepinoBoris_bsp/\libucosii_bsp.a(alt_flash_dev.o)
 .debug_pubnames
                0x000014b0       0x1c ../PepinoBoris_bsp/\libucosii_bsp.a(alt_fstat.o)
 .debug_pubnames
                0x000014cc       0x27 ../PepinoBoris_bsp/\libucosii_bsp.a(alt_irq_register.o)
 .debug_pubnames
                0x000014f3       0x3b ../PepinoBoris_bsp/\libucosii_bsp.a(alt_irq_vars.o)
 .debug_pubnames
                0x0000152e       0x1d ../PepinoBoris_bsp/\libucosii_bsp.a(alt_isatty.o)
 .debug_pubnames
                0x0000154b       0x1c ../PepinoBoris_bsp/\libucosii_bsp.a(alt_lseek.o)
 .debug_pubnames
                0x00001567       0x46 ../PepinoBoris_bsp/\libucosii_bsp.a(alt_main.o)
 .debug_pubnames
                0x000015ad       0x1b ../PepinoBoris_bsp/\libucosii_bsp.a(alt_sbrk.o)
 .debug_pubnames
                0x000015c8       0x1d ../PepinoBoris_bsp/\libucosii_bsp.a(alt_usleep.o)
 .debug_pubnames
                0x000015e5       0x41 ../PepinoBoris_bsp/\libucosii_bsp.a(alt_env_lock.o)
 .debug_pubnames
                0x00001626       0x48 ../PepinoBoris_bsp/\libucosii_bsp.a(alt_malloc_lock.o)
 .debug_pubnames
                0x0000166e      0x3f8 ../PepinoBoris_bsp/\libucosii_bsp.a(os_core.o)
 .debug_pubnames
                0x00001a66      0x3c5 ../PepinoBoris_bsp/\libucosii_bsp.a(os_dbg.o)
 .debug_pubnames
                0x00001e2b       0xd0 ../PepinoBoris_bsp/\libucosii_bsp.a(os_flag.o)
 .debug_pubnames
                0x00001efb       0x7c ../PepinoBoris_bsp/\libucosii_bsp.a(os_mem.o)
 .debug_pubnames
                0x00001f77       0xa9 ../PepinoBoris_bsp/\libucosii_bsp.a(os_q.o)
 .debug_pubnames
                0x00002020       0x8a ../PepinoBoris_bsp/\libucosii_bsp.a(os_sem.o)
 .debug_pubnames
                0x000020aa       0xe5 ../PepinoBoris_bsp/\libucosii_bsp.a(os_task.o)
 .debug_pubnames
                0x0000218f       0x62 ../PepinoBoris_bsp/\libucosii_bsp.a(os_time.o)
 .debug_pubnames
                0x000021f1       0x34 ../PepinoBoris_bsp/\libucosii_bsp.a(alt_sys_init.o)
 .debug_pubnames
                0x00002225       0xac ../PepinoBoris_bsp/\libucosii_bsp.a(altera_avalon_cfi_flash.o)
 .debug_pubnames
                0x000022d1      0x27a ../PepinoBoris_bsp/\libucosii_bsp.a(altera_avalon_cfi_flash_table.o)
 .debug_pubnames
                0x0000254b       0xb5 ../PepinoBoris_bsp/\libucosii_bsp.a(altera_avalon_epcs_flash_controller.o)
 .debug_pubnames
                0x00002600       0xa5 ../PepinoBoris_bsp/\libucosii_bsp.a(altera_avalon_jtag_uart_fd.o)
 .debug_pubnames
                0x000026a5       0x55 ../PepinoBoris_bsp/\libucosii_bsp.a(altera_avalon_jtag_uart_init.o)
 .debug_pubnames
                0x000026fa       0x34 ../PepinoBoris_bsp/\libucosii_bsp.a(altera_avalon_jtag_uart_ioctl.o)
 .debug_pubnames
                0x0000272e       0x33 ../PepinoBoris_bsp/\libucosii_bsp.a(altera_avalon_jtag_uart_read.o)
 .debug_pubnames
                0x00002761       0x34 ../PepinoBoris_bsp/\libucosii_bsp.a(altera_avalon_jtag_uart_write.o)
 .debug_pubnames
                0x00002795       0x55 ../PepinoBoris_bsp/\libucosii_bsp.a(altera_avalon_lcd_16207.o)
 .debug_pubnames
                0x000027ea       0x37 ../PepinoBoris_bsp/\libucosii_bsp.a(altera_avalon_lcd_16207_fd.o)
 .debug_pubnames
                0x00002821       0x2f ../PepinoBoris_bsp/\libucosii_bsp.a(altera_avalon_timer_sc.o)
 .debug_pubnames
                0x00002850       0x71 ../PepinoBoris_bsp/\libucosii_bsp.a(altera_avalon_uart_fd.o)
 .debug_pubnames
                0x000028c1       0x4b ../PepinoBoris_bsp/\libucosii_bsp.a(altera_avalon_uart_init.o)
 .debug_pubnames
                0x0000290c       0x2e ../PepinoBoris_bsp/\libucosii_bsp.a(altera_avalon_uart_read.o)
 .debug_pubnames
                0x0000293a       0x2f ../PepinoBoris_bsp/\libucosii_bsp.a(altera_avalon_uart_write.o)
 .debug_pubnames
                0x00002969      0x552 ../PepinoBoris_bsp/\libucosii_bsp.a(altera_up_sd_card_avalon_interface.o)
 .debug_pubnames
                0x00002ebb      0x118 ../PepinoBoris_bsp/\libucosii_bsp.a(epcs_commands.o)
 .debug_pubnames
                0x00002fd3       0x1c ../PepinoBoris_bsp/\libucosii_bsp.a(alt_iniche_close.o)
 .debug_pubnames
                0x00002fef       0x42 ../PepinoBoris_bsp/\libucosii_bsp.a(alt_iniche_dev.o)
 .debug_pubnames
                0x00003031       0x1b ../PepinoBoris_bsp/\libucosii_bsp.a(alt_iniche_read.o)
 .debug_pubnames
                0x0000304c       0x1c ../PepinoBoris_bsp/\libucosii_bsp.a(alt_iniche_write.o)
 .debug_pubnames
                0x00003068       0x90 ../PepinoBoris_bsp/\libucosii_bsp.a(ipnet.o)
 .debug_pubnames
                0x000030f8       0x81 ../PepinoBoris_bsp/\libucosii_bsp.a(ipstart.o)
 .debug_pubnames
                0x00003179      0x108 ../PepinoBoris_bsp/\libucosii_bsp.a(igmp_cmn.o)
 .debug_pubnames
                0x00003281       0xc4 ../PepinoBoris_bsp/\libucosii_bsp.a(bsdsock.o)
 .debug_pubnames
                0x00003345       0x27 ../PepinoBoris_bsp/\libucosii_bsp.a(cksum.o)
 .debug_pubnames
                0x0000336c       0xcc ../PepinoBoris_bsp/\libucosii_bsp.a(in_utils.o)
 .debug_pubnames
                0x00003438       0xb2 ../PepinoBoris_bsp/\libucosii_bsp.a(netmain.o)
 .debug_pubnames
                0x000034ea       0x97 ../PepinoBoris_bsp/\libucosii_bsp.a(tk_crnos.o)
 .debug_pubnames
                0x00003581      0x252 ../PepinoBoris_bsp/\libucosii_bsp.a(dhcpclnt.o)
 .debug_pubnames
                0x000037d3       0x1f ../PepinoBoris_bsp/\libucosii_bsp.a(dhcputil.o)
 .debug_pubnames
                0x000037f2       0xe2 ../PepinoBoris_bsp/\libucosii_bsp.a(pktalloc.o)
 .debug_pubnames
                0x000038d4       0x2d ../PepinoBoris_bsp/\libucosii_bsp.a(q.o)
 .debug_pubnames
                0x00003901       0x3a ../PepinoBoris_bsp/\libucosii_bsp.a(udp_open.o)
 .debug_pubnames
                0x0000393b       0xc5 ../PepinoBoris_bsp/\libucosii_bsp.a(brdutils.o)
 .debug_pubnames
                0x00003a00      0x10c ../PepinoBoris_bsp/\libucosii_bsp.a(osportco.o)
 .debug_pubnames
                0x00003b0c       0xf5 ../PepinoBoris_bsp/\libucosii_bsp.a(targnios.o)
 .debug_pubnames
                0x00003c01      0x190 ../PepinoBoris_bsp/\libucosii_bsp.a(nptcp.o)
 .debug_pubnames
                0x00003d91       0x46 ../PepinoBoris_bsp/\libucosii_bsp.a(rawsock.o)
 .debug_pubnames
                0x00003dd7      0x108 ../PepinoBoris_bsp/\libucosii_bsp.a(sockcall.o)
 .debug_pubnames
                0x00003edf       0xfc ../PepinoBoris_bsp/\libucosii_bsp.a(socket.o)
 .debug_pubnames
                0x00003fdb      0x178 ../PepinoBoris_bsp/\libucosii_bsp.a(socket2.o)
 .debug_pubnames
                0x00004153       0x92 ../PepinoBoris_bsp/\libucosii_bsp.a(soselect.o)
 .debug_pubnames
                0x000041e5       0xc2 ../PepinoBoris_bsp/\libucosii_bsp.a(tcp_in.o)
 .debug_pubnames
                0x000042a7       0x57 ../PepinoBoris_bsp/\libucosii_bsp.a(tcp_out.o)
 .debug_pubnames
                0x000042fe       0xb9 ../PepinoBoris_bsp/\libucosii_bsp.a(tcp_subr.o)
 .debug_pubnames
                0x000043b7       0x96 ../PepinoBoris_bsp/\libucosii_bsp.a(tcp_timr.o)
 .debug_pubnames
                0x0000444d       0x79 ../PepinoBoris_bsp/\libucosii_bsp.a(tcp_usr.o)
 .debug_pubnames
                0x000044c6       0x1e ../PepinoBoris_bsp/\libucosii_bsp.a(tcpport.o)
 .debug_pubnames
                0x000044e4       0x76 ../PepinoBoris_bsp/\libucosii_bsp.a(udpsock.o)
 .debug_pubnames
                0x0000455a       0x26 ../PepinoBoris_bsp/\libucosii_bsp.a(alt_alarm_start.o)
 .debug_pubnames
                0x00004580       0x25 ../PepinoBoris_bsp/\libucosii_bsp.a(alt_busy_sleep.o)
 .debug_pubnames
                0x000045a5       0x20 ../PepinoBoris_bsp/\libucosii_bsp.a(alt_close.o)
 .debug_pubnames
                0x000045c5       0x27 ../PepinoBoris_bsp/\libucosii_bsp.a(alt_dcache_flush.o)
 .debug_pubnames
                0x000045ec       0x78 ../PepinoBoris_bsp/\libucosii_bsp.a(alt_dev.o)
 .debug_pubnames
                0x00004664       0x2b ../PepinoBoris_bsp/\libucosii_bsp.a(alt_dev_llist_insert.o)
 .debug_pubnames
                0x0000468f       0x20 ../PepinoBoris_bsp/\libucosii_bsp.a(alt_do_ctors.o)
 .debug_pubnames
                0x000046af       0x20 ../PepinoBoris_bsp/\libucosii_bsp.a(alt_do_dtors.o)
 .debug_pubnames
                0x000046cf       0x20 ../PepinoBoris_bsp/\libucosii_bsp.a(alt_errno.o)
 .debug_pubnames
                0x000046ef       0x23 ../PepinoBoris_bsp/\libucosii_bsp.a(alt_find_dev.o)
 .debug_pubnames
                0x00004712       0x6e ../PepinoBoris_bsp/\libucosii_bsp.a(alt_iic.o)
 .debug_pubnames
                0x00004780       0x2b ../PepinoBoris_bsp/\libucosii_bsp.a(alt_iic_isr_register.o)
 .debug_pubnames
                0x000047ab       0x26 ../PepinoBoris_bsp/\libucosii_bsp.a(alt_io_redirect.o)
 .debug_pubnames
                0x000047d1       0x32 ../PepinoBoris_bsp/\libucosii_bsp.a(alt_irq_handler.o)
 .debug_pubnames
                0x00004803       0x1b ../PepinoBoris_bsp/\libucosii_bsp.a(alt_open.o)
 .debug_pubnames
                0x0000481e       0x1f ../PepinoBoris_bsp/\libucosii_bsp.a(alt_read.o)
 .debug_pubnames
                0x0000483d       0x25 ../PepinoBoris_bsp/\libucosii_bsp.a(alt_release_fd.o)
 .debug_pubnames
                0x00004862       0x27 ../PepinoBoris_bsp/\libucosii_bsp.a(alt_remap_cached.o)
 .debug_pubnames
                0x00004889       0x29 ../PepinoBoris_bsp/\libucosii_bsp.a(alt_remap_uncached.o)
 .debug_pubnames
                0x000048b2       0x68 ../PepinoBoris_bsp/\libucosii_bsp.a(alt_tick.o)
 .debug_pubnames
                0x0000491a       0x20 ../PepinoBoris_bsp/\libucosii_bsp.a(alt_write.o)
 .debug_pubnames
                0x0000493a       0x31 ../PepinoBoris_bsp/\libucosii_bsp.a(altera_nios2_qsys_irq.o)
 .debug_pubnames
                0x0000496b       0xcd ../PepinoBoris_bsp/\libucosii_bsp.a(os_cpu_c.o)
 .debug_pubnames
                0x00004a38       0x3e ../PepinoBoris_bsp/\libucosii_bsp.a(altera_avalon_cfi_flash_amd.o)
 .debug_pubnames
                0x00004a76       0x42 ../PepinoBoris_bsp/\libucosii_bsp.a(altera_avalon_cfi_flash_intel.o)
 .debug_pubnames
                0x00004ab8       0x2d ../PepinoBoris_bsp/\libucosii_bsp.a(altera_avalon_spi.o)
 .debug_pubnames
                0x00004ae5       0xd4 ../PepinoBoris_bsp/\libucosii_bsp.a(allports.o)
 .debug_pubnames
                0x00004bb9       0x6f ../PepinoBoris_bsp/\libucosii_bsp.a(timeouts.o)
 .debug_pubnames
                0x00004c28       0x35 ../PepinoBoris_bsp/\libucosii_bsp.a(tk_misc.o)
 .debug_pubnames
                0x00004c5d       0x1c ../PepinoBoris_bsp/\libucosii_bsp.a(alt_iniche_fcntl.o)
 .debug_pubnames
                0x00004c79      0x134 ../PepinoBoris_bsp/\libucosii_bsp.a(et_arp.o)
 .debug_pubnames
                0x00004dad       0x58 ../PepinoBoris_bsp/\libucosii_bsp.a(iface.o)
 .debug_pubnames
                0x00004e05       0xea ../PepinoBoris_bsp/\libucosii_bsp.a(ip.o)
 .debug_pubnames
                0x00004eef      0x22e ../PepinoBoris_bsp/\libucosii_bsp.a(ip_reasm.o)
 .debug_pubnames
                0x0000511d       0x3c ../PepinoBoris_bsp/\libucosii_bsp.a(ipdemux.o)
 .debug_pubnames
                0x00005159       0x43 ../PepinoBoris_bsp/\libucosii_bsp.a(ipmc.o)
 .debug_pubnames
                0x0000519c       0x99 ../PepinoBoris_bsp/\libucosii_bsp.a(ipport.o)
 .debug_pubnames
                0x00005235       0x87 ../PepinoBoris_bsp/\libucosii_bsp.a(ipraw.o)
 .debug_pubnames
                0x000052bc       0x5d ../PepinoBoris_bsp/\libucosii_bsp.a(iproute.o)
 .debug_pubnames
                0x00005319       0x7f ../PepinoBoris_bsp/\libucosii_bsp.a(udp.o)
 .debug_pubnames
                0x00005398       0x23 ../PepinoBoris_bsp/\libucosii_bsp.a(igmp.o)
 .debug_pubnames
                0x000053bb       0x8d ../PepinoBoris_bsp/\libucosii_bsp.a(igmp2.o)
 .debug_pubnames
                0x00005448       0x5f ../PepinoBoris_bsp/\libucosii_bsp.a(ipopt.o)
 .debug_pubnames
                0x000054a7       0x35 ../PepinoBoris_bsp/\libucosii_bsp.a(u_mctest.o)
 .debug_pubnames
                0x000054dc       0x33 ../PepinoBoris_bsp/\libucosii_bsp.a(dhcsetup.o)
 .debug_pubnames
                0x0000550f       0xb1 ../PepinoBoris_bsp/\libucosii_bsp.a(memdev.o)
 .debug_pubnames
                0x000055c0       0xa6 ../PepinoBoris_bsp/\libucosii_bsp.a(parseip.o)
 .debug_pubnames
                0x00005666       0x20 ../PepinoBoris_bsp/\libucosii_bsp.a(tcpcksum.o)
 .debug_pubnames
                0x00005686       0xc8 ../PepinoBoris_bsp/\libucosii_bsp.a(in_pcb.o)
 .debug_pubnames
                0x0000574e      0x278 ../PepinoBoris_bsp/\libucosii_bsp.a(vfsfiles.o)
 .debug_pubnames
                0x000059c6       0x1f ../PepinoBoris_bsp/\libucosii_bsp.a(vfsport.o)
 .debug_pubnames
                0x000059e5       0x20 ../PepinoBoris_bsp/\libucosii_bsp.a(alt_fcntl.o)
 .debug_pubnames
                0x00005a05       0x24 ../PepinoBoris_bsp/\libucosii_bsp.a(alt_find_file.o)
 .debug_pubnames
                0x00005a29       0x21 ../PepinoBoris_bsp/\libucosii_bsp.a(alt_get_fd.o)
 .debug_pubnames
                0x00005a4a       0x66 ../PepinoBoris_bsp/\libucosii_bsp.a(icmp.o)
 .debug_pubnames
                0x00005ab0       0x2a d:/altera/13.0/nios2eds/bin/gnu/h-i686-mingw32/bin/../lib/gcc/nios2-elf/4.1.2/../../../../nios2-elf/lib\libc.a(lib_a-atexit.o)
 .debug_pubnames
                0x00005ada       0x27 d:/altera/13.0/nios2eds/bin/gnu/h-i686-mingw32/bin/../lib/gcc/nios2-elf/4.1.2/../../../../nios2-elf/lib\libc.a(lib_a-atoi.o)
 .debug_pubnames
                0x00005b01       0x1d d:/altera/13.0/nios2eds/bin/gnu/h-i686-mingw32/bin/../lib/gcc/nios2-elf/4.1.2/../../../../nios2-elf/lib\libc.a(lib_a-calloc.o)
 .debug_pubnames
                0x00005b1e       0x1b d:/altera/13.0/nios2eds/bin/gnu/h-i686-mingw32/bin/../lib/gcc/nios2-elf/4.1.2/../../../../nios2-elf/lib\libc.a(lib_a-exit.o)
 .debug_pubnames
                0x00005b39       0x26 d:/altera/13.0/nios2eds/bin/gnu/h-i686-mingw32/bin/../lib/gcc/nios2-elf/4.1.2/../../../../nios2-elf/lib\libc.a(lib_a-malloc.o)
 .debug_pubnames
                0x00005b5f       0x1d d:/altera/13.0/nios2eds/bin/gnu/h-i686-mingw32/bin/../lib/gcc/nios2-elf/4.1.2/../../../../nios2-elf/lib\libc.a(lib_a-memcmp.o)
 .debug_pubnames
                0x00005b7c       0x2d d:/altera/13.0/nios2eds/bin/gnu/h-i686-mingw32/bin/../lib/gcc/nios2-elf/4.1.2/../../../../nios2-elf/lib\libc.a(lib_a-sprintf.o)
 .debug_pubnames
                0x00005ba9       0x1d d:/altera/13.0/nios2eds/bin/gnu/h-i686-mingw32/bin/../lib/gcc/nios2-elf/4.1.2/../../../../nios2-elf/lib\libc.a(lib_a-strchr.o)
 .debug_pubnames
                0x00005bc6       0x1d d:/altera/13.0/nios2eds/bin/gnu/h-i686-mingw32/bin/../lib/gcc/nios2-elf/4.1.2/../../../../nios2-elf/lib\libc.a(lib_a-strcpy.o)
 .debug_pubnames
                0x00005be3       0x1e d:/altera/13.0/nios2eds/bin/gnu/h-i686-mingw32/bin/../lib/gcc/nios2-elf/4.1.2/../../../../nios2-elf/lib\libc.a(lib_a-strncmp.o)
 .debug_pubnames
                0x00005c01       0x1e d:/altera/13.0/nios2eds/bin/gnu/h-i686-mingw32/bin/../lib/gcc/nios2-elf/4.1.2/../../../../nios2-elf/lib\libc.a(lib_a-strncpy.o)
 .debug_pubnames
                0x00005c1f       0x2b d:/altera/13.0/nios2eds/bin/gnu/h-i686-mingw32/bin/../lib/gcc/nios2-elf/4.1.2/../../../../nios2-elf/lib\libc.a(lib_a-strtol.o)
 .debug_pubnames
                0x00005c4a       0x2d d:/altera/13.0/nios2eds/bin/gnu/h-i686-mingw32/bin/../lib/gcc/nios2-elf/4.1.2/../../../../nios2-elf/lib\libc.a(lib_a-vprintf.o)
 .debug_pubnames
                0x00005c77       0x2f d:/altera/13.0/nios2eds/bin/gnu/h-i686-mingw32/bin/../lib/gcc/nios2-elf/4.1.2/../../../../nios2-elf/lib\libc.a(lib_a-vsprintf.o)
 .debug_pubnames
                0x00005ca6       0x2a d:/altera/13.0/nios2eds/bin/gnu/h-i686-mingw32/bin/../lib/gcc/nios2-elf/4.1.2/../../../../nios2-elf/lib\libc.a(lib_a-__atexit.o)
 .debug_pubnames
                0x00005cd0       0x27 d:/altera/13.0/nios2eds/bin/gnu/h-i686-mingw32/bin/../lib/gcc/nios2-elf/4.1.2/../../../../nios2-elf/lib\libc.a(lib_a-__call_atexit.o)
 .debug_pubnames
                0x00005cf7       0x1c ../PepinoBoris_bsp/\libucosii_bsp.a(alt_exit.o)

.debug_info     0x00000000    0x813fa
 *(.debug_info .gnu.linkonce.wi.*)
 .debug_info    0x00000000       0x79 ../PepinoBoris_bsp//obj/HAL/src/crt0.o
 .debug_info    0x00000079      0x229 obj/default/VGA.o
 .debug_info    0x000002a2      0xd6a obj/default/alt_error_handler.o
 .debug_info    0x0000100c     0x1257 obj/default/dm9000a.o
 .debug_info    0x00002263      0xf3f obj/default/iniche_init.o
 .debug_info    0x000031a2      0x470 obj/default/led.o
 .debug_info    0x00003612      0x4ee obj/default/my_threads.o
 .debug_info    0x00003b00     0x1cc3 obj/default/network_utilities.o
 .debug_info    0x000057c3      0x587 obj/default/sdcard/my_sdcard.o
 .debug_info    0x00005d4a      0x8b0 obj/default/simple_socket_server.o
 .debug_info    0x000065fa        0x0 obj/default/tse_my_system.o
 .debug_info    0x000065fa       0xce d:/altera/13.0/nios2eds/bin/gnu/h-i686-mingw32/bin/../lib/gcc/nios2-elf/4.1.2\libgcc.a(_fixunsdfsi.o)
 .debug_info    0x000066c8      0x47f d:/altera/13.0/nios2eds/bin/gnu/h-i686-mingw32/bin/../lib/gcc/nios2-elf/4.1.2\libgcc.a(_addsub_sf.o)
 .debug_info    0x00006b47      0x3d4 d:/altera/13.0/nios2eds/bin/gnu/h-i686-mingw32/bin/../lib/gcc/nios2-elf/4.1.2\libgcc.a(_mul_sf.o)
 .debug_info    0x00006f1b      0x391 d:/altera/13.0/nios2eds/bin/gnu/h-i686-mingw32/bin/../lib/gcc/nios2-elf/4.1.2\libgcc.a(_div_sf.o)
 .debug_info    0x000072ac      0x2c1 d:/altera/13.0/nios2eds/bin/gnu/h-i686-mingw32/bin/../lib/gcc/nios2-elf/4.1.2\libgcc.a(_sf_to_si.o)
 .debug_info    0x0000756d      0x164 d:/altera/13.0/nios2eds/bin/gnu/h-i686-mingw32/bin/../lib/gcc/nios2-elf/4.1.2\libgcc.a(_thenan_sf.o)
 .debug_info    0x000076d1      0x213 d:/altera/13.0/nios2eds/bin/gnu/h-i686-mingw32/bin/../lib/gcc/nios2-elf/4.1.2\libgcc.a(_usi_to_sf.o)
 .debug_info    0x000078e4      0x493 d:/altera/13.0/nios2eds/bin/gnu/h-i686-mingw32/bin/../lib/gcc/nios2-elf/4.1.2\libgcc.a(_addsub_df.o)
 .debug_info    0x00007d77      0x488 d:/altera/13.0/nios2eds/bin/gnu/h-i686-mingw32/bin/../lib/gcc/nios2-elf/4.1.2\libgcc.a(_mul_df.o)
 .debug_info    0x000081ff      0x29d d:/altera/13.0/nios2eds/bin/gnu/h-i686-mingw32/bin/../lib/gcc/nios2-elf/4.1.2\libgcc.a(_ge_df.o)
 .debug_info    0x0000849c      0x2cd d:/altera/13.0/nios2eds/bin/gnu/h-i686-mingw32/bin/../lib/gcc/nios2-elf/4.1.2\libgcc.a(_df_to_si.o)
 .debug_info    0x00008769      0x164 d:/altera/13.0/nios2eds/bin/gnu/h-i686-mingw32/bin/../lib/gcc/nios2-elf/4.1.2\libgcc.a(_thenan_df.o)
 .debug_info    0x000088cd      0x213 d:/altera/13.0/nios2eds/bin/gnu/h-i686-mingw32/bin/../lib/gcc/nios2-elf/4.1.2\libgcc.a(_usi_to_df.o)
 .debug_info    0x00008ae0      0x215 d:/altera/13.0/nios2eds/bin/gnu/h-i686-mingw32/bin/../lib/gcc/nios2-elf/4.1.2\libgcc.a(_muldi3.o)
 .debug_info    0x00008cf5      0x130 d:/altera/13.0/nios2eds/bin/gnu/h-i686-mingw32/bin/../lib/gcc/nios2-elf/4.1.2\libgcc.a(_clzsi2.o)
 .debug_info    0x00008e25      0x2f2 d:/altera/13.0/nios2eds/bin/gnu/h-i686-mingw32/bin/../lib/gcc/nios2-elf/4.1.2\libgcc.a(_pack_sf.o)
 .debug_info    0x00009117      0x25a d:/altera/13.0/nios2eds/bin/gnu/h-i686-mingw32/bin/../lib/gcc/nios2-elf/4.1.2\libgcc.a(_unpack_sf.o)
 .debug_info    0x00009371      0x2fc d:/altera/13.0/nios2eds/bin/gnu/h-i686-mingw32/bin/../lib/gcc/nios2-elf/4.1.2\libgcc.a(_pack_df.o)
 .debug_info    0x0000966d      0x268 d:/altera/13.0/nios2eds/bin/gnu/h-i686-mingw32/bin/../lib/gcc/nios2-elf/4.1.2\libgcc.a(_unpack_df.o)
 .debug_info    0x000098d5      0x21b d:/altera/13.0/nios2eds/bin/gnu/h-i686-mingw32/bin/../lib/gcc/nios2-elf/4.1.2\libgcc.a(_fpcmp_parts_df.o)
 .debug_info    0x00009af0       0xc9 d:/altera/13.0/nios2eds/bin/gnu/h-i686-mingw32/bin/../lib/gcc/nios2-elf/4.1.2\libgcc.a(_clz.o)
 .debug_info    0x00009bb9       0xa0 d:/altera/13.0/nios2eds/bin/gnu/h-i686-mingw32/bin/../lib/gcc/nios2-elf/4.1.2/../../../../nios2-elf/lib\libc.a(lib_a-ctype_.o)
 .debug_info    0x00009c59      0x9e1 d:/altera/13.0/nios2eds/bin/gnu/h-i686-mingw32/bin/../lib/gcc/nios2-elf/4.1.2/../../../../nios2-elf/lib\libc.a(lib_a-fprintf.o)
 .debug_info    0x0000a63a      0xa83 d:/altera/13.0/nios2eds/bin/gnu/h-i686-mingw32/bin/../lib/gcc/nios2-elf/4.1.2/../../../../nios2-elf/lib\libc.a(lib_a-fwrite.o)
 .debug_info    0x0000b0bd      0x9a7 d:/altera/13.0/nios2eds/bin/gnu/h-i686-mingw32/bin/../lib/gcc/nios2-elf/4.1.2/../../../../nios2-elf/lib\libc.a(lib_a-getc.o)
 .debug_info    0x0000ba64      0x93d d:/altera/13.0/nios2eds/bin/gnu/h-i686-mingw32/bin/../lib/gcc/nios2-elf/4.1.2/../../../../nios2-elf/lib\libc.a(lib_a-impure.o)
 .debug_info    0x0000c3a1      0x113 d:/altera/13.0/nios2eds/bin/gnu/h-i686-mingw32/bin/../lib/gcc/nios2-elf/4.1.2/../../../../nios2-elf/lib\libc.a(lib_a-memset.o)
 .debug_info    0x0000c4b4      0x97b d:/altera/13.0/nios2eds/bin/gnu/h-i686-mingw32/bin/../lib/gcc/nios2-elf/4.1.2/../../../../nios2-elf/lib\libc.a(lib_a-perror.o)
 .debug_info    0x0000ce2f      0x9d1 d:/altera/13.0/nios2eds/bin/gnu/h-i686-mingw32/bin/../lib/gcc/nios2-elf/4.1.2/../../../../nios2-elf/lib\libc.a(lib_a-printf.o)
 .debug_info    0x0000d800      0x9c1 d:/altera/13.0/nios2eds/bin/gnu/h-i686-mingw32/bin/../lib/gcc/nios2-elf/4.1.2/../../../../nios2-elf/lib\libc.a(lib_a-putc.o)
 .debug_info    0x0000e1c1      0x972 d:/altera/13.0/nios2eds/bin/gnu/h-i686-mingw32/bin/../lib/gcc/nios2-elf/4.1.2/../../../../nios2-elf/lib\libc.a(lib_a-putchar.o)
 .debug_info    0x0000eb33      0xa25 d:/altera/13.0/nios2eds/bin/gnu/h-i686-mingw32/bin/../lib/gcc/nios2-elf/4.1.2/../../../../nios2-elf/lib\libc.a(lib_a-puts.o)
 .debug_info    0x0000f558      0x987 d:/altera/13.0/nios2eds/bin/gnu/h-i686-mingw32/bin/../lib/gcc/nios2-elf/4.1.2/../../../../nios2-elf/lib\libc.a(lib_a-rget.o)
 .debug_info    0x0000fedf       0xbb d:/altera/13.0/nios2eds/bin/gnu/h-i686-mingw32/bin/../lib/gcc/nios2-elf/4.1.2/../../../../nios2-elf/lib\libc.a(lib_a-strerror.o)
 .debug_info    0x0000ff9a       0xdb d:/altera/13.0/nios2eds/bin/gnu/h-i686-mingw32/bin/../lib/gcc/nios2-elf/4.1.2/../../../../nios2-elf/lib\libc.a(lib_a-strlen.o)
 .debug_info    0x00010075       0x63 d:/altera/13.0/nios2eds/bin/gnu/h-i686-mingw32/bin/../lib/gcc/nios2-elf/4.1.2/../../../../nios2-elf/lib\libc.a(lib_a-u_strerr.o)
 .debug_info    0x000100d8     0x10d5 d:/altera/13.0/nios2eds/bin/gnu/h-i686-mingw32/bin/../lib/gcc/nios2-elf/4.1.2/../../../../nios2-elf/lib\libc.a(lib_a-vfprintf.o)
 .debug_info    0x000111ad      0x9ae d:/altera/13.0/nios2eds/bin/gnu/h-i686-mingw32/bin/../lib/gcc/nios2-elf/4.1.2/../../../../nios2-elf/lib\libc.a(lib_a-wbuf.o)
 .debug_info    0x00011b5b      0x95d d:/altera/13.0/nios2eds/bin/gnu/h-i686-mingw32/bin/../lib/gcc/nios2-elf/4.1.2/../../../../nios2-elf/lib\libc.a(lib_a-wsetup.o)
 .debug_info    0x000124b8      0xd6f d:/altera/13.0/nios2eds/bin/gnu/h-i686-mingw32/bin/../lib/gcc/nios2-elf/4.1.2/../../../../nios2-elf/lib\libc.a(lib_a-dtoa.o)
 .debug_info    0x00013227      0x9fe d:/altera/13.0/nios2eds/bin/gnu/h-i686-mingw32/bin/../lib/gcc/nios2-elf/4.1.2/../../../../nios2-elf/lib\libc.a(lib_a-fflush.o)
 .debug_info    0x00013c25      0xb72 d:/altera/13.0/nios2eds/bin/gnu/h-i686-mingw32/bin/../lib/gcc/nios2-elf/4.1.2/../../../../nios2-elf/lib\libc.a(lib_a-findfp.o)
 .debug_info    0x00014797      0x9bd d:/altera/13.0/nios2eds/bin/gnu/h-i686-mingw32/bin/../lib/gcc/nios2-elf/4.1.2/../../../../nios2-elf/lib\libc.a(lib_a-fputc.o)
 .debug_info    0x00015154      0xa40 d:/altera/13.0/nios2eds/bin/gnu/h-i686-mingw32/bin/../lib/gcc/nios2-elf/4.1.2/../../../../nios2-elf/lib\libc.a(lib_a-fputs.o)
 .debug_info    0x00015b94      0xbc9 d:/altera/13.0/nios2eds/bin/gnu/h-i686-mingw32/bin/../lib/gcc/nios2-elf/4.1.2/../../../../nios2-elf/lib\libc.a(lib_a-freer.o)
 .debug_info    0x0001675d      0xa88 d:/altera/13.0/nios2eds/bin/gnu/h-i686-mingw32/bin/../lib/gcc/nios2-elf/4.1.2/../../../../nios2-elf/lib\libc.a(lib_a-fvwrite.o)
 .debug_info    0x000171e5      0xaed d:/altera/13.0/nios2eds/bin/gnu/h-i686-mingw32/bin/../lib/gcc/nios2-elf/4.1.2/../../../../nios2-elf/lib\libc.a(lib_a-fwalk.o)
 .debug_info    0x00017cd2      0xb97 d:/altera/13.0/nios2eds/bin/gnu/h-i686-mingw32/bin/../lib/gcc/nios2-elf/4.1.2/../../../../nios2-elf/lib\libc.a(lib_a-locale.o)
 .debug_info    0x00018869      0xb1a d:/altera/13.0/nios2eds/bin/gnu/h-i686-mingw32/bin/../lib/gcc/nios2-elf/4.1.2/../../../../nios2-elf/lib\libc.a(lib_a-makebuf.o)
 .debug_info    0x00019383      0xcd0 d:/altera/13.0/nios2eds/bin/gnu/h-i686-mingw32/bin/../lib/gcc/nios2-elf/4.1.2/../../../../nios2-elf/lib\libc.a(lib_a-mallocr.o)
 .debug_info    0x0001a053      0x138 d:/altera/13.0/nios2eds/bin/gnu/h-i686-mingw32/bin/../lib/gcc/nios2-elf/4.1.2/../../../../nios2-elf/lib\libc.a(lib_a-memchr.o)
 .debug_info    0x0001a18b      0x106 d:/altera/13.0/nios2eds/bin/gnu/h-i686-mingw32/bin/../lib/gcc/nios2-elf/4.1.2/../../../../nios2-elf/lib\libc.a(lib_a-memcpy.o)
 .debug_info    0x0001a291      0x13e d:/altera/13.0/nios2eds/bin/gnu/h-i686-mingw32/bin/../lib/gcc/nios2-elf/4.1.2/../../../../nios2-elf/lib\libc.a(lib_a-memmove.o)
 .debug_info    0x0001a3cf     0x1437 d:/altera/13.0/nios2eds/bin/gnu/h-i686-mingw32/bin/../lib/gcc/nios2-elf/4.1.2/../../../../nios2-elf/lib\libc.a(lib_a-mprec.o)
 .debug_info    0x0001b806      0xbd7 d:/altera/13.0/nios2eds/bin/gnu/h-i686-mingw32/bin/../lib/gcc/nios2-elf/4.1.2/../../../../nios2-elf/lib\libc.a(lib_a-reallocr.o)
 .debug_info    0x0001c3dd      0x98b d:/altera/13.0/nios2eds/bin/gnu/h-i686-mingw32/bin/../lib/gcc/nios2-elf/4.1.2/../../../../nios2-elf/lib\libc.a(lib_a-refill.o)
 .debug_info    0x0001cd68       0xd7 d:/altera/13.0/nios2eds/bin/gnu/h-i686-mingw32/bin/../lib/gcc/nios2-elf/4.1.2/../../../../nios2-elf/lib\libc.a(lib_a-s_isinfd.o)
 .debug_info    0x0001ce3f       0xd5 d:/altera/13.0/nios2eds/bin/gnu/h-i686-mingw32/bin/../lib/gcc/nios2-elf/4.1.2/../../../../nios2-elf/lib\libc.a(lib_a-s_isnand.o)
 .debug_info    0x0001cf14      0x962 d:/altera/13.0/nios2eds/bin/gnu/h-i686-mingw32/bin/../lib/gcc/nios2-elf/4.1.2/../../../../nios2-elf/lib\libc.a(lib_a-sbrkr.o)
 .debug_info    0x0001d876      0xaac d:/altera/13.0/nios2eds/bin/gnu/h-i686-mingw32/bin/../lib/gcc/nios2-elf/4.1.2/../../../../nios2-elf/lib\libc.a(lib_a-stdio.o)
 .debug_info    0x0001e322       0xdd d:/altera/13.0/nios2eds/bin/gnu/h-i686-mingw32/bin/../lib/gcc/nios2-elf/4.1.2/../../../../nios2-elf/lib\libc.a(lib_a-strcmp.o)
 .debug_info    0x0001e3ff      0x993 d:/altera/13.0/nios2eds/bin/gnu/h-i686-mingw32/bin/../lib/gcc/nios2-elf/4.1.2/../../../../nios2-elf/lib\libc.a(lib_a-writer.o)
 .debug_info    0x0001ed92      0xa1b d:/altera/13.0/nios2eds/bin/gnu/h-i686-mingw32/bin/../lib/gcc/nios2-elf/4.1.2/../../../../nios2-elf/lib\libc.a(lib_a-callocr.o)
 .debug_info    0x0001f7ad      0x958 d:/altera/13.0/nios2eds/bin/gnu/h-i686-mingw32/bin/../lib/gcc/nios2-elf/4.1.2/../../../../nios2-elf/lib\libc.a(lib_a-closer.o)
 .debug_info    0x00020105      0x994 d:/altera/13.0/nios2eds/bin/gnu/h-i686-mingw32/bin/../lib/gcc/nios2-elf/4.1.2/../../../../nios2-elf/lib\libc.a(lib_a-fclose.o)
 .debug_info    0x00020a99      0xafc d:/altera/13.0/nios2eds/bin/gnu/h-i686-mingw32/bin/../lib/gcc/nios2-elf/4.1.2/../../../../nios2-elf/lib\libc.a(lib_a-fstatr.o)
 .debug_info    0x00021595       0x8c d:/altera/13.0/nios2eds/bin/gnu/h-i686-mingw32/bin/../lib/gcc/nios2-elf/4.1.2/../../../../nios2-elf/lib\libc.a(lib_a-int_errno.o)
 .debug_info    0x00021621      0x958 d:/altera/13.0/nios2eds/bin/gnu/h-i686-mingw32/bin/../lib/gcc/nios2-elf/4.1.2/../../../../nios2-elf/lib\libc.a(lib_a-isattyr.o)
 .debug_info    0x00021f79      0x981 d:/altera/13.0/nios2eds/bin/gnu/h-i686-mingw32/bin/../lib/gcc/nios2-elf/4.1.2/../../../../nios2-elf/lib\libc.a(lib_a-lseekr.o)
 .debug_info    0x000228fa      0x98c d:/altera/13.0/nios2eds/bin/gnu/h-i686-mingw32/bin/../lib/gcc/nios2-elf/4.1.2/../../../../nios2-elf/lib\libc.a(lib_a-readr.o)
 .debug_info    0x00023286      0x724 d:/altera/13.0/nios2eds/bin/gnu/h-i686-mingw32/bin/../lib/gcc/nios2-elf/4.1.2\libgcc.a(_udivdi3.o)
 .debug_info    0x000239aa      0x751 d:/altera/13.0/nios2eds/bin/gnu/h-i686-mingw32/bin/../lib/gcc/nios2-elf/4.1.2\libgcc.a(_umoddi3.o)
 .debug_info    0x000240fb      0x39b d:/altera/13.0/nios2eds/bin/gnu/h-i686-mingw32/bin/../lib/gcc/nios2-elf/4.1.2\libgcc.a(_div_df.o)
 .debug_info    0x00024496      0x29d d:/altera/13.0/nios2eds/bin/gnu/h-i686-mingw32/bin/../lib/gcc/nios2-elf/4.1.2\libgcc.a(_eq_df.o)
 .debug_info    0x00024733      0x29d d:/altera/13.0/nios2eds/bin/gnu/h-i686-mingw32/bin/../lib/gcc/nios2-elf/4.1.2\libgcc.a(_ne_df.o)
 .debug_info    0x000249d0      0x29d d:/altera/13.0/nios2eds/bin/gnu/h-i686-mingw32/bin/../lib/gcc/nios2-elf/4.1.2\libgcc.a(_gt_df.o)
 .debug_info    0x00024c6d      0x29d d:/altera/13.0/nios2eds/bin/gnu/h-i686-mingw32/bin/../lib/gcc/nios2-elf/4.1.2\libgcc.a(_lt_df.o)
 .debug_info    0x00024f0a      0x218 d:/altera/13.0/nios2eds/bin/gnu/h-i686-mingw32/bin/../lib/gcc/nios2-elf/4.1.2\libgcc.a(_si_to_df.o)
 .debug_info    0x00025122      0x21c d:/altera/13.0/nios2eds/bin/gnu/h-i686-mingw32/bin/../lib/gcc/nios2-elf/4.1.2\libgcc.a(lib2-divmod.o)
 .debug_info    0x0002533e      0x5e7 ../PepinoBoris_bsp/\libucosii_bsp.a(alt_flash_dev.o)
 .debug_info    0x00025925      0x6ae ../PepinoBoris_bsp/\libucosii_bsp.a(alt_fstat.o)
 .debug_info    0x00025fd3      0x464 ../PepinoBoris_bsp/\libucosii_bsp.a(alt_irq_register.o)
 .debug_info    0x00026437      0x161 ../PepinoBoris_bsp/\libucosii_bsp.a(alt_irq_vars.o)
 .debug_info    0x00026598      0x6b4 ../PepinoBoris_bsp/\libucosii_bsp.a(alt_isatty.o)
 .debug_info    0x00026c4c      0x4e8 ../PepinoBoris_bsp/\libucosii_bsp.a(alt_lseek.o)
 .debug_info    0x00027134      0x3d7 ../PepinoBoris_bsp/\libucosii_bsp.a(alt_main.o)
 .debug_info    0x0002750b      0x2b1 ../PepinoBoris_bsp/\libucosii_bsp.a(alt_sbrk.o)
 .debug_info    0x000277bc      0x22e ../PepinoBoris_bsp/\libucosii_bsp.a(alt_usleep.o)
 .debug_info    0x000279ea     0x11cd ../PepinoBoris_bsp/\libucosii_bsp.a(alt_env_lock.o)
 .debug_info    0x00028bb7     0x1329 ../PepinoBoris_bsp/\libucosii_bsp.a(alt_malloc_lock.o)
 .debug_info    0x00029ee0     0x1be3 ../PepinoBoris_bsp/\libucosii_bsp.a(os_core.o)
 .debug_info    0x0002bac3     0x1128 ../PepinoBoris_bsp/\libucosii_bsp.a(os_dbg.o)
 .debug_info    0x0002cbeb     0x123e ../PepinoBoris_bsp/\libucosii_bsp.a(os_flag.o)
 .debug_info    0x0002de29      0x808 ../PepinoBoris_bsp/\libucosii_bsp.a(os_mem.o)
 .debug_info    0x0002e631     0x1078 ../PepinoBoris_bsp/\libucosii_bsp.a(os_q.o)
 .debug_info    0x0002f6a9      0xce0 ../PepinoBoris_bsp/\libucosii_bsp.a(os_sem.o)
 .debug_info    0x00030389     0x1356 ../PepinoBoris_bsp/\libucosii_bsp.a(os_task.o)
 .debug_info    0x000316df      0x9da ../PepinoBoris_bsp/\libucosii_bsp.a(os_time.o)
 .debug_info    0x000320b9     0x1301 ../PepinoBoris_bsp/\libucosii_bsp.a(alt_sys_init.o)
 .debug_info    0x000333ba      0xb43 ../PepinoBoris_bsp/\libucosii_bsp.a(altera_avalon_cfi_flash.o)
 .debug_info    0x00033efd      0xe2f ../PepinoBoris_bsp/\libucosii_bsp.a(altera_avalon_cfi_flash_table.o)
 .debug_info    0x00034d2c      0xba3 ../PepinoBoris_bsp/\libucosii_bsp.a(altera_avalon_epcs_flash_controller.o)
 .debug_info    0x000358cf      0x9cc ../PepinoBoris_bsp/\libucosii_bsp.a(altera_avalon_jtag_uart_fd.o)
 .debug_info    0x0003629b      0x94a ../PepinoBoris_bsp/\libucosii_bsp.a(altera_avalon_jtag_uart_init.o)
 .debug_info    0x00036be5      0x636 ../PepinoBoris_bsp/\libucosii_bsp.a(altera_avalon_jtag_uart_ioctl.o)
 .debug_info    0x0003721b      0x7f2 ../PepinoBoris_bsp/\libucosii_bsp.a(altera_avalon_jtag_uart_read.o)
 .debug_info    0x00037a0d      0x7e9 ../PepinoBoris_bsp/\libucosii_bsp.a(altera_avalon_jtag_uart_write.o)
 .debug_info    0x000381f6      0xa98 ../PepinoBoris_bsp/\libucosii_bsp.a(altera_avalon_lcd_16207.o)
 .debug_info    0x00038c8e      0x830 ../PepinoBoris_bsp/\libucosii_bsp.a(altera_avalon_lcd_16207_fd.o)
 .debug_info    0x000394be      0x385 ../PepinoBoris_bsp/\libucosii_bsp.a(altera_avalon_timer_sc.o)
 .debug_info    0x00039843      0x86c ../PepinoBoris_bsp/\libucosii_bsp.a(altera_avalon_uart_fd.o)
 .debug_info    0x0003a0af      0x838 ../PepinoBoris_bsp/\libucosii_bsp.a(altera_avalon_uart_init.o)
 .debug_info    0x0003a8e7      0x7ba ../PepinoBoris_bsp/\libucosii_bsp.a(altera_avalon_uart_read.o)
 .debug_info    0x0003b0a1      0x7a9 ../PepinoBoris_bsp/\libucosii_bsp.a(altera_avalon_uart_write.o)
 .debug_info    0x0003b84a     0x218c ../PepinoBoris_bsp/\libucosii_bsp.a(altera_up_sd_card_avalon_interface.o)
 .debug_info    0x0003d9d6      0x636 ../PepinoBoris_bsp/\libucosii_bsp.a(epcs_commands.o)
 .debug_info    0x0003e00c      0x1b0 ../PepinoBoris_bsp/\libucosii_bsp.a(alt_iniche_close.o)
 .debug_info    0x0003e1bc      0xb57 ../PepinoBoris_bsp/\libucosii_bsp.a(alt_iniche_dev.o)
 .debug_info    0x0003ed13      0x1da ../PepinoBoris_bsp/\libucosii_bsp.a(alt_iniche_read.o)
 .debug_info    0x0003eeed      0x1e1 ../PepinoBoris_bsp/\libucosii_bsp.a(alt_iniche_write.o)
 .debug_info    0x0003f0ce      0xc43 ../PepinoBoris_bsp/\libucosii_bsp.a(ipnet.o)
 .debug_info    0x0003fd11      0xb96 ../PepinoBoris_bsp/\libucosii_bsp.a(ipstart.o)
 .debug_info    0x000408a7     0x152a ../PepinoBoris_bsp/\libucosii_bsp.a(igmp_cmn.o)
 .debug_info    0x00041dd1     0x145a ../PepinoBoris_bsp/\libucosii_bsp.a(bsdsock.o)
 .debug_info    0x0004322b      0x24c ../PepinoBoris_bsp/\libucosii_bsp.a(cksum.o)
 .debug_info    0x00043477      0x73e ../PepinoBoris_bsp/\libucosii_bsp.a(in_utils.o)
 .debug_info    0x00043bb5      0x558 ../PepinoBoris_bsp/\libucosii_bsp.a(netmain.o)
 .debug_info    0x0004410d      0x965 ../PepinoBoris_bsp/\libucosii_bsp.a(tk_crnos.o)
 .debug_info    0x00044a72     0x15f3 ../PepinoBoris_bsp/\libucosii_bsp.a(dhcpclnt.o)
 .debug_info    0x00046065      0x1d6 ../PepinoBoris_bsp/\libucosii_bsp.a(dhcputil.o)
 .debug_info    0x0004623b      0xca2 ../PepinoBoris_bsp/\libucosii_bsp.a(pktalloc.o)
 .debug_info    0x00046edd      0x2e6 ../PepinoBoris_bsp/\libucosii_bsp.a(q.o)
 .debug_info    0x000471c3      0xb21 ../PepinoBoris_bsp/\libucosii_bsp.a(udp_open.o)
 .debug_info    0x00047ce4       0x87 ../PepinoBoris_bsp/\libucosii_bsp.a(asm_cksum.o)
 .debug_info    0x00047d6b      0xea7 ../PepinoBoris_bsp/\libucosii_bsp.a(brdutils.o)
 .debug_info    0x00048c12      0x6d9 ../PepinoBoris_bsp/\libucosii_bsp.a(osportco.o)
 .debug_info    0x000492eb      0x656 ../PepinoBoris_bsp/\libucosii_bsp.a(targnios.o)
 .debug_info    0x00049941     0x251d ../PepinoBoris_bsp/\libucosii_bsp.a(nptcp.o)
 .debug_info    0x0004be5e     0x11d5 ../PepinoBoris_bsp/\libucosii_bsp.a(rawsock.o)
 .debug_info    0x0004d033     0x1c93 ../PepinoBoris_bsp/\libucosii_bsp.a(sockcall.o)
 .debug_info    0x0004ecc6     0x1a99 ../PepinoBoris_bsp/\libucosii_bsp.a(socket.o)
 .debug_info    0x0005075f     0x155f ../PepinoBoris_bsp/\libucosii_bsp.a(socket2.o)
 .debug_info    0x00051cbe     0x1278 ../PepinoBoris_bsp/\libucosii_bsp.a(soselect.o)
 .debug_info    0x00052f36     0x212a ../PepinoBoris_bsp/\libucosii_bsp.a(tcp_in.o)
 .debug_info    0x00055060     0x1e19 ../PepinoBoris_bsp/\libucosii_bsp.a(tcp_out.o)
 .debug_info    0x00056e79     0x1e81 ../PepinoBoris_bsp/\libucosii_bsp.a(tcp_subr.o)
 .debug_info    0x00058cfa     0x1c9c ../PepinoBoris_bsp/\libucosii_bsp.a(tcp_timr.o)
 .debug_info    0x0005a996     0x1c59 ../PepinoBoris_bsp/\libucosii_bsp.a(tcp_usr.o)
 .debug_info    0x0005c5ef      0x1ac ../PepinoBoris_bsp/\libucosii_bsp.a(tcpport.o)
 .debug_info    0x0005c79b     0x132f ../PepinoBoris_bsp/\libucosii_bsp.a(udpsock.o)
 .debug_info    0x0005daca      0x43c ../PepinoBoris_bsp/\libucosii_bsp.a(alt_alarm_start.o)
 .debug_info    0x0005df06      0x1a5 ../PepinoBoris_bsp/\libucosii_bsp.a(alt_busy_sleep.o)
 .debug_info    0x0005e0ab      0x4b9 ../PepinoBoris_bsp/\libucosii_bsp.a(alt_close.o)
 .debug_info    0x0005e564      0x19e ../PepinoBoris_bsp/\libucosii_bsp.a(alt_dcache_flush.o)
 .debug_info    0x0005e702      0x7d7 ../PepinoBoris_bsp/\libucosii_bsp.a(alt_dev.o)
 .debug_info    0x0005eed9      0x2b1 ../PepinoBoris_bsp/\libucosii_bsp.a(alt_dev_llist_insert.o)
 .debug_info    0x0005f18a      0x109 ../PepinoBoris_bsp/\libucosii_bsp.a(alt_do_ctors.o)
 .debug_info    0x0005f293      0x108 ../PepinoBoris_bsp/\libucosii_bsp.a(alt_do_dtors.o)
 .debug_info    0x0005f39b      0x15e ../PepinoBoris_bsp/\libucosii_bsp.a(alt_errno.o)
 .debug_info    0x0005f4f9      0x466 ../PepinoBoris_bsp/\libucosii_bsp.a(alt_find_dev.o)
 .debug_info    0x0005f95f      0x48d ../PepinoBoris_bsp/\libucosii_bsp.a(alt_iic.o)
 .debug_info    0x0005fdec      0x30e ../PepinoBoris_bsp/\libucosii_bsp.a(alt_iic_isr_register.o)
 .debug_info    0x000600fa      0x6e3 ../PepinoBoris_bsp/\libucosii_bsp.a(alt_io_redirect.o)
 .debug_info    0x000607dd       0x7e ../PepinoBoris_bsp/\libucosii_bsp.a(alt_irq_entry.o)
 .debug_info    0x0006085b      0x2b4 ../PepinoBoris_bsp/\libucosii_bsp.a(alt_irq_handler.o)
 .debug_info    0x00060b0f      0x564 ../PepinoBoris_bsp/\libucosii_bsp.a(alt_open.o)
 .debug_info    0x00061073      0x6dc ../PepinoBoris_bsp/\libucosii_bsp.a(alt_read.o)
 .debug_info    0x0006174f      0x449 ../PepinoBoris_bsp/\libucosii_bsp.a(alt_release_fd.o)
 .debug_info    0x00061b98      0x18b ../PepinoBoris_bsp/\libucosii_bsp.a(alt_remap_cached.o)
 .debug_info    0x00061d23      0x18f ../PepinoBoris_bsp/\libucosii_bsp.a(alt_remap_uncached.o)
 .debug_info    0x00061eb2      0x40b ../PepinoBoris_bsp/\libucosii_bsp.a(alt_tick.o)
 .debug_info    0x000622bd      0x6e5 ../PepinoBoris_bsp/\libucosii_bsp.a(alt_write.o)
 .debug_info    0x000629a2      0x15d ../PepinoBoris_bsp/\libucosii_bsp.a(altera_nios2_qsys_irq.o)
 .debug_info    0x00062aff       0x7d ../PepinoBoris_bsp/\libucosii_bsp.a(os_cpu_a.o)
 .debug_info    0x00062b7c     0x12cd ../PepinoBoris_bsp/\libucosii_bsp.a(os_cpu_c.o)
 .debug_info    0x00063e49      0x8e3 ../PepinoBoris_bsp/\libucosii_bsp.a(altera_avalon_cfi_flash_amd.o)
 .debug_info    0x0006472c      0x8d9 ../PepinoBoris_bsp/\libucosii_bsp.a(altera_avalon_cfi_flash_intel.o)
 .debug_info    0x00065005      0x2a3 ../PepinoBoris_bsp/\libucosii_bsp.a(altera_avalon_spi.o)
 .debug_info    0x000652a8      0xd99 ../PepinoBoris_bsp/\libucosii_bsp.a(allports.o)
 .debug_info    0x00066041      0x3bb ../PepinoBoris_bsp/\libucosii_bsp.a(timeouts.o)
 .debug_info    0x000663fc      0x21a ../PepinoBoris_bsp/\libucosii_bsp.a(tk_misc.o)
 .debug_info    0x00066616      0x207 ../PepinoBoris_bsp/\libucosii_bsp.a(alt_iniche_fcntl.o)
 .debug_info    0x0006681d     0x1273 ../PepinoBoris_bsp/\libucosii_bsp.a(et_arp.o)
 .debug_info    0x00067a90      0xf91 ../PepinoBoris_bsp/\libucosii_bsp.a(iface.o)
 .debug_info    0x00068a21     0x16fe ../PepinoBoris_bsp/\libucosii_bsp.a(ip.o)
 .debug_info    0x0006a11f     0x1862 ../PepinoBoris_bsp/\libucosii_bsp.a(ip_reasm.o)
 .debug_info    0x0006b981      0xde3 ../PepinoBoris_bsp/\libucosii_bsp.a(ipdemux.o)
 .debug_info    0x0006c764      0xa3f ../PepinoBoris_bsp/\libucosii_bsp.a(ipmc.o)
 .debug_info    0x0006d1a3      0x2dd ../PepinoBoris_bsp/\libucosii_bsp.a(ipport.o)
 .debug_info    0x0006d480      0xf50 ../PepinoBoris_bsp/\libucosii_bsp.a(ipraw.o)
 .debug_info    0x0006e3d0      0xefb ../PepinoBoris_bsp/\libucosii_bsp.a(iproute.o)
 .debug_info    0x0006f2cb     0x1292 ../PepinoBoris_bsp/\libucosii_bsp.a(udp.o)
 .debug_info    0x0007055d     0x112c ../PepinoBoris_bsp/\libucosii_bsp.a(igmp.o)
 .debug_info    0x00071689     0x1360 ../PepinoBoris_bsp/\libucosii_bsp.a(igmp2.o)
 .debug_info    0x000729e9     0x10db ../PepinoBoris_bsp/\libucosii_bsp.a(ipopt.o)
 .debug_info    0x00073ac4      0xbb3 ../PepinoBoris_bsp/\libucosii_bsp.a(u_mctest.o)
 .debug_info    0x00074677      0xa51 ../PepinoBoris_bsp/\libucosii_bsp.a(dhcsetup.o)
 .debug_info    0x000750c8      0x739 ../PepinoBoris_bsp/\libucosii_bsp.a(memdev.o)
 .debug_info    0x00075801      0x6e4 ../PepinoBoris_bsp/\libucosii_bsp.a(parseip.o)
 .debug_info    0x00075ee5      0x3de ../PepinoBoris_bsp/\libucosii_bsp.a(tcpcksum.o)
 .debug_info    0x000762c3     0x12ad ../PepinoBoris_bsp/\libucosii_bsp.a(in_pcb.o)
 .debug_info    0x00077570      0xfde ../PepinoBoris_bsp/\libucosii_bsp.a(vfsfiles.o)
 .debug_info    0x0007854e      0x1ad ../PepinoBoris_bsp/\libucosii_bsp.a(vfsport.o)
 .debug_info    0x000786fb       0x84 ../PepinoBoris_bsp/\libucosii_bsp.a(alt_exception_entry.o)
 .debug_info    0x0007877f      0x6fa ../PepinoBoris_bsp/\libucosii_bsp.a(alt_fcntl.o)
 .debug_info    0x00078e79      0x46d ../PepinoBoris_bsp/\libucosii_bsp.a(alt_find_file.o)
 .debug_info    0x000792e6      0x5ff ../PepinoBoris_bsp/\libucosii_bsp.a(alt_get_fd.o)
 .debug_info    0x000798e5     0x1180 ../PepinoBoris_bsp/\libucosii_bsp.a(icmp.o)
 .debug_info    0x0007aa65      0x181 d:/altera/13.0/nios2eds/bin/gnu/h-i686-mingw32/bin/../lib/gcc/nios2-elf/4.1.2/../../../../nios2-elf/lib\libc.a(lib_a-atexit.o)
 .debug_info    0x0007abe6      0x960 d:/altera/13.0/nios2eds/bin/gnu/h-i686-mingw32/bin/../lib/gcc/nios2-elf/4.1.2/../../../../nios2-elf/lib\libc.a(lib_a-atoi.o)
 .debug_info    0x0007b546      0x954 d:/altera/13.0/nios2eds/bin/gnu/h-i686-mingw32/bin/../lib/gcc/nios2-elf/4.1.2/../../../../nios2-elf/lib\libc.a(lib_a-calloc.o)
 .debug_info    0x0007be9a      0x93f d:/altera/13.0/nios2eds/bin/gnu/h-i686-mingw32/bin/../lib/gcc/nios2-elf/4.1.2/../../../../nios2-elf/lib\libc.a(lib_a-exit.o)
 .debug_info    0x0007c7d9      0x96e d:/altera/13.0/nios2eds/bin/gnu/h-i686-mingw32/bin/../lib/gcc/nios2-elf/4.1.2/../../../../nios2-elf/lib\libc.a(lib_a-malloc.o)
 .debug_info    0x0007d147      0x115 d:/altera/13.0/nios2eds/bin/gnu/h-i686-mingw32/bin/../lib/gcc/nios2-elf/4.1.2/../../../../nios2-elf/lib\libc.a(lib_a-memcmp.o)
 .debug_info    0x0007d25c      0xa16 d:/altera/13.0/nios2eds/bin/gnu/h-i686-mingw32/bin/../lib/gcc/nios2-elf/4.1.2/../../../../nios2-elf/lib\libc.a(lib_a-sprintf.o)
 .debug_info    0x0007dc72      0x118 d:/altera/13.0/nios2eds/bin/gnu/h-i686-mingw32/bin/../lib/gcc/nios2-elf/4.1.2/../../../../nios2-elf/lib\libc.a(lib_a-strchr.o)
 .debug_info    0x0007dd8a      0x110 d:/altera/13.0/nios2eds/bin/gnu/h-i686-mingw32/bin/../lib/gcc/nios2-elf/4.1.2/../../../../nios2-elf/lib\libc.a(lib_a-strcpy.o)
 .debug_info    0x0007de9a       0xf5 d:/altera/13.0/nios2eds/bin/gnu/h-i686-mingw32/bin/../lib/gcc/nios2-elf/4.1.2/../../../../nios2-elf/lib\libc.a(lib_a-strncmp.o)
 .debug_info    0x0007df8f      0x12a d:/altera/13.0/nios2eds/bin/gnu/h-i686-mingw32/bin/../lib/gcc/nios2-elf/4.1.2/../../../../nios2-elf/lib\libc.a(lib_a-strncpy.o)
 .debug_info    0x0007e0b9      0xa2a d:/altera/13.0/nios2eds/bin/gnu/h-i686-mingw32/bin/../lib/gcc/nios2-elf/4.1.2/../../../../nios2-elf/lib\libc.a(lib_a-strtol.o)
 .debug_info    0x0007eae3      0x9aa d:/altera/13.0/nios2eds/bin/gnu/h-i686-mingw32/bin/../lib/gcc/nios2-elf/4.1.2/../../../../nios2-elf/lib\libc.a(lib_a-vprintf.o)
 .debug_info    0x0007f48d      0x9ed d:/altera/13.0/nios2eds/bin/gnu/h-i686-mingw32/bin/../lib/gcc/nios2-elf/4.1.2/../../../../nios2-elf/lib\libc.a(lib_a-vsprintf.o)
 .debug_info    0x0007fe7a      0x99c d:/altera/13.0/nios2eds/bin/gnu/h-i686-mingw32/bin/../lib/gcc/nios2-elf/4.1.2/../../../../nios2-elf/lib\libc.a(lib_a-__atexit.o)
 .debug_info    0x00080816      0x9e2 d:/altera/13.0/nios2eds/bin/gnu/h-i686-mingw32/bin/../lib/gcc/nios2-elf/4.1.2/../../../../nios2-elf/lib\libc.a(lib_a-__call_atexit.o)
 .debug_info    0x000811f8      0x202 ../PepinoBoris_bsp/\libucosii_bsp.a(alt_exit.o)

.debug_abbrev   0x00000000    0x134de
 *(.debug_abbrev)
 .debug_abbrev  0x00000000       0x14 ../PepinoBoris_bsp//obj/HAL/src/crt0.o
 .debug_abbrev  0x00000014       0x5a obj/default/VGA.o
 .debug_abbrev  0x0000006e      0x1f1 obj/default/alt_error_handler.o
 .debug_abbrev  0x0000025f      0x231 obj/default/dm9000a.o
 .debug_abbrev  0x00000490      0x196 obj/default/iniche_init.o
 .debug_abbrev  0x00000626       0xf5 obj/default/led.o
 .debug_abbrev  0x0000071b      0x134 obj/default/my_threads.o
 .debug_abbrev  0x0000084f      0x2ad obj/default/network_utilities.o
 .debug_abbrev  0x00000afc      0x187 obj/default/sdcard/my_sdcard.o
 .debug_abbrev  0x00000c83      0x170 obj/default/simple_socket_server.o
 .debug_abbrev  0x00000df3        0x1 obj/default/tse_my_system.o
 .debug_abbrev  0x00000df4       0x5d d:/altera/13.0/nios2eds/bin/gnu/h-i686-mingw32/bin/../lib/gcc/nios2-elf/4.1.2\libgcc.a(_fixunsdfsi.o)
 .debug_abbrev  0x00000e51      0x1e1 d:/altera/13.0/nios2eds/bin/gnu/h-i686-mingw32/bin/../lib/gcc/nios2-elf/4.1.2\libgcc.a(_addsub_sf.o)
 .debug_abbrev  0x00001032      0x206 d:/altera/13.0/nios2eds/bin/gnu/h-i686-mingw32/bin/../lib/gcc/nios2-elf/4.1.2\libgcc.a(_mul_sf.o)
 .debug_abbrev  0x00001238      0x1e5 d:/altera/13.0/nios2eds/bin/gnu/h-i686-mingw32/bin/../lib/gcc/nios2-elf/4.1.2\libgcc.a(_div_sf.o)
 .debug_abbrev  0x0000141d      0x176 d:/altera/13.0/nios2eds/bin/gnu/h-i686-mingw32/bin/../lib/gcc/nios2-elf/4.1.2\libgcc.a(_sf_to_si.o)
 .debug_abbrev  0x00001593       0xba d:/altera/13.0/nios2eds/bin/gnu/h-i686-mingw32/bin/../lib/gcc/nios2-elf/4.1.2\libgcc.a(_thenan_sf.o)
 .debug_abbrev  0x0000164d      0x155 d:/altera/13.0/nios2eds/bin/gnu/h-i686-mingw32/bin/../lib/gcc/nios2-elf/4.1.2\libgcc.a(_usi_to_sf.o)
 .debug_abbrev  0x000017a2      0x1d2 d:/altera/13.0/nios2eds/bin/gnu/h-i686-mingw32/bin/../lib/gcc/nios2-elf/4.1.2\libgcc.a(_addsub_df.o)
 .debug_abbrev  0x00001974      0x204 d:/altera/13.0/nios2eds/bin/gnu/h-i686-mingw32/bin/../lib/gcc/nios2-elf/4.1.2\libgcc.a(_mul_df.o)
 .debug_abbrev  0x00001b78      0x151 d:/altera/13.0/nios2eds/bin/gnu/h-i686-mingw32/bin/../lib/gcc/nios2-elf/4.1.2\libgcc.a(_ge_df.o)
 .debug_abbrev  0x00001cc9      0x176 d:/altera/13.0/nios2eds/bin/gnu/h-i686-mingw32/bin/../lib/gcc/nios2-elf/4.1.2\libgcc.a(_df_to_si.o)
 .debug_abbrev  0x00001e3f       0xba d:/altera/13.0/nios2eds/bin/gnu/h-i686-mingw32/bin/../lib/gcc/nios2-elf/4.1.2\libgcc.a(_thenan_df.o)
 .debug_abbrev  0x00001ef9      0x155 d:/altera/13.0/nios2eds/bin/gnu/h-i686-mingw32/bin/../lib/gcc/nios2-elf/4.1.2\libgcc.a(_usi_to_df.o)
 .debug_abbrev  0x0000204e       0xee d:/altera/13.0/nios2eds/bin/gnu/h-i686-mingw32/bin/../lib/gcc/nios2-elf/4.1.2\libgcc.a(_muldi3.o)
 .debug_abbrev  0x0000213c       0xb9 d:/altera/13.0/nios2eds/bin/gnu/h-i686-mingw32/bin/../lib/gcc/nios2-elf/4.1.2\libgcc.a(_clzsi2.o)
 .debug_abbrev  0x000021f5      0x1aa d:/altera/13.0/nios2eds/bin/gnu/h-i686-mingw32/bin/../lib/gcc/nios2-elf/4.1.2\libgcc.a(_pack_sf.o)
 .debug_abbrev  0x0000239f      0x158 d:/altera/13.0/nios2eds/bin/gnu/h-i686-mingw32/bin/../lib/gcc/nios2-elf/4.1.2\libgcc.a(_unpack_sf.o)
 .debug_abbrev  0x000024f7      0x1b1 d:/altera/13.0/nios2eds/bin/gnu/h-i686-mingw32/bin/../lib/gcc/nios2-elf/4.1.2\libgcc.a(_pack_df.o)
 .debug_abbrev  0x000026a8      0x149 d:/altera/13.0/nios2eds/bin/gnu/h-i686-mingw32/bin/../lib/gcc/nios2-elf/4.1.2\libgcc.a(_unpack_df.o)
 .debug_abbrev  0x000027f1      0x132 d:/altera/13.0/nios2eds/bin/gnu/h-i686-mingw32/bin/../lib/gcc/nios2-elf/4.1.2\libgcc.a(_fpcmp_parts_df.o)
 .debug_abbrev  0x00002923       0x61 d:/altera/13.0/nios2eds/bin/gnu/h-i686-mingw32/bin/../lib/gcc/nios2-elf/4.1.2\libgcc.a(_clz.o)
 .debug_abbrev  0x00002984       0x61 d:/altera/13.0/nios2eds/bin/gnu/h-i686-mingw32/bin/../lib/gcc/nios2-elf/4.1.2/../../../../nios2-elf/lib\libc.a(lib_a-ctype_.o)
 .debug_abbrev  0x000029e5      0x197 d:/altera/13.0/nios2eds/bin/gnu/h-i686-mingw32/bin/../lib/gcc/nios2-elf/4.1.2/../../../../nios2-elf/lib\libc.a(lib_a-fprintf.o)
 .debug_abbrev  0x00002b7c      0x1b1 d:/altera/13.0/nios2eds/bin/gnu/h-i686-mingw32/bin/../lib/gcc/nios2-elf/4.1.2/../../../../nios2-elf/lib\libc.a(lib_a-fwrite.o)
 .debug_abbrev  0x00002d2d      0x17f d:/altera/13.0/nios2eds/bin/gnu/h-i686-mingw32/bin/../lib/gcc/nios2-elf/4.1.2/../../../../nios2-elf/lib\libc.a(lib_a-getc.o)
 .debug_abbrev  0x00002eac      0x157 d:/altera/13.0/nios2eds/bin/gnu/h-i686-mingw32/bin/../lib/gcc/nios2-elf/4.1.2/../../../../nios2-elf/lib\libc.a(lib_a-impure.o)
 .debug_abbrev  0x00003003       0xb8 d:/altera/13.0/nios2eds/bin/gnu/h-i686-mingw32/bin/../lib/gcc/nios2-elf/4.1.2/../../../../nios2-elf/lib\libc.a(lib_a-memset.o)
 .debug_abbrev  0x000030bb      0x194 d:/altera/13.0/nios2eds/bin/gnu/h-i686-mingw32/bin/../lib/gcc/nios2-elf/4.1.2/../../../../nios2-elf/lib\libc.a(lib_a-perror.o)
 .debug_abbrev  0x0000324f      0x191 d:/altera/13.0/nios2eds/bin/gnu/h-i686-mingw32/bin/../lib/gcc/nios2-elf/4.1.2/../../../../nios2-elf/lib\libc.a(lib_a-printf.o)
 .debug_abbrev  0x000033e0      0x17f d:/altera/13.0/nios2eds/bin/gnu/h-i686-mingw32/bin/../lib/gcc/nios2-elf/4.1.2/../../../../nios2-elf/lib\libc.a(lib_a-putc.o)
 .debug_abbrev  0x0000355f      0x170 d:/altera/13.0/nios2eds/bin/gnu/h-i686-mingw32/bin/../lib/gcc/nios2-elf/4.1.2/../../../../nios2-elf/lib\libc.a(lib_a-putchar.o)
 .debug_abbrev  0x000036cf      0x1ac d:/altera/13.0/nios2eds/bin/gnu/h-i686-mingw32/bin/../lib/gcc/nios2-elf/4.1.2/../../../../nios2-elf/lib\libc.a(lib_a-puts.o)
 .debug_abbrev  0x0000387b      0x189 d:/altera/13.0/nios2eds/bin/gnu/h-i686-mingw32/bin/../lib/gcc/nios2-elf/4.1.2/../../../../nios2-elf/lib\libc.a(lib_a-rget.o)
 .debug_abbrev  0x00003a04       0x68 d:/altera/13.0/nios2eds/bin/gnu/h-i686-mingw32/bin/../lib/gcc/nios2-elf/4.1.2/../../../../nios2-elf/lib\libc.a(lib_a-strerror.o)
 .debug_abbrev  0x00003a6c       0x8b d:/altera/13.0/nios2eds/bin/gnu/h-i686-mingw32/bin/../lib/gcc/nios2-elf/4.1.2/../../../../nios2-elf/lib\libc.a(lib_a-strlen.o)
 .debug_abbrev  0x00003af7       0x5b d:/altera/13.0/nios2eds/bin/gnu/h-i686-mingw32/bin/../lib/gcc/nios2-elf/4.1.2/../../../../nios2-elf/lib\libc.a(lib_a-u_strerr.o)
 .debug_abbrev  0x00003b52      0x30a d:/altera/13.0/nios2eds/bin/gnu/h-i686-mingw32/bin/../lib/gcc/nios2-elf/4.1.2/../../../../nios2-elf/lib\libc.a(lib_a-vfprintf.o)
 .debug_abbrev  0x00003e5c      0x198 d:/altera/13.0/nios2eds/bin/gnu/h-i686-mingw32/bin/../lib/gcc/nios2-elf/4.1.2/../../../../nios2-elf/lib\libc.a(lib_a-wbuf.o)
 .debug_abbrev  0x00003ff4      0x170 d:/altera/13.0/nios2eds/bin/gnu/h-i686-mingw32/bin/../lib/gcc/nios2-elf/4.1.2/../../../../nios2-elf/lib\libc.a(lib_a-wsetup.o)
 .debug_abbrev  0x00004164      0x232 d:/altera/13.0/nios2eds/bin/gnu/h-i686-mingw32/bin/../lib/gcc/nios2-elf/4.1.2/../../../../nios2-elf/lib\libc.a(lib_a-dtoa.o)
 .debug_abbrev  0x00004396      0x1c6 d:/altera/13.0/nios2eds/bin/gnu/h-i686-mingw32/bin/../lib/gcc/nios2-elf/4.1.2/../../../../nios2-elf/lib\libc.a(lib_a-fflush.o)
 .debug_abbrev  0x0000455c      0x24c d:/altera/13.0/nios2eds/bin/gnu/h-i686-mingw32/bin/../lib/gcc/nios2-elf/4.1.2/../../../../nios2-elf/lib\libc.a(lib_a-findfp.o)
 .debug_abbrev  0x000047a8      0x18c d:/altera/13.0/nios2eds/bin/gnu/h-i686-mingw32/bin/../lib/gcc/nios2-elf/4.1.2/../../../../nios2-elf/lib\libc.a(lib_a-fputc.o)
 .debug_abbrev  0x00004934      0x1aa d:/altera/13.0/nios2eds/bin/gnu/h-i686-mingw32/bin/../lib/gcc/nios2-elf/4.1.2/../../../../nios2-elf/lib\libc.a(lib_a-fputs.o)
 .debug_abbrev  0x00004ade      0x1d9 d:/altera/13.0/nios2eds/bin/gnu/h-i686-mingw32/bin/../lib/gcc/nios2-elf/4.1.2/../../../../nios2-elf/lib\libc.a(lib_a-freer.o)
 .debug_abbrev  0x00004cb7      0x1a3 d:/altera/13.0/nios2eds/bin/gnu/h-i686-mingw32/bin/../lib/gcc/nios2-elf/4.1.2/../../../../nios2-elf/lib\libc.a(lib_a-fvwrite.o)
 .debug_abbrev  0x00004e5a      0x1e3 d:/altera/13.0/nios2eds/bin/gnu/h-i686-mingw32/bin/../lib/gcc/nios2-elf/4.1.2/../../../../nios2-elf/lib\libc.a(lib_a-fwalk.o)
 .debug_abbrev  0x0000503d      0x1ed d:/altera/13.0/nios2eds/bin/gnu/h-i686-mingw32/bin/../lib/gcc/nios2-elf/4.1.2/../../../../nios2-elf/lib\libc.a(lib_a-locale.o)
 .debug_abbrev  0x0000522a      0x197 d:/altera/13.0/nios2eds/bin/gnu/h-i686-mingw32/bin/../lib/gcc/nios2-elf/4.1.2/../../../../nios2-elf/lib\libc.a(lib_a-makebuf.o)
 .debug_abbrev  0x000053c1      0x216 d:/altera/13.0/nios2eds/bin/gnu/h-i686-mingw32/bin/../lib/gcc/nios2-elf/4.1.2/../../../../nios2-elf/lib\libc.a(lib_a-mallocr.o)
 .debug_abbrev  0x000055d7       0xb5 d:/altera/13.0/nios2eds/bin/gnu/h-i686-mingw32/bin/../lib/gcc/nios2-elf/4.1.2/../../../../nios2-elf/lib\libc.a(lib_a-memchr.o)
 .debug_abbrev  0x0000568c       0xb5 d:/altera/13.0/nios2eds/bin/gnu/h-i686-mingw32/bin/../lib/gcc/nios2-elf/4.1.2/../../../../nios2-elf/lib\libc.a(lib_a-memcpy.o)
 .debug_abbrev  0x00005741       0xb5 d:/altera/13.0/nios2eds/bin/gnu/h-i686-mingw32/bin/../lib/gcc/nios2-elf/4.1.2/../../../../nios2-elf/lib\libc.a(lib_a-memmove.o)
 .debug_abbrev  0x000057f6      0x297 d:/altera/13.0/nios2eds/bin/gnu/h-i686-mingw32/bin/../lib/gcc/nios2-elf/4.1.2/../../../../nios2-elf/lib\libc.a(lib_a-mprec.o)
 .debug_abbrev  0x00005a8d      0x1c3 d:/altera/13.0/nios2eds/bin/gnu/h-i686-mingw32/bin/../lib/gcc/nios2-elf/4.1.2/../../../../nios2-elf/lib\libc.a(lib_a-reallocr.o)
 .debug_abbrev  0x00005c50      0x187 d:/altera/13.0/nios2eds/bin/gnu/h-i686-mingw32/bin/../lib/gcc/nios2-elf/4.1.2/../../../../nios2-elf/lib\libc.a(lib_a-refill.o)
 .debug_abbrev  0x00005dd7       0x79 d:/altera/13.0/nios2eds/bin/gnu/h-i686-mingw32/bin/../lib/gcc/nios2-elf/4.1.2/../../../../nios2-elf/lib\libc.a(lib_a-s_isinfd.o)
 .debug_abbrev  0x00005e50       0x79 d:/altera/13.0/nios2eds/bin/gnu/h-i686-mingw32/bin/../lib/gcc/nios2-elf/4.1.2/../../../../nios2-elf/lib\libc.a(lib_a-s_isnand.o)
 .debug_abbrev  0x00005ec9      0x18c d:/altera/13.0/nios2eds/bin/gnu/h-i686-mingw32/bin/../lib/gcc/nios2-elf/4.1.2/../../../../nios2-elf/lib\libc.a(lib_a-sbrkr.o)
 .debug_abbrev  0x00006055      0x1c9 d:/altera/13.0/nios2eds/bin/gnu/h-i686-mingw32/bin/../lib/gcc/nios2-elf/4.1.2/../../../../nios2-elf/lib\libc.a(lib_a-stdio.o)
 .debug_abbrev  0x0000621e       0x80 d:/altera/13.0/nios2eds/bin/gnu/h-i686-mingw32/bin/../lib/gcc/nios2-elf/4.1.2/../../../../nios2-elf/lib\libc.a(lib_a-strcmp.o)
 .debug_abbrev  0x0000629e      0x184 d:/altera/13.0/nios2eds/bin/gnu/h-i686-mingw32/bin/../lib/gcc/nios2-elf/4.1.2/../../../../nios2-elf/lib\libc.a(lib_a-writer.o)
 .debug_abbrev  0x00006422      0x1b8 d:/altera/13.0/nios2eds/bin/gnu/h-i686-mingw32/bin/../lib/gcc/nios2-elf/4.1.2/../../../../nios2-elf/lib\libc.a(lib_a-callocr.o)
 .debug_abbrev  0x000065da      0x17f d:/altera/13.0/nios2eds/bin/gnu/h-i686-mingw32/bin/../lib/gcc/nios2-elf/4.1.2/../../../../nios2-elf/lib\libc.a(lib_a-closer.o)
 .debug_abbrev  0x00006759      0x1a7 d:/altera/13.0/nios2eds/bin/gnu/h-i686-mingw32/bin/../lib/gcc/nios2-elf/4.1.2/../../../../nios2-elf/lib\libc.a(lib_a-fclose.o)
 .debug_abbrev  0x00006900      0x18e d:/altera/13.0/nios2eds/bin/gnu/h-i686-mingw32/bin/../lib/gcc/nios2-elf/4.1.2/../../../../nios2-elf/lib\libc.a(lib_a-fstatr.o)
 .debug_abbrev  0x00006a8e       0x3b d:/altera/13.0/nios2eds/bin/gnu/h-i686-mingw32/bin/../lib/gcc/nios2-elf/4.1.2/../../../../nios2-elf/lib\libc.a(lib_a-int_errno.o)
 .debug_abbrev  0x00006ac9      0x17f d:/altera/13.0/nios2eds/bin/gnu/h-i686-mingw32/bin/../lib/gcc/nios2-elf/4.1.2/../../../../nios2-elf/lib\libc.a(lib_a-isattyr.o)
 .debug_abbrev  0x00006c48      0x18e d:/altera/13.0/nios2eds/bin/gnu/h-i686-mingw32/bin/../lib/gcc/nios2-elf/4.1.2/../../../../nios2-elf/lib\libc.a(lib_a-lseekr.o)
 .debug_abbrev  0x00006dd6      0x17f d:/altera/13.0/nios2eds/bin/gnu/h-i686-mingw32/bin/../lib/gcc/nios2-elf/4.1.2/../../../../nios2-elf/lib\libc.a(lib_a-readr.o)
 .debug_abbrev  0x00006f55      0x16b d:/altera/13.0/nios2eds/bin/gnu/h-i686-mingw32/bin/../lib/gcc/nios2-elf/4.1.2\libgcc.a(_udivdi3.o)
 .debug_abbrev  0x000070c0      0x18e d:/altera/13.0/nios2eds/bin/gnu/h-i686-mingw32/bin/../lib/gcc/nios2-elf/4.1.2\libgcc.a(_umoddi3.o)
 .debug_abbrev  0x0000724e      0x1e3 d:/altera/13.0/nios2eds/bin/gnu/h-i686-mingw32/bin/../lib/gcc/nios2-elf/4.1.2\libgcc.a(_div_df.o)
 .debug_abbrev  0x00007431      0x151 d:/altera/13.0/nios2eds/bin/gnu/h-i686-mingw32/bin/../lib/gcc/nios2-elf/4.1.2\libgcc.a(_eq_df.o)
 .debug_abbrev  0x00007582      0x151 d:/altera/13.0/nios2eds/bin/gnu/h-i686-mingw32/bin/../lib/gcc/nios2-elf/4.1.2\libgcc.a(_ne_df.o)
 .debug_abbrev  0x000076d3      0x151 d:/altera/13.0/nios2eds/bin/gnu/h-i686-mingw32/bin/../lib/gcc/nios2-elf/4.1.2\libgcc.a(_gt_df.o)
 .debug_abbrev  0x00007824      0x151 d:/altera/13.0/nios2eds/bin/gnu/h-i686-mingw32/bin/../lib/gcc/nios2-elf/4.1.2\libgcc.a(_lt_df.o)
 .debug_abbrev  0x00007975      0x13f d:/altera/13.0/nios2eds/bin/gnu/h-i686-mingw32/bin/../lib/gcc/nios2-elf/4.1.2\libgcc.a(_si_to_df.o)
 .debug_abbrev  0x00007ab4       0xe0 d:/altera/13.0/nios2eds/bin/gnu/h-i686-mingw32/bin/../lib/gcc/nios2-elf/4.1.2\libgcc.a(lib2-divmod.o)
 .debug_abbrev  0x00007b94      0x128 ../PepinoBoris_bsp/\libucosii_bsp.a(alt_flash_dev.o)
 .debug_abbrev  0x00007cbc      0x102 ../PepinoBoris_bsp/\libucosii_bsp.a(alt_fstat.o)
 .debug_abbrev  0x00007dbe      0x180 ../PepinoBoris_bsp/\libucosii_bsp.a(alt_irq_register.o)
 .debug_abbrev  0x00007f3e       0x44 ../PepinoBoris_bsp/\libucosii_bsp.a(alt_irq_vars.o)
 .debug_abbrev  0x00007f82      0x102 ../PepinoBoris_bsp/\libucosii_bsp.a(alt_isatty.o)
 .debug_abbrev  0x00008084      0x102 ../PepinoBoris_bsp/\libucosii_bsp.a(alt_lseek.o)
 .debug_abbrev  0x00008186      0x120 ../PepinoBoris_bsp/\libucosii_bsp.a(alt_main.o)
 .debug_abbrev  0x000082a6      0x115 ../PepinoBoris_bsp/\libucosii_bsp.a(alt_sbrk.o)
 .debug_abbrev  0x000083bb       0xb7 ../PepinoBoris_bsp/\libucosii_bsp.a(alt_usleep.o)
 .debug_abbrev  0x00008472      0x1b3 ../PepinoBoris_bsp/\libucosii_bsp.a(alt_env_lock.o)
 .debug_abbrev  0x00008625      0x234 ../PepinoBoris_bsp/\libucosii_bsp.a(alt_malloc_lock.o)
 .debug_abbrev  0x00008859      0x2aa ../PepinoBoris_bsp/\libucosii_bsp.a(os_core.o)
 .debug_abbrev  0x00008b03      0x114 ../PepinoBoris_bsp/\libucosii_bsp.a(os_dbg.o)
 .debug_abbrev  0x00008c17      0x21b ../PepinoBoris_bsp/\libucosii_bsp.a(os_flag.o)
 .debug_abbrev  0x00008e32      0x235 ../PepinoBoris_bsp/\libucosii_bsp.a(os_mem.o)
 .debug_abbrev  0x00009067      0x20d ../PepinoBoris_bsp/\libucosii_bsp.a(os_q.o)
 .debug_abbrev  0x00009274      0x20d ../PepinoBoris_bsp/\libucosii_bsp.a(os_sem.o)
 .debug_abbrev  0x00009481      0x20e ../PepinoBoris_bsp/\libucosii_bsp.a(os_task.o)
 .debug_abbrev  0x0000968f      0x1de ../PepinoBoris_bsp/\libucosii_bsp.a(os_time.o)
 .debug_abbrev  0x0000986d      0x1c8 ../PepinoBoris_bsp/\libucosii_bsp.a(alt_sys_init.o)
 .debug_abbrev  0x00009a35      0x1bf ../PepinoBoris_bsp/\libucosii_bsp.a(altera_avalon_cfi_flash.o)
 .debug_abbrev  0x00009bf4      0x185 ../PepinoBoris_bsp/\libucosii_bsp.a(altera_avalon_cfi_flash_table.o)
 .debug_abbrev  0x00009d79      0x1bf ../PepinoBoris_bsp/\libucosii_bsp.a(altera_avalon_epcs_flash_controller.o)
 .debug_abbrev  0x00009f38      0x13c ../PepinoBoris_bsp/\libucosii_bsp.a(altera_avalon_jtag_uart_fd.o)
 .debug_abbrev  0x0000a074      0x21e ../PepinoBoris_bsp/\libucosii_bsp.a(altera_avalon_jtag_uart_init.o)
 .debug_abbrev  0x0000a292      0x135 ../PepinoBoris_bsp/\libucosii_bsp.a(altera_avalon_jtag_uart_ioctl.o)
 .debug_abbrev  0x0000a3c7      0x1ee ../PepinoBoris_bsp/\libucosii_bsp.a(altera_avalon_jtag_uart_read.o)
 .debug_abbrev  0x0000a5b5      0x1ea ../PepinoBoris_bsp/\libucosii_bsp.a(altera_avalon_jtag_uart_write.o)
 .debug_abbrev  0x0000a79f      0x235 ../PepinoBoris_bsp/\libucosii_bsp.a(altera_avalon_lcd_16207.o)
 .debug_abbrev  0x0000a9d4      0x12f ../PepinoBoris_bsp/\libucosii_bsp.a(altera_avalon_lcd_16207_fd.o)
 .debug_abbrev  0x0000ab03      0x137 ../PepinoBoris_bsp/\libucosii_bsp.a(altera_avalon_timer_sc.o)
 .debug_abbrev  0x0000ac3a      0x124 ../PepinoBoris_bsp/\libucosii_bsp.a(altera_avalon_uart_fd.o)
 .debug_abbrev  0x0000ad5e      0x204 ../PepinoBoris_bsp/\libucosii_bsp.a(altera_avalon_uart_init.o)
 .debug_abbrev  0x0000af62      0x1b9 ../PepinoBoris_bsp/\libucosii_bsp.a(altera_avalon_uart_read.o)
 .debug_abbrev  0x0000b11b      0x1c0 ../PepinoBoris_bsp/\libucosii_bsp.a(altera_avalon_uart_write.o)
 .debug_abbrev  0x0000b2db      0x1f9 ../PepinoBoris_bsp/\libucosii_bsp.a(altera_up_sd_card_avalon_interface.o)
 .debug_abbrev  0x0000b4d4      0x145 ../PepinoBoris_bsp/\libucosii_bsp.a(epcs_commands.o)
 .debug_abbrev  0x0000b619       0x77 ../PepinoBoris_bsp/\libucosii_bsp.a(alt_iniche_close.o)
 .debug_abbrev  0x0000b690      0x11f ../PepinoBoris_bsp/\libucosii_bsp.a(alt_iniche_dev.o)
 .debug_abbrev  0x0000b7af       0x7e ../PepinoBoris_bsp/\libucosii_bsp.a(alt_iniche_read.o)
 .debug_abbrev  0x0000b82d       0x85 ../PepinoBoris_bsp/\libucosii_bsp.a(alt_iniche_write.o)
 .debug_abbrev  0x0000b8b2      0x184 ../PepinoBoris_bsp/\libucosii_bsp.a(ipnet.o)
 .debug_abbrev  0x0000ba36      0x18b ../PepinoBoris_bsp/\libucosii_bsp.a(ipstart.o)
 .debug_abbrev  0x0000bbc1      0x191 ../PepinoBoris_bsp/\libucosii_bsp.a(igmp_cmn.o)
 .debug_abbrev  0x0000bd52      0x1a3 ../PepinoBoris_bsp/\libucosii_bsp.a(bsdsock.o)
 .debug_abbrev  0x0000bef5       0x96 ../PepinoBoris_bsp/\libucosii_bsp.a(cksum.o)
 .debug_abbrev  0x0000bf8b      0x18b ../PepinoBoris_bsp/\libucosii_bsp.a(in_utils.o)
 .debug_abbrev  0x0000c116      0x152 ../PepinoBoris_bsp/\libucosii_bsp.a(netmain.o)
 .debug_abbrev  0x0000c268      0x144 ../PepinoBoris_bsp/\libucosii_bsp.a(tk_crnos.o)
 .debug_abbrev  0x0000c3ac      0x217 ../PepinoBoris_bsp/\libucosii_bsp.a(dhcpclnt.o)
 .debug_abbrev  0x0000c5c3       0x8f ../PepinoBoris_bsp/\libucosii_bsp.a(dhcputil.o)
 .debug_abbrev  0x0000c652      0x196 ../PepinoBoris_bsp/\libucosii_bsp.a(pktalloc.o)
 .debug_abbrev  0x0000c7e8       0xcb ../PepinoBoris_bsp/\libucosii_bsp.a(q.o)
 .debug_abbrev  0x0000c8b3      0x144 ../PepinoBoris_bsp/\libucosii_bsp.a(udp_open.o)
 .debug_abbrev  0x0000c9f7       0x14 ../PepinoBoris_bsp/\libucosii_bsp.a(asm_cksum.o)
 .debug_abbrev  0x0000ca0b      0x242 ../PepinoBoris_bsp/\libucosii_bsp.a(brdutils.o)
 .debug_abbrev  0x0000cc4d      0x194 ../PepinoBoris_bsp/\libucosii_bsp.a(osportco.o)
 .debug_abbrev  0x0000cde1      0x199 ../PepinoBoris_bsp/\libucosii_bsp.a(targnios.o)
 .debug_abbrev  0x0000cf7a      0x1dc ../PepinoBoris_bsp/\libucosii_bsp.a(nptcp.o)
 .debug_abbrev  0x0000d156      0x136 ../PepinoBoris_bsp/\libucosii_bsp.a(rawsock.o)
 .debug_abbrev  0x0000d28c      0x1de ../PepinoBoris_bsp/\libucosii_bsp.a(sockcall.o)
 .debug_abbrev  0x0000d46a      0x1ef ../PepinoBoris_bsp/\libucosii_bsp.a(socket.o)
 .debug_abbrev  0x0000d659      0x1ac ../PepinoBoris_bsp/\libucosii_bsp.a(socket2.o)
 .debug_abbrev  0x0000d805      0x17f ../PepinoBoris_bsp/\libucosii_bsp.a(soselect.o)
 .debug_abbrev  0x0000d984      0x1ca ../PepinoBoris_bsp/\libucosii_bsp.a(tcp_in.o)
 .debug_abbrev  0x0000db4e      0x1a4 ../PepinoBoris_bsp/\libucosii_bsp.a(tcp_out.o)
 .debug_abbrev  0x0000dcf2      0x1c3 ../PepinoBoris_bsp/\libucosii_bsp.a(tcp_subr.o)
 .debug_abbrev  0x0000deb5      0x19e ../PepinoBoris_bsp/\libucosii_bsp.a(tcp_timr.o)
 .debug_abbrev  0x0000e053      0x175 ../PepinoBoris_bsp/\libucosii_bsp.a(tcp_usr.o)
 .debug_abbrev  0x0000e1c8       0x77 ../PepinoBoris_bsp/\libucosii_bsp.a(tcpport.o)
 .debug_abbrev  0x0000e23f      0x190 ../PepinoBoris_bsp/\libucosii_bsp.a(udpsock.o)
 .debug_abbrev  0x0000e3cf      0x172 ../PepinoBoris_bsp/\libucosii_bsp.a(alt_alarm_start.o)
 .debug_abbrev  0x0000e541       0x6c ../PepinoBoris_bsp/\libucosii_bsp.a(alt_busy_sleep.o)
 .debug_abbrev  0x0000e5ad      0x102 ../PepinoBoris_bsp/\libucosii_bsp.a(alt_close.o)
 .debug_abbrev  0x0000e6af       0x7a ../PepinoBoris_bsp/\libucosii_bsp.a(alt_dcache_flush.o)
 .debug_abbrev  0x0000e729      0x10a ../PepinoBoris_bsp/\libucosii_bsp.a(alt_dev.o)
 .debug_abbrev  0x0000e833       0xf6 ../PepinoBoris_bsp/\libucosii_bsp.a(alt_dev_llist_insert.o)
 .debug_abbrev  0x0000e929       0x76 ../PepinoBoris_bsp/\libucosii_bsp.a(alt_do_ctors.o)
 .debug_abbrev  0x0000e99f       0x76 ../PepinoBoris_bsp/\libucosii_bsp.a(alt_do_dtors.o)
 .debug_abbrev  0x0000ea15       0x5e ../PepinoBoris_bsp/\libucosii_bsp.a(alt_errno.o)
 .debug_abbrev  0x0000ea73       0xd6 ../PepinoBoris_bsp/\libucosii_bsp.a(alt_find_dev.o)
 .debug_abbrev  0x0000eb49      0x134 ../PepinoBoris_bsp/\libucosii_bsp.a(alt_iic.o)
 .debug_abbrev  0x0000ec7d      0x14e ../PepinoBoris_bsp/\libucosii_bsp.a(alt_iic_isr_register.o)
 .debug_abbrev  0x0000edcb       0xf7 ../PepinoBoris_bsp/\libucosii_bsp.a(alt_io_redirect.o)
 .debug_abbrev  0x0000eec2       0x12 ../PepinoBoris_bsp/\libucosii_bsp.a(alt_irq_entry.o)
 .debug_abbrev  0x0000eed4      0x124 ../PepinoBoris_bsp/\libucosii_bsp.a(alt_irq_handler.o)
 .debug_abbrev  0x0000eff8      0x119 ../PepinoBoris_bsp/\libucosii_bsp.a(alt_open.o)
 .debug_abbrev  0x0000f111      0x102 ../PepinoBoris_bsp/\libucosii_bsp.a(alt_read.o)
 .debug_abbrev  0x0000f213       0xd3 ../PepinoBoris_bsp/\libucosii_bsp.a(alt_release_fd.o)
 .debug_abbrev  0x0000f2e6       0x74 ../PepinoBoris_bsp/\libucosii_bsp.a(alt_remap_cached.o)
 .debug_abbrev  0x0000f35a       0x74 ../PepinoBoris_bsp/\libucosii_bsp.a(alt_remap_uncached.o)
 .debug_abbrev  0x0000f3ce      0x150 ../PepinoBoris_bsp/\libucosii_bsp.a(alt_tick.o)
 .debug_abbrev  0x0000f51e      0x107 ../PepinoBoris_bsp/\libucosii_bsp.a(alt_write.o)
 .debug_abbrev  0x0000f625       0x3f ../PepinoBoris_bsp/\libucosii_bsp.a(altera_nios2_qsys_irq.o)
 .debug_abbrev  0x0000f664       0x14 ../PepinoBoris_bsp/\libucosii_bsp.a(os_cpu_a.o)
 .debug_abbrev  0x0000f678      0x1d0 ../PepinoBoris_bsp/\libucosii_bsp.a(os_cpu_c.o)
 .debug_abbrev  0x0000f848      0x14d ../PepinoBoris_bsp/\libucosii_bsp.a(altera_avalon_cfi_flash_amd.o)
 .debug_abbrev  0x0000f995      0x14d ../PepinoBoris_bsp/\libucosii_bsp.a(altera_avalon_cfi_flash_intel.o)
 .debug_abbrev  0x0000fae2       0x7c ../PepinoBoris_bsp/\libucosii_bsp.a(altera_avalon_spi.o)
 .debug_abbrev  0x0000fb5e      0x173 ../PepinoBoris_bsp/\libucosii_bsp.a(allports.o)
 .debug_abbrev  0x0000fcd1      0x151 ../PepinoBoris_bsp/\libucosii_bsp.a(timeouts.o)
 .debug_abbrev  0x0000fe22       0xa4 ../PepinoBoris_bsp/\libucosii_bsp.a(tk_misc.o)
 .debug_abbrev  0x0000fec6       0x92 ../PepinoBoris_bsp/\libucosii_bsp.a(alt_iniche_fcntl.o)
 .debug_abbrev  0x0000ff58      0x1eb ../PepinoBoris_bsp/\libucosii_bsp.a(et_arp.o)
 .debug_abbrev  0x00010143      0x13d ../PepinoBoris_bsp/\libucosii_bsp.a(iface.o)
 .debug_abbrev  0x00010280      0x1ed ../PepinoBoris_bsp/\libucosii_bsp.a(ip.o)
 .debug_abbrev  0x0001046d      0x1ca ../PepinoBoris_bsp/\libucosii_bsp.a(ip_reasm.o)
 .debug_abbrev  0x00010637      0x166 ../PepinoBoris_bsp/\libucosii_bsp.a(ipdemux.o)
 .debug_abbrev  0x0001079d      0x114 ../PepinoBoris_bsp/\libucosii_bsp.a(ipmc.o)
 .debug_abbrev  0x000108b1       0xe9 ../PepinoBoris_bsp/\libucosii_bsp.a(ipport.o)
 .debug_abbrev  0x0001099a      0x19c ../PepinoBoris_bsp/\libucosii_bsp.a(ipraw.o)
 .debug_abbrev  0x00010b36      0x156 ../PepinoBoris_bsp/\libucosii_bsp.a(iproute.o)
 .debug_abbrev  0x00010c8c      0x1c0 ../PepinoBoris_bsp/\libucosii_bsp.a(udp.o)
 .debug_abbrev  0x00010e4c      0x10e ../PepinoBoris_bsp/\libucosii_bsp.a(igmp.o)
 .debug_abbrev  0x00010f5a      0x17a ../PepinoBoris_bsp/\libucosii_bsp.a(igmp2.o)
 .debug_abbrev  0x000110d4      0x189 ../PepinoBoris_bsp/\libucosii_bsp.a(ipopt.o)
 .debug_abbrev  0x0001125d      0x15a ../PepinoBoris_bsp/\libucosii_bsp.a(u_mctest.o)
 .debug_abbrev  0x000113b7      0x12e ../PepinoBoris_bsp/\libucosii_bsp.a(dhcsetup.o)
 .debug_abbrev  0x000114e5      0x175 ../PepinoBoris_bsp/\libucosii_bsp.a(memdev.o)
 .debug_abbrev  0x0001165a      0x154 ../PepinoBoris_bsp/\libucosii_bsp.a(parseip.o)
 .debug_abbrev  0x000117ae       0xad ../PepinoBoris_bsp/\libucosii_bsp.a(tcpcksum.o)
 .debug_abbrev  0x0001185b      0x19f ../PepinoBoris_bsp/\libucosii_bsp.a(in_pcb.o)
 .debug_abbrev  0x000119fa      0x1b6 ../PepinoBoris_bsp/\libucosii_bsp.a(vfsfiles.o)
 .debug_abbrev  0x00011bb0       0x77 ../PepinoBoris_bsp/\libucosii_bsp.a(vfsport.o)
 .debug_abbrev  0x00011c27       0x12 ../PepinoBoris_bsp/\libucosii_bsp.a(alt_exception_entry.o)
 .debug_abbrev  0x00011c39      0x107 ../PepinoBoris_bsp/\libucosii_bsp.a(alt_fcntl.o)
 .debug_abbrev  0x00011d40       0xd6 ../PepinoBoris_bsp/\libucosii_bsp.a(alt_find_file.o)
 .debug_abbrev  0x00011e16      0x173 ../PepinoBoris_bsp/\libucosii_bsp.a(alt_get_fd.o)
 .debug_abbrev  0x00011f89      0x15d ../PepinoBoris_bsp/\libucosii_bsp.a(icmp.o)
 .debug_abbrev  0x000120e6       0xb7 d:/altera/13.0/nios2eds/bin/gnu/h-i686-mingw32/bin/../lib/gcc/nios2-elf/4.1.2/../../../../nios2-elf/lib\libc.a(lib_a-atexit.o)
 .debug_abbrev  0x0001219d      0x176 d:/altera/13.0/nios2eds/bin/gnu/h-i686-mingw32/bin/../lib/gcc/nios2-elf/4.1.2/../../../../nios2-elf/lib\libc.a(lib_a-atoi.o)
 .debug_abbrev  0x00012313      0x17f d:/altera/13.0/nios2eds/bin/gnu/h-i686-mingw32/bin/../lib/gcc/nios2-elf/4.1.2/../../../../nios2-elf/lib\libc.a(lib_a-calloc.o)
 .debug_abbrev  0x00012492      0x16e d:/altera/13.0/nios2eds/bin/gnu/h-i686-mingw32/bin/../lib/gcc/nios2-elf/4.1.2/../../../../nios2-elf/lib\libc.a(lib_a-exit.o)
 .debug_abbrev  0x00012600      0x187 d:/altera/13.0/nios2eds/bin/gnu/h-i686-mingw32/bin/../lib/gcc/nios2-elf/4.1.2/../../../../nios2-elf/lib\libc.a(lib_a-malloc.o)
 .debug_abbrev  0x00012787       0x7c d:/altera/13.0/nios2eds/bin/gnu/h-i686-mingw32/bin/../lib/gcc/nios2-elf/4.1.2/../../../../nios2-elf/lib\libc.a(lib_a-memcmp.o)
 .debug_abbrev  0x00012803      0x191 d:/altera/13.0/nios2eds/bin/gnu/h-i686-mingw32/bin/../lib/gcc/nios2-elf/4.1.2/../../../../nios2-elf/lib\libc.a(lib_a-sprintf.o)
 .debug_abbrev  0x00012994       0x80 d:/altera/13.0/nios2eds/bin/gnu/h-i686-mingw32/bin/../lib/gcc/nios2-elf/4.1.2/../../../../nios2-elf/lib\libc.a(lib_a-strchr.o)
 .debug_abbrev  0x00012a14       0x8f d:/altera/13.0/nios2eds/bin/gnu/h-i686-mingw32/bin/../lib/gcc/nios2-elf/4.1.2/../../../../nios2-elf/lib\libc.a(lib_a-strcpy.o)
 .debug_abbrev  0x00012aa3       0x8d d:/altera/13.0/nios2eds/bin/gnu/h-i686-mingw32/bin/../lib/gcc/nios2-elf/4.1.2/../../../../nios2-elf/lib\libc.a(lib_a-strncmp.o)
 .debug_abbrev  0x00012b30       0x9c d:/altera/13.0/nios2eds/bin/gnu/h-i686-mingw32/bin/../lib/gcc/nios2-elf/4.1.2/../../../../nios2-elf/lib\libc.a(lib_a-strncpy.o)
 .debug_abbrev  0x00012bcc      0x1c7 d:/altera/13.0/nios2eds/bin/gnu/h-i686-mingw32/bin/../lib/gcc/nios2-elf/4.1.2/../../../../nios2-elf/lib\libc.a(lib_a-strtol.o)
 .debug_abbrev  0x00012d93      0x170 d:/altera/13.0/nios2eds/bin/gnu/h-i686-mingw32/bin/../lib/gcc/nios2-elf/4.1.2/../../../../nios2-elf/lib\libc.a(lib_a-vprintf.o)
 .debug_abbrev  0x00012f03      0x1a5 d:/altera/13.0/nios2eds/bin/gnu/h-i686-mingw32/bin/../lib/gcc/nios2-elf/4.1.2/../../../../nios2-elf/lib\libc.a(lib_a-vsprintf.o)
 .debug_abbrev  0x000130a8      0x1ae d:/altera/13.0/nios2eds/bin/gnu/h-i686-mingw32/bin/../lib/gcc/nios2-elf/4.1.2/../../../../nios2-elf/lib\libc.a(lib_a-__atexit.o)
 .debug_abbrev  0x00013256      0x1de d:/altera/13.0/nios2eds/bin/gnu/h-i686-mingw32/bin/../lib/gcc/nios2-elf/4.1.2/../../../../nios2-elf/lib\libc.a(lib_a-__call_atexit.o)
 .debug_abbrev  0x00013434       0xaa ../PepinoBoris_bsp/\libucosii_bsp.a(alt_exit.o)

.debug_line     0x00000000    0x4466e
 *(.debug_line)
 .debug_line    0x00000000       0x57 ../PepinoBoris_bsp//obj/HAL/src/crt0.o
 .debug_line    0x00000057      0x118 obj/default/VGA.o
 .debug_line    0x0000016f      0x710 obj/default/alt_error_handler.o
 .debug_line    0x0000087f      0xac3 obj/default/dm9000a.o
 .debug_line    0x00001342      0x5a0 obj/default/iniche_init.o
 .debug_line    0x000018e2      0x410 obj/default/led.o
 .debug_line    0x00001cf2      0x4df obj/default/my_threads.o
 .debug_line    0x000021d1      0x874 obj/default/network_utilities.o
 .debug_line    0x00002a45      0x5b3 obj/default/sdcard/my_sdcard.o
 .debug_line    0x00002ff8      0x63d obj/default/simple_socket_server.o
 .debug_line    0x00003635       0x24 obj/default/tse_my_system.o
 .debug_line    0x00003659       0xff d:/altera/13.0/nios2eds/bin/gnu/h-i686-mingw32/bin/../lib/gcc/nios2-elf/4.1.2\libgcc.a(_fixunsdfsi.o)
 .debug_line    0x00003758      0x3af d:/altera/13.0/nios2eds/bin/gnu/h-i686-mingw32/bin/../lib/gcc/nios2-elf/4.1.2\libgcc.a(_addsub_sf.o)
 .debug_line    0x00003b07      0x2c1 d:/altera/13.0/nios2eds/bin/gnu/h-i686-mingw32/bin/../lib/gcc/nios2-elf/4.1.2\libgcc.a(_mul_sf.o)
 .debug_line    0x00003dc8      0x26a d:/altera/13.0/nios2eds/bin/gnu/h-i686-mingw32/bin/../lib/gcc/nios2-elf/4.1.2\libgcc.a(_div_sf.o)
 .debug_line    0x00004032      0x141 d:/altera/13.0/nios2eds/bin/gnu/h-i686-mingw32/bin/../lib/gcc/nios2-elf/4.1.2\libgcc.a(_sf_to_si.o)
 .debug_line    0x00004173       0x94 d:/altera/13.0/nios2eds/bin/gnu/h-i686-mingw32/bin/../lib/gcc/nios2-elf/4.1.2\libgcc.a(_thenan_sf.o)
 .debug_line    0x00004207      0x183 d:/altera/13.0/nios2eds/bin/gnu/h-i686-mingw32/bin/../lib/gcc/nios2-elf/4.1.2\libgcc.a(_usi_to_sf.o)
 .debug_line    0x0000438a      0x430 d:/altera/13.0/nios2eds/bin/gnu/h-i686-mingw32/bin/../lib/gcc/nios2-elf/4.1.2\libgcc.a(_addsub_df.o)
 .debug_line    0x000047ba      0x3e5 d:/altera/13.0/nios2eds/bin/gnu/h-i686-mingw32/bin/../lib/gcc/nios2-elf/4.1.2\libgcc.a(_mul_df.o)
 .debug_line    0x00004b9f      0x129 d:/altera/13.0/nios2eds/bin/gnu/h-i686-mingw32/bin/../lib/gcc/nios2-elf/4.1.2\libgcc.a(_ge_df.o)
 .debug_line    0x00004cc8      0x149 d:/altera/13.0/nios2eds/bin/gnu/h-i686-mingw32/bin/../lib/gcc/nios2-elf/4.1.2\libgcc.a(_df_to_si.o)
 .debug_line    0x00004e11       0x94 d:/altera/13.0/nios2eds/bin/gnu/h-i686-mingw32/bin/../lib/gcc/nios2-elf/4.1.2\libgcc.a(_thenan_df.o)
 .debug_line    0x00004ea5      0x189 d:/altera/13.0/nios2eds/bin/gnu/h-i686-mingw32/bin/../lib/gcc/nios2-elf/4.1.2\libgcc.a(_usi_to_df.o)
 .debug_line    0x0000502e      0x11f d:/altera/13.0/nios2eds/bin/gnu/h-i686-mingw32/bin/../lib/gcc/nios2-elf/4.1.2\libgcc.a(_muldi3.o)
 .debug_line    0x0000514d      0x105 d:/altera/13.0/nios2eds/bin/gnu/h-i686-mingw32/bin/../lib/gcc/nios2-elf/4.1.2\libgcc.a(_clzsi2.o)
 .debug_line    0x00005252      0x1ca d:/altera/13.0/nios2eds/bin/gnu/h-i686-mingw32/bin/../lib/gcc/nios2-elf/4.1.2\libgcc.a(_pack_sf.o)
 .debug_line    0x0000541c      0x197 d:/altera/13.0/nios2eds/bin/gnu/h-i686-mingw32/bin/../lib/gcc/nios2-elf/4.1.2\libgcc.a(_unpack_sf.o)
 .debug_line    0x000055b3      0x222 d:/altera/13.0/nios2eds/bin/gnu/h-i686-mingw32/bin/../lib/gcc/nios2-elf/4.1.2\libgcc.a(_pack_df.o)
 .debug_line    0x000057d5      0x1e4 d:/altera/13.0/nios2eds/bin/gnu/h-i686-mingw32/bin/../lib/gcc/nios2-elf/4.1.2\libgcc.a(_unpack_df.o)
 .debug_line    0x000059b9      0x187 d:/altera/13.0/nios2eds/bin/gnu/h-i686-mingw32/bin/../lib/gcc/nios2-elf/4.1.2\libgcc.a(_fpcmp_parts_df.o)
 .debug_line    0x00005b40       0xaa d:/altera/13.0/nios2eds/bin/gnu/h-i686-mingw32/bin/../lib/gcc/nios2-elf/4.1.2\libgcc.a(_clz.o)
 .debug_line    0x00005bea       0x7e d:/altera/13.0/nios2eds/bin/gnu/h-i686-mingw32/bin/../lib/gcc/nios2-elf/4.1.2/../../../../nios2-elf/lib\libc.a(lib_a-ctype_.o)
 .debug_line    0x00005c68      0x27e d:/altera/13.0/nios2eds/bin/gnu/h-i686-mingw32/bin/../lib/gcc/nios2-elf/4.1.2/../../../../nios2-elf/lib\libc.a(lib_a-fprintf.o)
 .debug_line    0x00005ee6      0x2d3 d:/altera/13.0/nios2eds/bin/gnu/h-i686-mingw32/bin/../lib/gcc/nios2-elf/4.1.2/../../../../nios2-elf/lib\libc.a(lib_a-fwrite.o)
 .debug_line    0x000061b9      0x29e d:/altera/13.0/nios2eds/bin/gnu/h-i686-mingw32/bin/../lib/gcc/nios2-elf/4.1.2/../../../../nios2-elf/lib\libc.a(lib_a-getc.o)
 .debug_line    0x00006457      0x224 d:/altera/13.0/nios2eds/bin/gnu/h-i686-mingw32/bin/../lib/gcc/nios2-elf/4.1.2/../../../../nios2-elf/lib\libc.a(lib_a-impure.o)
 .debug_line    0x0000667b      0x2f8 d:/altera/13.0/nios2eds/bin/gnu/h-i686-mingw32/bin/../lib/gcc/nios2-elf/4.1.2/../../../../nios2-elf/lib\libc.a(lib_a-memset.o)
 .debug_line    0x00006973      0x29e d:/altera/13.0/nios2eds/bin/gnu/h-i686-mingw32/bin/../lib/gcc/nios2-elf/4.1.2/../../../../nios2-elf/lib\libc.a(lib_a-perror.o)
 .debug_line    0x00006c11      0x295 d:/altera/13.0/nios2eds/bin/gnu/h-i686-mingw32/bin/../lib/gcc/nios2-elf/4.1.2/../../../../nios2-elf/lib\libc.a(lib_a-printf.o)
 .debug_line    0x00006ea6      0x2be d:/altera/13.0/nios2eds/bin/gnu/h-i686-mingw32/bin/../lib/gcc/nios2-elf/4.1.2/../../../../nios2-elf/lib\libc.a(lib_a-putc.o)
 .debug_line    0x00007164      0x25e d:/altera/13.0/nios2eds/bin/gnu/h-i686-mingw32/bin/../lib/gcc/nios2-elf/4.1.2/../../../../nios2-elf/lib\libc.a(lib_a-putchar.o)
 .debug_line    0x000073c2      0x2f1 d:/altera/13.0/nios2eds/bin/gnu/h-i686-mingw32/bin/../lib/gcc/nios2-elf/4.1.2/../../../../nios2-elf/lib\libc.a(lib_a-puts.o)
 .debug_line    0x000076b3      0x287 d:/altera/13.0/nios2eds/bin/gnu/h-i686-mingw32/bin/../lib/gcc/nios2-elf/4.1.2/../../../../nios2-elf/lib\libc.a(lib_a-rget.o)
 .debug_line    0x0000793a      0x4db d:/altera/13.0/nios2eds/bin/gnu/h-i686-mingw32/bin/../lib/gcc/nios2-elf/4.1.2/../../../../nios2-elf/lib\libc.a(lib_a-strerror.o)
 .debug_line    0x00007e15      0x264 d:/altera/13.0/nios2eds/bin/gnu/h-i686-mingw32/bin/../lib/gcc/nios2-elf/4.1.2/../../../../nios2-elf/lib\libc.a(lib_a-strlen.o)
 .debug_line    0x00008079       0x91 d:/altera/13.0/nios2eds/bin/gnu/h-i686-mingw32/bin/../lib/gcc/nios2-elf/4.1.2/../../../../nios2-elf/lib\libc.a(lib_a-u_strerr.o)
 .debug_line    0x0000810a     0x1106 d:/altera/13.0/nios2eds/bin/gnu/h-i686-mingw32/bin/../lib/gcc/nios2-elf/4.1.2/../../../../nios2-elf/lib\libc.a(lib_a-vfprintf.o)
 .debug_line    0x00009210      0x34a d:/altera/13.0/nios2eds/bin/gnu/h-i686-mingw32/bin/../lib/gcc/nios2-elf/4.1.2/../../../../nios2-elf/lib\libc.a(lib_a-wbuf.o)
 .debug_line    0x0000955a      0x2ea d:/altera/13.0/nios2eds/bin/gnu/h-i686-mingw32/bin/../lib/gcc/nios2-elf/4.1.2/../../../../nios2-elf/lib\libc.a(lib_a-wsetup.o)
 .debug_line    0x00009844     0x12c0 d:/altera/13.0/nios2eds/bin/gnu/h-i686-mingw32/bin/../lib/gcc/nios2-elf/4.1.2/../../../../nios2-elf/lib\libc.a(lib_a-dtoa.o)
 .debug_line    0x0000ab04      0x407 d:/altera/13.0/nios2eds/bin/gnu/h-i686-mingw32/bin/../lib/gcc/nios2-elf/4.1.2/../../../../nios2-elf/lib\libc.a(lib_a-fflush.o)
 .debug_line    0x0000af0b      0x5fb d:/altera/13.0/nios2eds/bin/gnu/h-i686-mingw32/bin/../lib/gcc/nios2-elf/4.1.2/../../../../nios2-elf/lib\libc.a(lib_a-findfp.o)
 .debug_line    0x0000b506      0x27f d:/altera/13.0/nios2eds/bin/gnu/h-i686-mingw32/bin/../lib/gcc/nios2-elf/4.1.2/../../../../nios2-elf/lib\libc.a(lib_a-fputc.o)
 .debug_line    0x0000b785      0x2c2 d:/altera/13.0/nios2eds/bin/gnu/h-i686-mingw32/bin/../lib/gcc/nios2-elf/4.1.2/../../../../nios2-elf/lib\libc.a(lib_a-fputs.o)
 .debug_line    0x0000ba47      0x5e5 d:/altera/13.0/nios2eds/bin/gnu/h-i686-mingw32/bin/../lib/gcc/nios2-elf/4.1.2/../../../../nios2-elf/lib\libc.a(lib_a-freer.o)
 .debug_line    0x0000c02c      0x63b d:/altera/13.0/nios2eds/bin/gnu/h-i686-mingw32/bin/../lib/gcc/nios2-elf/4.1.2/../../../../nios2-elf/lib\libc.a(lib_a-fvwrite.o)
 .debug_line    0x0000c667      0x344 d:/altera/13.0/nios2eds/bin/gnu/h-i686-mingw32/bin/../lib/gcc/nios2-elf/4.1.2/../../../../nios2-elf/lib\libc.a(lib_a-fwalk.o)
 .debug_line    0x0000c9ab      0x2c2 d:/altera/13.0/nios2eds/bin/gnu/h-i686-mingw32/bin/../lib/gcc/nios2-elf/4.1.2/../../../../nios2-elf/lib\libc.a(lib_a-locale.o)
 .debug_line    0x0000cc6d      0x3bd d:/altera/13.0/nios2eds/bin/gnu/h-i686-mingw32/bin/../lib/gcc/nios2-elf/4.1.2/../../../../nios2-elf/lib\libc.a(lib_a-makebuf.o)
 .debug_line    0x0000d02a      0x804 d:/altera/13.0/nios2eds/bin/gnu/h-i686-mingw32/bin/../lib/gcc/nios2-elf/4.1.2/../../../../nios2-elf/lib\libc.a(lib_a-mallocr.o)
 .debug_line    0x0000d82e      0x2fa d:/altera/13.0/nios2eds/bin/gnu/h-i686-mingw32/bin/../lib/gcc/nios2-elf/4.1.2/../../../../nios2-elf/lib\libc.a(lib_a-memchr.o)
 .debug_line    0x0000db28      0x1a9 d:/altera/13.0/nios2eds/bin/gnu/h-i686-mingw32/bin/../lib/gcc/nios2-elf/4.1.2/../../../../nios2-elf/lib\libc.a(lib_a-memcpy.o)
 .debug_line    0x0000dcd1      0x301 d:/altera/13.0/nios2eds/bin/gnu/h-i686-mingw32/bin/../lib/gcc/nios2-elf/4.1.2/../../../../nios2-elf/lib\libc.a(lib_a-memmove.o)
 .debug_line    0x0000dfd2     0x123d d:/altera/13.0/nios2eds/bin/gnu/h-i686-mingw32/bin/../lib/gcc/nios2-elf/4.1.2/../../../../nios2-elf/lib\libc.a(lib_a-mprec.o)
 .debug_line    0x0000f20f      0x584 d:/altera/13.0/nios2eds/bin/gnu/h-i686-mingw32/bin/../lib/gcc/nios2-elf/4.1.2/../../../../nios2-elf/lib\libc.a(lib_a-reallocr.o)
 .debug_line    0x0000f793      0x3be d:/altera/13.0/nios2eds/bin/gnu/h-i686-mingw32/bin/../lib/gcc/nios2-elf/4.1.2/../../../../nios2-elf/lib\libc.a(lib_a-refill.o)
 .debug_line    0x0000fb51      0x21c d:/altera/13.0/nios2eds/bin/gnu/h-i686-mingw32/bin/../lib/gcc/nios2-elf/4.1.2/../../../../nios2-elf/lib\libc.a(lib_a-s_isinfd.o)
 .debug_line    0x0000fd6d      0x214 d:/altera/13.0/nios2eds/bin/gnu/h-i686-mingw32/bin/../lib/gcc/nios2-elf/4.1.2/../../../../nios2-elf/lib\libc.a(lib_a-s_isnand.o)
 .debug_line    0x0000ff81      0x290 d:/altera/13.0/nios2eds/bin/gnu/h-i686-mingw32/bin/../lib/gcc/nios2-elf/4.1.2/../../../../nios2-elf/lib\libc.a(lib_a-sbrkr.o)
 .debug_line    0x00010211      0x386 d:/altera/13.0/nios2eds/bin/gnu/h-i686-mingw32/bin/../lib/gcc/nios2-elf/4.1.2/../../../../nios2-elf/lib\libc.a(lib_a-stdio.o)
 .debug_line    0x00010597      0x2cc d:/altera/13.0/nios2eds/bin/gnu/h-i686-mingw32/bin/../lib/gcc/nios2-elf/4.1.2/../../../../nios2-elf/lib\libc.a(lib_a-strcmp.o)
 .debug_line    0x00010863      0x291 d:/altera/13.0/nios2eds/bin/gnu/h-i686-mingw32/bin/../lib/gcc/nios2-elf/4.1.2/../../../../nios2-elf/lib\libc.a(lib_a-writer.o)
 .debug_line    0x00010af4      0x256 d:/altera/13.0/nios2eds/bin/gnu/h-i686-mingw32/bin/../lib/gcc/nios2-elf/4.1.2/../../../../nios2-elf/lib\libc.a(lib_a-callocr.o)
 .debug_line    0x00010d4a      0x291 d:/altera/13.0/nios2eds/bin/gnu/h-i686-mingw32/bin/../lib/gcc/nios2-elf/4.1.2/../../../../nios2-elf/lib\libc.a(lib_a-closer.o)
 .debug_line    0x00010fdb      0x2e2 d:/altera/13.0/nios2eds/bin/gnu/h-i686-mingw32/bin/../lib/gcc/nios2-elf/4.1.2/../../../../nios2-elf/lib\libc.a(lib_a-fclose.o)
 .debug_line    0x000112bd      0x25e d:/altera/13.0/nios2eds/bin/gnu/h-i686-mingw32/bin/../lib/gcc/nios2-elf/4.1.2/../../../../nios2-elf/lib\libc.a(lib_a-fstatr.o)
 .debug_line    0x0001151b      0x1d9 d:/altera/13.0/nios2eds/bin/gnu/h-i686-mingw32/bin/../lib/gcc/nios2-elf/4.1.2/../../../../nios2-elf/lib\libc.a(lib_a-int_errno.o)
 .debug_line    0x000116f4      0x292 d:/altera/13.0/nios2eds/bin/gnu/h-i686-mingw32/bin/../lib/gcc/nios2-elf/4.1.2/../../../../nios2-elf/lib\libc.a(lib_a-isattyr.o)
 .debug_line    0x00011986      0x291 d:/altera/13.0/nios2eds/bin/gnu/h-i686-mingw32/bin/../lib/gcc/nios2-elf/4.1.2/../../../../nios2-elf/lib\libc.a(lib_a-lseekr.o)
 .debug_line    0x00011c17      0x290 d:/altera/13.0/nios2eds/bin/gnu/h-i686-mingw32/bin/../lib/gcc/nios2-elf/4.1.2/../../../../nios2-elf/lib\libc.a(lib_a-readr.o)
 .debug_line    0x00011ea7      0x2f2 d:/altera/13.0/nios2eds/bin/gnu/h-i686-mingw32/bin/../lib/gcc/nios2-elf/4.1.2\libgcc.a(_udivdi3.o)
 .debug_line    0x00012199      0x37d d:/altera/13.0/nios2eds/bin/gnu/h-i686-mingw32/bin/../lib/gcc/nios2-elf/4.1.2\libgcc.a(_umoddi3.o)
 .debug_line    0x00012516      0x301 d:/altera/13.0/nios2eds/bin/gnu/h-i686-mingw32/bin/../lib/gcc/nios2-elf/4.1.2\libgcc.a(_div_df.o)
 .debug_line    0x00012817      0x129 d:/altera/13.0/nios2eds/bin/gnu/h-i686-mingw32/bin/../lib/gcc/nios2-elf/4.1.2\libgcc.a(_eq_df.o)
 .debug_line    0x00012940      0x129 d:/altera/13.0/nios2eds/bin/gnu/h-i686-mingw32/bin/../lib/gcc/nios2-elf/4.1.2\libgcc.a(_ne_df.o)
 .debug_line    0x00012a69      0x129 d:/altera/13.0/nios2eds/bin/gnu/h-i686-mingw32/bin/../lib/gcc/nios2-elf/4.1.2\libgcc.a(_gt_df.o)
 .debug_line    0x00012b92      0x129 d:/altera/13.0/nios2eds/bin/gnu/h-i686-mingw32/bin/../lib/gcc/nios2-elf/4.1.2\libgcc.a(_lt_df.o)
 .debug_line    0x00012cbb      0x175 d:/altera/13.0/nios2eds/bin/gnu/h-i686-mingw32/bin/../lib/gcc/nios2-elf/4.1.2\libgcc.a(_si_to_df.o)
 .debug_line    0x00012e30      0x24f d:/altera/13.0/nios2eds/bin/gnu/h-i686-mingw32/bin/../lib/gcc/nios2-elf/4.1.2\libgcc.a(lib2-divmod.o)
 .debug_line    0x0001307f      0x2c2 ../PepinoBoris_bsp/\libucosii_bsp.a(alt_flash_dev.o)
 .debug_line    0x00013341      0x2fb ../PepinoBoris_bsp/\libucosii_bsp.a(alt_fstat.o)
 .debug_line    0x0001363c      0x367 ../PepinoBoris_bsp/\libucosii_bsp.a(alt_irq_register.o)
 .debug_line    0x000139a3       0x72 ../PepinoBoris_bsp/\libucosii_bsp.a(alt_irq_vars.o)
 .debug_line    0x00013a15      0x2fc ../PepinoBoris_bsp/\libucosii_bsp.a(alt_isatty.o)
 .debug_line    0x00013d11      0x2fb ../PepinoBoris_bsp/\libucosii_bsp.a(alt_lseek.o)
 .debug_line    0x0001400c      0x343 ../PepinoBoris_bsp/\libucosii_bsp.a(alt_main.o)
 .debug_line    0x0001434f      0x25b ../PepinoBoris_bsp/\libucosii_bsp.a(alt_sbrk.o)
 .debug_line    0x000145aa      0x2a7 ../PepinoBoris_bsp/\libucosii_bsp.a(alt_usleep.o)
 .debug_line    0x00014851      0x2b9 ../PepinoBoris_bsp/\libucosii_bsp.a(alt_env_lock.o)
 .debug_line    0x00014b0a      0x375 ../PepinoBoris_bsp/\libucosii_bsp.a(alt_malloc_lock.o)
 .debug_line    0x00014e7f     0x165d ../PepinoBoris_bsp/\libucosii_bsp.a(os_core.o)
 .debug_line    0x000164dc      0x382 ../PepinoBoris_bsp/\libucosii_bsp.a(os_dbg.o)
 .debug_line    0x0001685e     0x11e1 ../PepinoBoris_bsp/\libucosii_bsp.a(os_flag.o)
 .debug_line    0x00017a3f      0x784 ../PepinoBoris_bsp/\libucosii_bsp.a(os_mem.o)
 .debug_line    0x000181c3      0xe65 ../PepinoBoris_bsp/\libucosii_bsp.a(os_q.o)
 .debug_line    0x00019028      0xa1d ../PepinoBoris_bsp/\libucosii_bsp.a(os_sem.o)
 .debug_line    0x00019a45     0x1126 ../PepinoBoris_bsp/\libucosii_bsp.a(os_task.o)
 .debug_line    0x0001ab6b      0x529 ../PepinoBoris_bsp/\libucosii_bsp.a(os_time.o)
 .debug_line    0x0001b094      0x430 ../PepinoBoris_bsp/\libucosii_bsp.a(alt_sys_init.o)
 .debug_line    0x0001b4c4      0x56d ../PepinoBoris_bsp/\libucosii_bsp.a(altera_avalon_cfi_flash.o)
 .debug_line    0x0001ba31      0x973 ../PepinoBoris_bsp/\libucosii_bsp.a(altera_avalon_cfi_flash_table.o)
 .debug_line    0x0001c3a4      0x6e9 ../PepinoBoris_bsp/\libucosii_bsp.a(altera_avalon_epcs_flash_controller.o)
 .debug_line    0x0001ca8d      0x313 ../PepinoBoris_bsp/\libucosii_bsp.a(altera_avalon_jtag_uart_fd.o)
 .debug_line    0x0001cda0      0x592 ../PepinoBoris_bsp/\libucosii_bsp.a(altera_avalon_jtag_uart_init.o)
 .debug_line    0x0001d332      0x350 ../PepinoBoris_bsp/\libucosii_bsp.a(altera_avalon_jtag_uart_ioctl.o)
 .debug_line    0x0001d682      0x48e ../PepinoBoris_bsp/\libucosii_bsp.a(altera_avalon_jtag_uart_read.o)
 .debug_line    0x0001db10      0x49c ../PepinoBoris_bsp/\libucosii_bsp.a(altera_avalon_jtag_uart_write.o)
 .debug_line    0x0001dfac      0x93a ../PepinoBoris_bsp/\libucosii_bsp.a(altera_avalon_lcd_16207.o)
 .debug_line    0x0001e8e6      0x2b3 ../PepinoBoris_bsp/\libucosii_bsp.a(altera_avalon_lcd_16207_fd.o)
 .debug_line    0x0001eb99      0x2ad ../PepinoBoris_bsp/\libucosii_bsp.a(altera_avalon_timer_sc.o)
 .debug_line    0x0001ee46      0x2f1 ../PepinoBoris_bsp/\libucosii_bsp.a(altera_avalon_uart_fd.o)
 .debug_line    0x0001f137      0x561 ../PepinoBoris_bsp/\libucosii_bsp.a(altera_avalon_uart_init.o)
 .debug_line    0x0001f698      0x4ad ../PepinoBoris_bsp/\libucosii_bsp.a(altera_avalon_uart_read.o)
 .debug_line    0x0001fb45      0x48f ../PepinoBoris_bsp/\libucosii_bsp.a(altera_avalon_uart_write.o)
 .debug_line    0x0001ffd4     0x19bd ../PepinoBoris_bsp/\libucosii_bsp.a(altera_up_sd_card_avalon_interface.o)
 .debug_line    0x00021991      0x405 ../PepinoBoris_bsp/\libucosii_bsp.a(epcs_commands.o)
 .debug_line    0x00021d96      0x341 ../PepinoBoris_bsp/\libucosii_bsp.a(alt_iniche_close.o)
 .debug_line    0x000220d7      0x3e4 ../PepinoBoris_bsp/\libucosii_bsp.a(alt_iniche_dev.o)
 .debug_line    0x000224bb      0x340 ../PepinoBoris_bsp/\libucosii_bsp.a(alt_iniche_read.o)
 .debug_line    0x000227fb      0x351 ../PepinoBoris_bsp/\libucosii_bsp.a(alt_iniche_write.o)
 .debug_line    0x00022b4c      0x7a0 ../PepinoBoris_bsp/\libucosii_bsp.a(ipnet.o)
 .debug_line    0x000232ec      0x4e1 ../PepinoBoris_bsp/\libucosii_bsp.a(ipstart.o)
 .debug_line    0x000237cd      0x916 ../PepinoBoris_bsp/\libucosii_bsp.a(igmp_cmn.o)
 .debug_line    0x000240e3      0x6c1 ../PepinoBoris_bsp/\libucosii_bsp.a(bsdsock.o)
 .debug_line    0x000247a4      0x304 ../PepinoBoris_bsp/\libucosii_bsp.a(cksum.o)
 .debug_line    0x00024aa8      0x7a3 ../PepinoBoris_bsp/\libucosii_bsp.a(in_utils.o)
 .debug_line    0x0002524b      0x439 ../PepinoBoris_bsp/\libucosii_bsp.a(netmain.o)
 .debug_line    0x00025684      0x5a2 ../PepinoBoris_bsp/\libucosii_bsp.a(tk_crnos.o)
 .debug_line    0x00025c26     0x1063 ../PepinoBoris_bsp/\libucosii_bsp.a(dhcpclnt.o)
 .debug_line    0x00026c89      0x2f9 ../PepinoBoris_bsp/\libucosii_bsp.a(dhcputil.o)
 .debug_line    0x00026f82      0x643 ../PepinoBoris_bsp/\libucosii_bsp.a(pktalloc.o)
 .debug_line    0x000275c5      0x3d5 ../PepinoBoris_bsp/\libucosii_bsp.a(q.o)
 .debug_line    0x0002799a      0x468 ../PepinoBoris_bsp/\libucosii_bsp.a(udp_open.o)
 .debug_line    0x00027e02       0xaf ../PepinoBoris_bsp/\libucosii_bsp.a(asm_cksum.o)
 .debug_line    0x00027eb1      0x46c ../PepinoBoris_bsp/\libucosii_bsp.a(brdutils.o)
 .debug_line    0x0002831d      0x4f9 ../PepinoBoris_bsp/\libucosii_bsp.a(osportco.o)
 .debug_line    0x00028816      0x638 ../PepinoBoris_bsp/\libucosii_bsp.a(targnios.o)
 .debug_line    0x00028e4e      0xf1d ../PepinoBoris_bsp/\libucosii_bsp.a(nptcp.o)
 .debug_line    0x00029d6b      0x842 ../PepinoBoris_bsp/\libucosii_bsp.a(rawsock.o)
 .debug_line    0x0002a5ad      0xe30 ../PepinoBoris_bsp/\libucosii_bsp.a(sockcall.o)
 .debug_line    0x0002b3dd     0x12b2 ../PepinoBoris_bsp/\libucosii_bsp.a(socket.o)
 .debug_line    0x0002c68f      0xbe6 ../PepinoBoris_bsp/\libucosii_bsp.a(socket2.o)
 .debug_line    0x0002d275      0x727 ../PepinoBoris_bsp/\libucosii_bsp.a(soselect.o)
 .debug_line    0x0002d99c     0x15e8 ../PepinoBoris_bsp/\libucosii_bsp.a(tcp_in.o)
 .debug_line    0x0002ef84      0xa53 ../PepinoBoris_bsp/\libucosii_bsp.a(tcp_out.o)
 .debug_line    0x0002f9d7      0x7bd ../PepinoBoris_bsp/\libucosii_bsp.a(tcp_subr.o)
 .debug_line    0x00030194      0x60d ../PepinoBoris_bsp/\libucosii_bsp.a(tcp_timr.o)
 .debug_line    0x000307a1      0x89c ../PepinoBoris_bsp/\libucosii_bsp.a(tcp_usr.o)
 .debug_line    0x0003103d      0x339 ../PepinoBoris_bsp/\libucosii_bsp.a(tcpport.o)
 .debug_line    0x00031376      0x953 ../PepinoBoris_bsp/\libucosii_bsp.a(udpsock.o)
 .debug_line    0x00031cc9      0x2d6 ../PepinoBoris_bsp/\libucosii_bsp.a(alt_alarm_start.o)
 .debug_line    0x00031f9f      0x253 ../PepinoBoris_bsp/\libucosii_bsp.a(alt_busy_sleep.o)
 .debug_line    0x000321f2      0x2f3 ../PepinoBoris_bsp/\libucosii_bsp.a(alt_close.o)
 .debug_line    0x000324e5      0x1db ../PepinoBoris_bsp/\libucosii_bsp.a(alt_dcache_flush.o)
 .debug_line    0x000326c0      0x2b4 ../PepinoBoris_bsp/\libucosii_bsp.a(alt_dev.o)
 .debug_line    0x00032974      0x254 ../PepinoBoris_bsp/\libucosii_bsp.a(alt_dev_llist_insert.o)
 .debug_line    0x00032bc8       0x83 ../PepinoBoris_bsp/\libucosii_bsp.a(alt_do_ctors.o)
 .debug_line    0x00032c4b       0x83 ../PepinoBoris_bsp/\libucosii_bsp.a(alt_do_dtors.o)
 .debug_line    0x00032cce      0x1a4 ../PepinoBoris_bsp/\libucosii_bsp.a(alt_errno.o)
 .debug_line    0x00032e72      0x2d4 ../PepinoBoris_bsp/\libucosii_bsp.a(alt_find_dev.o)
 .debug_line    0x00033146      0x2c2 ../PepinoBoris_bsp/\libucosii_bsp.a(alt_iic.o)
 .debug_line    0x00033408      0x243 ../PepinoBoris_bsp/\libucosii_bsp.a(alt_iic_isr_register.o)
 .debug_line    0x0003364b      0x31d ../PepinoBoris_bsp/\libucosii_bsp.a(alt_io_redirect.o)
 .debug_line    0x00033968       0x6b ../PepinoBoris_bsp/\libucosii_bsp.a(alt_irq_entry.o)
 .debug_line    0x000339d3      0x2be ../PepinoBoris_bsp/\libucosii_bsp.a(alt_irq_handler.o)
 .debug_line    0x00033c91      0x359 ../PepinoBoris_bsp/\libucosii_bsp.a(alt_open.o)
 .debug_line    0x00033fea      0x322 ../PepinoBoris_bsp/\libucosii_bsp.a(alt_read.o)
 .debug_line    0x0003430c      0x273 ../PepinoBoris_bsp/\libucosii_bsp.a(alt_release_fd.o)
 .debug_line    0x0003457f      0x1b3 ../PepinoBoris_bsp/\libucosii_bsp.a(alt_remap_cached.o)
 .debug_line    0x00034732      0x1bd ../PepinoBoris_bsp/\libucosii_bsp.a(alt_remap_uncached.o)
 .debug_line    0x000348ef      0x310 ../PepinoBoris_bsp/\libucosii_bsp.a(alt_tick.o)
 .debug_line    0x00034bff      0x323 ../PepinoBoris_bsp/\libucosii_bsp.a(alt_write.o)
 .debug_line    0x00034f22      0x1c8 ../PepinoBoris_bsp/\libucosii_bsp.a(altera_nios2_qsys_irq.o)
 .debug_line    0x000350ea       0x86 ../PepinoBoris_bsp/\libucosii_bsp.a(os_cpu_a.o)
 .debug_line    0x00035170      0x32a ../PepinoBoris_bsp/\libucosii_bsp.a(os_cpu_c.o)
 .debug_line    0x0003549a      0x43f ../PepinoBoris_bsp/\libucosii_bsp.a(altera_avalon_cfi_flash_amd.o)
 .debug_line    0x000358d9      0x431 ../PepinoBoris_bsp/\libucosii_bsp.a(altera_avalon_cfi_flash_intel.o)
 .debug_line    0x00035d0a      0x1ef ../PepinoBoris_bsp/\libucosii_bsp.a(altera_avalon_spi.o)
 .debug_line    0x00035ef9      0x519 ../PepinoBoris_bsp/\libucosii_bsp.a(allports.o)
 .debug_line    0x00036412      0x47d ../PepinoBoris_bsp/\libucosii_bsp.a(timeouts.o)
 .debug_line    0x0003688f      0x36a ../PepinoBoris_bsp/\libucosii_bsp.a(tk_misc.o)
 .debug_line    0x00036bf9      0x389 ../PepinoBoris_bsp/\libucosii_bsp.a(alt_iniche_fcntl.o)
 .debug_line    0x00036f82      0xc9c ../PepinoBoris_bsp/\libucosii_bsp.a(et_arp.o)
 .debug_line    0x00037c1e      0x473 ../PepinoBoris_bsp/\libucosii_bsp.a(iface.o)
 .debug_line    0x00038091      0xf8f ../PepinoBoris_bsp/\libucosii_bsp.a(ip.o)
 .debug_line    0x00039020      0xf76 ../PepinoBoris_bsp/\libucosii_bsp.a(ip_reasm.o)
 .debug_line    0x00039f96      0x780 ../PepinoBoris_bsp/\libucosii_bsp.a(ipdemux.o)
 .debug_line    0x0003a716      0x462 ../PepinoBoris_bsp/\libucosii_bsp.a(ipmc.o)
 .debug_line    0x0003ab78      0x332 ../PepinoBoris_bsp/\libucosii_bsp.a(ipport.o)
 .debug_line    0x0003aeaa      0x5b3 ../PepinoBoris_bsp/\libucosii_bsp.a(ipraw.o)
 .debug_line    0x0003b45d      0x5b5 ../PepinoBoris_bsp/\libucosii_bsp.a(iproute.o)
 .debug_line    0x0003ba12      0x7f0 ../PepinoBoris_bsp/\libucosii_bsp.a(udp.o)
 .debug_line    0x0003c202      0x434 ../PepinoBoris_bsp/\libucosii_bsp.a(igmp.o)
 .debug_line    0x0003c636      0x627 ../PepinoBoris_bsp/\libucosii_bsp.a(igmp2.o)
 .debug_line    0x0003cc5d      0x70b ../PepinoBoris_bsp/\libucosii_bsp.a(ipopt.o)
 .debug_line    0x0003d368      0x5f5 ../PepinoBoris_bsp/\libucosii_bsp.a(u_mctest.o)
 .debug_line    0x0003d95d      0x439 ../PepinoBoris_bsp/\libucosii_bsp.a(dhcsetup.o)
 .debug_line    0x0003dd96      0x443 ../PepinoBoris_bsp/\libucosii_bsp.a(memdev.o)
 .debug_line    0x0003e1d9      0x647 ../PepinoBoris_bsp/\libucosii_bsp.a(parseip.o)
 .debug_line    0x0003e820      0x3b3 ../PepinoBoris_bsp/\libucosii_bsp.a(tcpcksum.o)
 .debug_line    0x0003ebd3      0x767 ../PepinoBoris_bsp/\libucosii_bsp.a(in_pcb.o)
 .debug_line    0x0003f33a      0xff1 ../PepinoBoris_bsp/\libucosii_bsp.a(vfsfiles.o)
 .debug_line    0x0004032b      0x2be ../PepinoBoris_bsp/\libucosii_bsp.a(vfsport.o)
 .debug_line    0x000405e9       0xab ../PepinoBoris_bsp/\libucosii_bsp.a(alt_exception_entry.o)
 .debug_line    0x00040694      0x352 ../PepinoBoris_bsp/\libucosii_bsp.a(alt_fcntl.o)
 .debug_line    0x000409e6      0x2e5 ../PepinoBoris_bsp/\libucosii_bsp.a(alt_find_file.o)
 .debug_line    0x00040ccb      0x315 ../PepinoBoris_bsp/\libucosii_bsp.a(alt_get_fd.o)
 .debug_line    0x00040fe0      0x952 ../PepinoBoris_bsp/\libucosii_bsp.a(icmp.o)
 .debug_line    0x00041932      0x1fa d:/altera/13.0/nios2eds/bin/gnu/h-i686-mingw32/bin/../lib/gcc/nios2-elf/4.1.2/../../../../nios2-elf/lib\libc.a(lib_a-atexit.o)
 .debug_line    0x00041b2c      0x204 d:/altera/13.0/nios2eds/bin/gnu/h-i686-mingw32/bin/../lib/gcc/nios2-elf/4.1.2/../../../../nios2-elf/lib\libc.a(lib_a-atoi.o)
 .debug_line    0x00041d30      0x206 d:/altera/13.0/nios2eds/bin/gnu/h-i686-mingw32/bin/../lib/gcc/nios2-elf/4.1.2/../../../../nios2-elf/lib\libc.a(lib_a-calloc.o)
 .debug_line    0x00041f36      0x232 d:/altera/13.0/nios2eds/bin/gnu/h-i686-mingw32/bin/../lib/gcc/nios2-elf/4.1.2/../../../../nios2-elf/lib\libc.a(lib_a-exit.o)
 .debug_line    0x00042168      0x245 d:/altera/13.0/nios2eds/bin/gnu/h-i686-mingw32/bin/../lib/gcc/nios2-elf/4.1.2/../../../../nios2-elf/lib\libc.a(lib_a-malloc.o)
 .debug_line    0x000423ad      0x296 d:/altera/13.0/nios2eds/bin/gnu/h-i686-mingw32/bin/../lib/gcc/nios2-elf/4.1.2/../../../../nios2-elf/lib\libc.a(lib_a-memcmp.o)
 .debug_line    0x00042643      0x31c d:/altera/13.0/nios2eds/bin/gnu/h-i686-mingw32/bin/../lib/gcc/nios2-elf/4.1.2/../../../../nios2-elf/lib\libc.a(lib_a-sprintf.o)
 .debug_line    0x0004295f      0x2be d:/altera/13.0/nios2eds/bin/gnu/h-i686-mingw32/bin/../lib/gcc/nios2-elf/4.1.2/../../../../nios2-elf/lib\libc.a(lib_a-strchr.o)
 .debug_line    0x00042c1d      0x27e d:/altera/13.0/nios2eds/bin/gnu/h-i686-mingw32/bin/../lib/gcc/nios2-elf/4.1.2/../../../../nios2-elf/lib\libc.a(lib_a-strcpy.o)
 .debug_line    0x00042e9b      0x2f5 d:/altera/13.0/nios2eds/bin/gnu/h-i686-mingw32/bin/../lib/gcc/nios2-elf/4.1.2/../../../../nios2-elf/lib\libc.a(lib_a-strncmp.o)
 .debug_line    0x00043190      0x2c7 d:/altera/13.0/nios2eds/bin/gnu/h-i686-mingw32/bin/../lib/gcc/nios2-elf/4.1.2/../../../../nios2-elf/lib\libc.a(lib_a-strncpy.o)
 .debug_line    0x00043457      0x3fd d:/altera/13.0/nios2eds/bin/gnu/h-i686-mingw32/bin/../lib/gcc/nios2-elf/4.1.2/../../../../nios2-elf/lib\libc.a(lib_a-strtol.o)
 .debug_line    0x00043854      0x269 d:/altera/13.0/nios2eds/bin/gnu/h-i686-mingw32/bin/../lib/gcc/nios2-elf/4.1.2/../../../../nios2-elf/lib\libc.a(lib_a-vprintf.o)
 .debug_line    0x00043abd      0x2d3 d:/altera/13.0/nios2eds/bin/gnu/h-i686-mingw32/bin/../lib/gcc/nios2-elf/4.1.2/../../../../nios2-elf/lib\libc.a(lib_a-vsprintf.o)
 .debug_line    0x00043d90      0x30d d:/altera/13.0/nios2eds/bin/gnu/h-i686-mingw32/bin/../lib/gcc/nios2-elf/4.1.2/../../../../nios2-elf/lib\libc.a(lib_a-__atexit.o)
 .debug_line    0x0004409d      0x361 d:/altera/13.0/nios2eds/bin/gnu/h-i686-mingw32/bin/../lib/gcc/nios2-elf/4.1.2/../../../../nios2-elf/lib\libc.a(lib_a-__call_atexit.o)
 .debug_line    0x000443fe      0x270 ../PepinoBoris_bsp/\libucosii_bsp.a(alt_exit.o)

.debug_frame    0x00000000     0x6ca8
 *(.debug_frame)
 .debug_frame   0x00000000       0x80 obj/default/VGA.o
 .debug_frame   0x00000080       0x64 obj/default/alt_error_handler.o
 .debug_frame   0x000000e4      0x19c obj/default/dm9000a.o
 .debug_frame   0x00000280       0x48 obj/default/iniche_init.o
 .debug_frame   0x000002c8       0x64 obj/default/led.o
 .debug_frame   0x0000032c       0x4c obj/default/my_threads.o
 .debug_frame   0x00000378       0xd8 obj/default/network_utilities.o
 .debug_frame   0x00000450       0xf0 obj/default/sdcard/my_sdcard.o
 .debug_frame   0x00000540       0xa0 obj/default/simple_socket_server.o
 .debug_frame   0x000005e0       0x30 d:/altera/13.0/nios2eds/bin/gnu/h-i686-mingw32/bin/../lib/gcc/nios2-elf/4.1.2\libgcc.a(_fixunsdfsi.o)
 .debug_frame   0x00000610       0x58 d:/altera/13.0/nios2eds/bin/gnu/h-i686-mingw32/bin/../lib/gcc/nios2-elf/4.1.2\libgcc.a(_addsub_sf.o)
 .debug_frame   0x00000668       0x2c d:/altera/13.0/nios2eds/bin/gnu/h-i686-mingw32/bin/../lib/gcc/nios2-elf/4.1.2\libgcc.a(_mul_sf.o)
 .debug_frame   0x00000694       0x2c d:/altera/13.0/nios2eds/bin/gnu/h-i686-mingw32/bin/../lib/gcc/nios2-elf/4.1.2\libgcc.a(_div_sf.o)
 .debug_frame   0x000006c0       0x28 d:/altera/13.0/nios2eds/bin/gnu/h-i686-mingw32/bin/../lib/gcc/nios2-elf/4.1.2\libgcc.a(_sf_to_si.o)
 .debug_frame   0x000006e8       0x2c d:/altera/13.0/nios2eds/bin/gnu/h-i686-mingw32/bin/../lib/gcc/nios2-elf/4.1.2\libgcc.a(_usi_to_sf.o)
 .debug_frame   0x00000714       0x70 d:/altera/13.0/nios2eds/bin/gnu/h-i686-mingw32/bin/../lib/gcc/nios2-elf/4.1.2\libgcc.a(_addsub_df.o)
 .debug_frame   0x00000784       0x3c d:/altera/13.0/nios2eds/bin/gnu/h-i686-mingw32/bin/../lib/gcc/nios2-elf/4.1.2\libgcc.a(_mul_df.o)
 .debug_frame   0x000007c0       0x2c d:/altera/13.0/nios2eds/bin/gnu/h-i686-mingw32/bin/../lib/gcc/nios2-elf/4.1.2\libgcc.a(_ge_df.o)
 .debug_frame   0x000007ec       0x28 d:/altera/13.0/nios2eds/bin/gnu/h-i686-mingw32/bin/../lib/gcc/nios2-elf/4.1.2\libgcc.a(_df_to_si.o)
 .debug_frame   0x00000814       0x38 d:/altera/13.0/nios2eds/bin/gnu/h-i686-mingw32/bin/../lib/gcc/nios2-elf/4.1.2\libgcc.a(_usi_to_df.o)
 .debug_frame   0x0000084c       0x2c d:/altera/13.0/nios2eds/bin/gnu/h-i686-mingw32/bin/../lib/gcc/nios2-elf/4.1.2\libgcc.a(_muldi3.o)
 .debug_frame   0x00000878       0x20 d:/altera/13.0/nios2eds/bin/gnu/h-i686-mingw32/bin/../lib/gcc/nios2-elf/4.1.2\libgcc.a(_clzsi2.o)
 .debug_frame   0x00000898       0x20 d:/altera/13.0/nios2eds/bin/gnu/h-i686-mingw32/bin/../lib/gcc/nios2-elf/4.1.2\libgcc.a(_pack_sf.o)
 .debug_frame   0x000008b8       0x20 d:/altera/13.0/nios2eds/bin/gnu/h-i686-mingw32/bin/../lib/gcc/nios2-elf/4.1.2\libgcc.a(_unpack_sf.o)
 .debug_frame   0x000008d8       0x2c d:/altera/13.0/nios2eds/bin/gnu/h-i686-mingw32/bin/../lib/gcc/nios2-elf/4.1.2\libgcc.a(_pack_df.o)
 .debug_frame   0x00000904       0x20 d:/altera/13.0/nios2eds/bin/gnu/h-i686-mingw32/bin/../lib/gcc/nios2-elf/4.1.2\libgcc.a(_unpack_df.o)
 .debug_frame   0x00000924       0x20 d:/altera/13.0/nios2eds/bin/gnu/h-i686-mingw32/bin/../lib/gcc/nios2-elf/4.1.2\libgcc.a(_fpcmp_parts_df.o)
 .debug_frame   0x00000944       0x40 d:/altera/13.0/nios2eds/bin/gnu/h-i686-mingw32/bin/../lib/gcc/nios2-elf/4.1.2/../../../../nios2-elf/lib\libc.a(lib_a-fprintf.o)
 .debug_frame   0x00000984       0x48 d:/altera/13.0/nios2eds/bin/gnu/h-i686-mingw32/bin/../lib/gcc/nios2-elf/4.1.2/../../../../nios2-elf/lib\libc.a(lib_a-fwrite.o)
 .debug_frame   0x000009cc       0x48 d:/altera/13.0/nios2eds/bin/gnu/h-i686-mingw32/bin/../lib/gcc/nios2-elf/4.1.2/../../../../nios2-elf/lib\libc.a(lib_a-getc.o)
 .debug_frame   0x00000a14       0x20 d:/altera/13.0/nios2eds/bin/gnu/h-i686-mingw32/bin/../lib/gcc/nios2-elf/4.1.2/../../../../nios2-elf/lib\libc.a(lib_a-memset.o)
 .debug_frame   0x00000a34       0x38 d:/altera/13.0/nios2eds/bin/gnu/h-i686-mingw32/bin/../lib/gcc/nios2-elf/4.1.2/../../../../nios2-elf/lib\libc.a(lib_a-perror.o)
 .debug_frame   0x00000a6c       0x40 d:/altera/13.0/nios2eds/bin/gnu/h-i686-mingw32/bin/../lib/gcc/nios2-elf/4.1.2/../../../../nios2-elf/lib\libc.a(lib_a-printf.o)
 .debug_frame   0x00000aac       0x4c d:/altera/13.0/nios2eds/bin/gnu/h-i686-mingw32/bin/../lib/gcc/nios2-elf/4.1.2/../../../../nios2-elf/lib\libc.a(lib_a-putc.o)
 .debug_frame   0x00000af8       0x30 d:/altera/13.0/nios2eds/bin/gnu/h-i686-mingw32/bin/../lib/gcc/nios2-elf/4.1.2/../../../../nios2-elf/lib\libc.a(lib_a-putchar.o)
 .debug_frame   0x00000b28       0x3c d:/altera/13.0/nios2eds/bin/gnu/h-i686-mingw32/bin/../lib/gcc/nios2-elf/4.1.2/../../../../nios2-elf/lib\libc.a(lib_a-puts.o)
 .debug_frame   0x00000b64       0x38 d:/altera/13.0/nios2eds/bin/gnu/h-i686-mingw32/bin/../lib/gcc/nios2-elf/4.1.2/../../../../nios2-elf/lib\libc.a(lib_a-rget.o)
 .debug_frame   0x00000b9c       0x28 d:/altera/13.0/nios2eds/bin/gnu/h-i686-mingw32/bin/../lib/gcc/nios2-elf/4.1.2/../../../../nios2-elf/lib\libc.a(lib_a-strerror.o)
 .debug_frame   0x00000bc4       0x20 d:/altera/13.0/nios2eds/bin/gnu/h-i686-mingw32/bin/../lib/gcc/nios2-elf/4.1.2/../../../../nios2-elf/lib\libc.a(lib_a-strlen.o)
 .debug_frame   0x00000be4       0x20 d:/altera/13.0/nios2eds/bin/gnu/h-i686-mingw32/bin/../lib/gcc/nios2-elf/4.1.2/../../../../nios2-elf/lib\libc.a(lib_a-u_strerr.o)
 .debug_frame   0x00000c04       0x64 d:/altera/13.0/nios2eds/bin/gnu/h-i686-mingw32/bin/../lib/gcc/nios2-elf/4.1.2/../../../../nios2-elf/lib\libc.a(lib_a-vfprintf.o)
 .debug_frame   0x00000c68       0x3c d:/altera/13.0/nios2eds/bin/gnu/h-i686-mingw32/bin/../lib/gcc/nios2-elf/4.1.2/../../../../nios2-elf/lib\libc.a(lib_a-wbuf.o)
 .debug_frame   0x00000ca4       0x2c d:/altera/13.0/nios2eds/bin/gnu/h-i686-mingw32/bin/../lib/gcc/nios2-elf/4.1.2/../../../../nios2-elf/lib\libc.a(lib_a-wsetup.o)
 .debug_frame   0x00000cd0       0x64 d:/altera/13.0/nios2eds/bin/gnu/h-i686-mingw32/bin/../lib/gcc/nios2-elf/4.1.2/../../../../nios2-elf/lib\libc.a(lib_a-dtoa.o)
 .debug_frame   0x00000d34       0x40 d:/altera/13.0/nios2eds/bin/gnu/h-i686-mingw32/bin/../lib/gcc/nios2-elf/4.1.2/../../../../nios2-elf/lib\libc.a(lib_a-fflush.o)
 .debug_frame   0x00000d74      0x118 d:/altera/13.0/nios2eds/bin/gnu/h-i686-mingw32/bin/../lib/gcc/nios2-elf/4.1.2/../../../../nios2-elf/lib\libc.a(lib_a-findfp.o)
 .debug_frame   0x00000e8c       0x4c d:/altera/13.0/nios2eds/bin/gnu/h-i686-mingw32/bin/../lib/gcc/nios2-elf/4.1.2/../../../../nios2-elf/lib\libc.a(lib_a-fputc.o)
 .debug_frame   0x00000ed8       0x3c d:/altera/13.0/nios2eds/bin/gnu/h-i686-mingw32/bin/../lib/gcc/nios2-elf/4.1.2/../../../../nios2-elf/lib\libc.a(lib_a-fputs.o)
 .debug_frame   0x00000f14       0x4c d:/altera/13.0/nios2eds/bin/gnu/h-i686-mingw32/bin/../lib/gcc/nios2-elf/4.1.2/../../../../nios2-elf/lib\libc.a(lib_a-freer.o)
 .debug_frame   0x00000f60       0x38 d:/altera/13.0/nios2eds/bin/gnu/h-i686-mingw32/bin/../lib/gcc/nios2-elf/4.1.2/../../../../nios2-elf/lib\libc.a(lib_a-fvwrite.o)
 .debug_frame   0x00000f98       0x60 d:/altera/13.0/nios2eds/bin/gnu/h-i686-mingw32/bin/../lib/gcc/nios2-elf/4.1.2/../../../../nios2-elf/lib\libc.a(lib_a-fwalk.o)
 .debug_frame   0x00000ff8       0x70 d:/altera/13.0/nios2eds/bin/gnu/h-i686-mingw32/bin/../lib/gcc/nios2-elf/4.1.2/../../../../nios2-elf/lib\libc.a(lib_a-locale.o)
 .debug_frame   0x00001068       0x2c d:/altera/13.0/nios2eds/bin/gnu/h-i686-mingw32/bin/../lib/gcc/nios2-elf/4.1.2/../../../../nios2-elf/lib\libc.a(lib_a-makebuf.o)
 .debug_frame   0x00001094       0x38 d:/altera/13.0/nios2eds/bin/gnu/h-i686-mingw32/bin/../lib/gcc/nios2-elf/4.1.2/../../../../nios2-elf/lib\libc.a(lib_a-mallocr.o)
 .debug_frame   0x000010cc       0x20 d:/altera/13.0/nios2eds/bin/gnu/h-i686-mingw32/bin/../lib/gcc/nios2-elf/4.1.2/../../../../nios2-elf/lib\libc.a(lib_a-memchr.o)
 .debug_frame   0x000010ec       0x20 d:/altera/13.0/nios2eds/bin/gnu/h-i686-mingw32/bin/../lib/gcc/nios2-elf/4.1.2/../../../../nios2-elf/lib\libc.a(lib_a-memcpy.o)
 .debug_frame   0x0000110c       0x20 d:/altera/13.0/nios2eds/bin/gnu/h-i686-mingw32/bin/../lib/gcc/nios2-elf/4.1.2/../../../../nios2-elf/lib\libc.a(lib_a-memmove.o)
 .debug_frame   0x0000112c      0x218 d:/altera/13.0/nios2eds/bin/gnu/h-i686-mingw32/bin/../lib/gcc/nios2-elf/4.1.2/../../../../nios2-elf/lib\libc.a(lib_a-mprec.o)
 .debug_frame   0x00001344       0x38 d:/altera/13.0/nios2eds/bin/gnu/h-i686-mingw32/bin/../lib/gcc/nios2-elf/4.1.2/../../../../nios2-elf/lib\libc.a(lib_a-reallocr.o)
 .debug_frame   0x0000137c       0x3c d:/altera/13.0/nios2eds/bin/gnu/h-i686-mingw32/bin/../lib/gcc/nios2-elf/4.1.2/../../../../nios2-elf/lib\libc.a(lib_a-refill.o)
 .debug_frame   0x000013b8       0x20 d:/altera/13.0/nios2eds/bin/gnu/h-i686-mingw32/bin/../lib/gcc/nios2-elf/4.1.2/../../../../nios2-elf/lib\libc.a(lib_a-s_isinfd.o)
 .debug_frame   0x000013d8       0x20 d:/altera/13.0/nios2eds/bin/gnu/h-i686-mingw32/bin/../lib/gcc/nios2-elf/4.1.2/../../../../nios2-elf/lib\libc.a(lib_a-s_isnand.o)
 .debug_frame   0x000013f8       0x2c d:/altera/13.0/nios2eds/bin/gnu/h-i686-mingw32/bin/../lib/gcc/nios2-elf/4.1.2/../../../../nios2-elf/lib\libc.a(lib_a-sbrkr.o)
 .debug_frame   0x00001424       0x78 d:/altera/13.0/nios2eds/bin/gnu/h-i686-mingw32/bin/../lib/gcc/nios2-elf/4.1.2/../../../../nios2-elf/lib\libc.a(lib_a-stdio.o)
 .debug_frame   0x0000149c       0x20 d:/altera/13.0/nios2eds/bin/gnu/h-i686-mingw32/bin/../lib/gcc/nios2-elf/4.1.2/../../../../nios2-elf/lib\libc.a(lib_a-strcmp.o)
 .debug_frame   0x000014bc       0x2c d:/altera/13.0/nios2eds/bin/gnu/h-i686-mingw32/bin/../lib/gcc/nios2-elf/4.1.2/../../../../nios2-elf/lib\libc.a(lib_a-writer.o)
 .debug_frame   0x000014e8       0x28 d:/altera/13.0/nios2eds/bin/gnu/h-i686-mingw32/bin/../lib/gcc/nios2-elf/4.1.2/../../../../nios2-elf/lib\libc.a(lib_a-callocr.o)
 .debug_frame   0x00001510       0x2c d:/altera/13.0/nios2eds/bin/gnu/h-i686-mingw32/bin/../lib/gcc/nios2-elf/4.1.2/../../../../nios2-elf/lib\libc.a(lib_a-closer.o)
 .debug_frame   0x0000153c       0x3c d:/altera/13.0/nios2eds/bin/gnu/h-i686-mingw32/bin/../lib/gcc/nios2-elf/4.1.2/../../../../nios2-elf/lib\libc.a(lib_a-fclose.o)
 .debug_frame   0x00001578       0x2c d:/altera/13.0/nios2eds/bin/gnu/h-i686-mingw32/bin/../lib/gcc/nios2-elf/4.1.2/../../../../nios2-elf/lib\libc.a(lib_a-fstatr.o)
 .debug_frame   0x000015a4       0x2c d:/altera/13.0/nios2eds/bin/gnu/h-i686-mingw32/bin/../lib/gcc/nios2-elf/4.1.2/../../../../nios2-elf/lib\libc.a(lib_a-isattyr.o)
 .debug_frame   0x000015d0       0x2c d:/altera/13.0/nios2eds/bin/gnu/h-i686-mingw32/bin/../lib/gcc/nios2-elf/4.1.2/../../../../nios2-elf/lib\libc.a(lib_a-lseekr.o)
 .debug_frame   0x000015fc       0x2c d:/altera/13.0/nios2eds/bin/gnu/h-i686-mingw32/bin/../lib/gcc/nios2-elf/4.1.2/../../../../nios2-elf/lib\libc.a(lib_a-readr.o)
 .debug_frame   0x00001628       0x38 d:/altera/13.0/nios2eds/bin/gnu/h-i686-mingw32/bin/../lib/gcc/nios2-elf/4.1.2\libgcc.a(_udivdi3.o)
 .debug_frame   0x00001660       0x38 d:/altera/13.0/nios2eds/bin/gnu/h-i686-mingw32/bin/../lib/gcc/nios2-elf/4.1.2\libgcc.a(_umoddi3.o)
 .debug_frame   0x00001698       0x30 d:/altera/13.0/nios2eds/bin/gnu/h-i686-mingw32/bin/../lib/gcc/nios2-elf/4.1.2\libgcc.a(_div_df.o)
 .debug_frame   0x000016c8       0x2c d:/altera/13.0/nios2eds/bin/gnu/h-i686-mingw32/bin/../lib/gcc/nios2-elf/4.1.2\libgcc.a(_eq_df.o)
 .debug_frame   0x000016f4       0x2c d:/altera/13.0/nios2eds/bin/gnu/h-i686-mingw32/bin/../lib/gcc/nios2-elf/4.1.2\libgcc.a(_ne_df.o)
 .debug_frame   0x00001720       0x2c d:/altera/13.0/nios2eds/bin/gnu/h-i686-mingw32/bin/../lib/gcc/nios2-elf/4.1.2\libgcc.a(_gt_df.o)
 .debug_frame   0x0000174c       0x2c d:/altera/13.0/nios2eds/bin/gnu/h-i686-mingw32/bin/../lib/gcc/nios2-elf/4.1.2\libgcc.a(_lt_df.o)
 .debug_frame   0x00001778       0x30 d:/altera/13.0/nios2eds/bin/gnu/h-i686-mingw32/bin/../lib/gcc/nios2-elf/4.1.2\libgcc.a(_si_to_df.o)
 .debug_frame   0x000017a8       0x70 d:/altera/13.0/nios2eds/bin/gnu/h-i686-mingw32/bin/../lib/gcc/nios2-elf/4.1.2\libgcc.a(lib2-divmod.o)
 .debug_frame   0x00001818       0x48 ../PepinoBoris_bsp/\libucosii_bsp.a(alt_flash_dev.o)
 .debug_frame   0x00001860       0x48 ../PepinoBoris_bsp/\libucosii_bsp.a(alt_fstat.o)
 .debug_frame   0x000018a8       0x2c ../PepinoBoris_bsp/\libucosii_bsp.a(alt_irq_register.o)
 .debug_frame   0x000018d4       0x48 ../PepinoBoris_bsp/\libucosii_bsp.a(alt_isatty.o)
 .debug_frame   0x0000191c       0x48 ../PepinoBoris_bsp/\libucosii_bsp.a(alt_lseek.o)
 .debug_frame   0x00001964       0x2c ../PepinoBoris_bsp/\libucosii_bsp.a(alt_main.o)
 .debug_frame   0x00001990       0x2c ../PepinoBoris_bsp/\libucosii_bsp.a(alt_sbrk.o)
 .debug_frame   0x000019bc       0x30 ../PepinoBoris_bsp/\libucosii_bsp.a(alt_usleep.o)
 .debug_frame   0x000019ec       0x4c ../PepinoBoris_bsp/\libucosii_bsp.a(alt_env_lock.o)
 .debug_frame   0x00001a38       0x4c ../PepinoBoris_bsp/\libucosii_bsp.a(alt_malloc_lock.o)
 .debug_frame   0x00001a84      0x3e4 ../PepinoBoris_bsp/\libucosii_bsp.a(os_core.o)
 .debug_frame   0x00001e68       0x2c ../PepinoBoris_bsp/\libucosii_bsp.a(os_dbg.o)
 .debug_frame   0x00001e94      0x180 ../PepinoBoris_bsp/\libucosii_bsp.a(os_flag.o)
 .debug_frame   0x00002014       0xd4 ../PepinoBoris_bsp/\libucosii_bsp.a(os_mem.o)
 .debug_frame   0x000020e8      0x144 ../PepinoBoris_bsp/\libucosii_bsp.a(os_q.o)
 .debug_frame   0x0000222c       0xf0 ../PepinoBoris_bsp/\libucosii_bsp.a(os_sem.o)
 .debug_frame   0x0000231c      0x160 ../PepinoBoris_bsp/\libucosii_bsp.a(os_task.o)
 .debug_frame   0x0000247c       0xa0 ../PepinoBoris_bsp/\libucosii_bsp.a(os_time.o)
 .debug_frame   0x0000251c       0x64 ../PepinoBoris_bsp/\libucosii_bsp.a(alt_sys_init.o)
 .debug_frame   0x00002580       0xd4 ../PepinoBoris_bsp/\libucosii_bsp.a(altera_avalon_cfi_flash.o)
 .debug_frame   0x00002654      0x210 ../PepinoBoris_bsp/\libucosii_bsp.a(altera_avalon_cfi_flash_table.o)
 .debug_frame   0x00002864      0x128 ../PepinoBoris_bsp/\libucosii_bsp.a(altera_avalon_epcs_flash_controller.o)
 .debug_frame   0x0000298c       0x80 ../PepinoBoris_bsp/\libucosii_bsp.a(altera_avalon_jtag_uart_fd.o)
 .debug_frame   0x00002a0c       0x80 ../PepinoBoris_bsp/\libucosii_bsp.a(altera_avalon_jtag_uart_init.o)
 .debug_frame   0x00002a8c       0x2c ../PepinoBoris_bsp/\libucosii_bsp.a(altera_avalon_jtag_uart_ioctl.o)
 .debug_frame   0x00002ab8       0x2c ../PepinoBoris_bsp/\libucosii_bsp.a(altera_avalon_jtag_uart_read.o)
 .debug_frame   0x00002ae4       0x2c ../PepinoBoris_bsp/\libucosii_bsp.a(altera_avalon_jtag_uart_write.o)
 .debug_frame   0x00002b10      0x114 ../PepinoBoris_bsp/\libucosii_bsp.a(altera_avalon_lcd_16207.o)
 .debug_frame   0x00002c24       0x2c ../PepinoBoris_bsp/\libucosii_bsp.a(altera_avalon_lcd_16207_fd.o)
 .debug_frame   0x00002c50       0x48 ../PepinoBoris_bsp/\libucosii_bsp.a(altera_avalon_timer_sc.o)
 .debug_frame   0x00002c98       0x64 ../PepinoBoris_bsp/\libucosii_bsp.a(altera_avalon_uart_fd.o)
 .debug_frame   0x00002cfc       0x9c ../PepinoBoris_bsp/\libucosii_bsp.a(altera_avalon_uart_init.o)
 .debug_frame   0x00002d98       0x48 ../PepinoBoris_bsp/\libucosii_bsp.a(altera_avalon_uart_read.o)
 .debug_frame   0x00002de0       0x48 ../PepinoBoris_bsp/\libucosii_bsp.a(altera_avalon_uart_write.o)
 .debug_frame   0x00002e28      0x3b4 ../PepinoBoris_bsp/\libucosii_bsp.a(altera_up_sd_card_avalon_interface.o)
 .debug_frame   0x000031dc      0x160 ../PepinoBoris_bsp/\libucosii_bsp.a(epcs_commands.o)
 .debug_frame   0x0000333c       0x2c ../PepinoBoris_bsp/\libucosii_bsp.a(alt_iniche_close.o)
 .debug_frame   0x00003368       0x2c ../PepinoBoris_bsp/\libucosii_bsp.a(alt_iniche_dev.o)
 .debug_frame   0x00003394       0x2c ../PepinoBoris_bsp/\libucosii_bsp.a(alt_iniche_read.o)
 .debug_frame   0x000033c0       0x2c ../PepinoBoris_bsp/\libucosii_bsp.a(alt_iniche_write.o)
 .debug_frame   0x000033ec       0xb8 ../PepinoBoris_bsp/\libucosii_bsp.a(ipnet.o)
 .debug_frame   0x000034a4       0x80 ../PepinoBoris_bsp/\libucosii_bsp.a(ipstart.o)
 .debug_frame   0x00003524       0xf8 ../PepinoBoris_bsp/\libucosii_bsp.a(igmp_cmn.o)
 .debug_frame   0x0000361c      0x12c ../PepinoBoris_bsp/\libucosii_bsp.a(bsdsock.o)
 .debug_frame   0x00003748       0x48 ../PepinoBoris_bsp/\libucosii_bsp.a(cksum.o)
 .debug_frame   0x00003790      0x164 ../PepinoBoris_bsp/\libucosii_bsp.a(in_utils.o)
 .debug_frame   0x000038f4       0x64 ../PepinoBoris_bsp/\libucosii_bsp.a(netmain.o)
 .debug_frame   0x00003958       0xd4 ../PepinoBoris_bsp/\libucosii_bsp.a(tk_crnos.o)
 .debug_frame   0x00003a2c      0x250 ../PepinoBoris_bsp/\libucosii_bsp.a(dhcpclnt.o)
 .debug_frame   0x00003c7c       0x2c ../PepinoBoris_bsp/\libucosii_bsp.a(dhcputil.o)
 .debug_frame   0x00003ca8       0xb8 ../PepinoBoris_bsp/\libucosii_bsp.a(pktalloc.o)
 .debug_frame   0x00003d60       0x64 ../PepinoBoris_bsp/\libucosii_bsp.a(q.o)
 .debug_frame   0x00003dc4       0x48 ../PepinoBoris_bsp/\libucosii_bsp.a(udp_open.o)
 .debug_frame   0x00003e0c       0xf0 ../PepinoBoris_bsp/\libucosii_bsp.a(brdutils.o)
 .debug_frame   0x00003efc       0x9c ../PepinoBoris_bsp/\libucosii_bsp.a(osportco.o)
 .debug_frame   0x00003f98      0x110 ../PepinoBoris_bsp/\libucosii_bsp.a(targnios.o)
 .debug_frame   0x000040a8      0x208 ../PepinoBoris_bsp/\libucosii_bsp.a(nptcp.o)
 .debug_frame   0x000042b0       0x68 ../PepinoBoris_bsp/\libucosii_bsp.a(rawsock.o)
 .debug_frame   0x00004318      0x224 ../PepinoBoris_bsp/\libucosii_bsp.a(sockcall.o)
 .debug_frame   0x0000453c      0x1d4 ../PepinoBoris_bsp/\libucosii_bsp.a(socket.o)
 .debug_frame   0x00004710      0x294 ../PepinoBoris_bsp/\libucosii_bsp.a(socket2.o)
 .debug_frame   0x000049a4      0x110 ../PepinoBoris_bsp/\libucosii_bsp.a(soselect.o)
 .debug_frame   0x00004ab4       0xd8 ../PepinoBoris_bsp/\libucosii_bsp.a(tcp_in.o)
 .debug_frame   0x00004b8c       0x68 ../PepinoBoris_bsp/\libucosii_bsp.a(tcp_out.o)
 .debug_frame   0x00004bf4      0x10c ../PepinoBoris_bsp/\libucosii_bsp.a(tcp_subr.o)
 .debug_frame   0x00004d00       0x64 ../PepinoBoris_bsp/\libucosii_bsp.a(tcp_timr.o)
 .debug_frame   0x00004d64       0x80 ../PepinoBoris_bsp/\libucosii_bsp.a(tcp_usr.o)
 .debug_frame   0x00004de4       0x2c ../PepinoBoris_bsp/\libucosii_bsp.a(tcpport.o)
 .debug_frame   0x00004e10       0xbc ../PepinoBoris_bsp/\libucosii_bsp.a(udpsock.o)
 .debug_frame   0x00004ecc       0x2c ../PepinoBoris_bsp/\libucosii_bsp.a(alt_alarm_start.o)
 .debug_frame   0x00004ef8       0x2c ../PepinoBoris_bsp/\libucosii_bsp.a(alt_busy_sleep.o)
 .debug_frame   0x00004f24       0x48 ../PepinoBoris_bsp/\libucosii_bsp.a(alt_close.o)
 .debug_frame   0x00004f6c       0x2c ../PepinoBoris_bsp/\libucosii_bsp.a(alt_dcache_flush.o)
 .debug_frame   0x00004f98       0x2c ../PepinoBoris_bsp/\libucosii_bsp.a(alt_dev.o)
 .debug_frame   0x00004fc4       0x48 ../PepinoBoris_bsp/\libucosii_bsp.a(alt_dev_llist_insert.o)
 .debug_frame   0x0000500c       0x2c ../PepinoBoris_bsp/\libucosii_bsp.a(alt_do_ctors.o)
 .debug_frame   0x00005038       0x2c ../PepinoBoris_bsp/\libucosii_bsp.a(alt_do_dtors.o)
 .debug_frame   0x00005064       0x2c ../PepinoBoris_bsp/\libucosii_bsp.a(alt_find_dev.o)
 .debug_frame   0x00005090       0x80 ../PepinoBoris_bsp/\libucosii_bsp.a(alt_iic.o)
 .debug_frame   0x00005110       0x2c ../PepinoBoris_bsp/\libucosii_bsp.a(alt_iic_isr_register.o)
 .debug_frame   0x0000513c       0x48 ../PepinoBoris_bsp/\libucosii_bsp.a(alt_io_redirect.o)
 .debug_frame   0x00005184       0x2c ../PepinoBoris_bsp/\libucosii_bsp.a(alt_irq_handler.o)
 .debug_frame   0x000051b0       0x64 ../PepinoBoris_bsp/\libucosii_bsp.a(alt_open.o)
 .debug_frame   0x00005214       0x48 ../PepinoBoris_bsp/\libucosii_bsp.a(alt_read.o)
 .debug_frame   0x0000525c       0x2c ../PepinoBoris_bsp/\libucosii_bsp.a(alt_release_fd.o)
 .debug_frame   0x00005288       0x2c ../PepinoBoris_bsp/\libucosii_bsp.a(alt_remap_cached.o)
 .debug_frame   0x000052b4       0x2c ../PepinoBoris_bsp/\libucosii_bsp.a(alt_remap_uncached.o)
 .debug_frame   0x000052e0       0x48 ../PepinoBoris_bsp/\libucosii_bsp.a(alt_tick.o)
 .debug_frame   0x00005328       0x48 ../PepinoBoris_bsp/\libucosii_bsp.a(alt_write.o)
 .debug_frame   0x00005370       0x2c ../PepinoBoris_bsp/\libucosii_bsp.a(altera_nios2_qsys_irq.o)
 .debug_frame   0x0000539c      0x128 ../PepinoBoris_bsp/\libucosii_bsp.a(os_cpu_c.o)
 .debug_frame   0x000054c4       0x80 ../PepinoBoris_bsp/\libucosii_bsp.a(altera_avalon_cfi_flash_amd.o)
 .debug_frame   0x00005544       0x80 ../PepinoBoris_bsp/\libucosii_bsp.a(altera_avalon_cfi_flash_intel.o)
 .debug_frame   0x000055c4       0x2c ../PepinoBoris_bsp/\libucosii_bsp.a(altera_avalon_spi.o)
 .debug_frame   0x000055f0       0xe0 ../PepinoBoris_bsp/\libucosii_bsp.a(allports.o)
 .debug_frame   0x000056d0       0x88 ../PepinoBoris_bsp/\libucosii_bsp.a(timeouts.o)
 .debug_frame   0x00005758       0x48 ../PepinoBoris_bsp/\libucosii_bsp.a(tk_misc.o)
 .debug_frame   0x000057a0       0x2c ../PepinoBoris_bsp/\libucosii_bsp.a(alt_iniche_fcntl.o)
 .debug_frame   0x000057cc      0x160 ../PepinoBoris_bsp/\libucosii_bsp.a(et_arp.o)
 .debug_frame   0x0000592c       0x80 ../PepinoBoris_bsp/\libucosii_bsp.a(iface.o)
 .debug_frame   0x000059ac      0x160 ../PepinoBoris_bsp/\libucosii_bsp.a(ip.o)
 .debug_frame   0x00005b0c      0x1d4 ../PepinoBoris_bsp/\libucosii_bsp.a(ip_reasm.o)
 .debug_frame   0x00005ce0       0x68 ../PepinoBoris_bsp/\libucosii_bsp.a(ipdemux.o)
 .debug_frame   0x00005d48       0x64 ../PepinoBoris_bsp/\libucosii_bsp.a(ipmc.o)
 .debug_frame   0x00005dac       0x64 ../PepinoBoris_bsp/\libucosii_bsp.a(ipport.o)
 .debug_frame   0x00005e10       0xb8 ../PepinoBoris_bsp/\libucosii_bsp.a(ipraw.o)
 .debug_frame   0x00005ec8       0x64 ../PepinoBoris_bsp/\libucosii_bsp.a(iproute.o)
 .debug_frame   0x00005f2c       0xd4 ../PepinoBoris_bsp/\libucosii_bsp.a(udp.o)
 .debug_frame   0x00006000       0x2c ../PepinoBoris_bsp/\libucosii_bsp.a(igmp.o)
 .debug_frame   0x0000602c       0x9c ../PepinoBoris_bsp/\libucosii_bsp.a(igmp2.o)
 .debug_frame   0x000060c8       0x84 ../PepinoBoris_bsp/\libucosii_bsp.a(ipopt.o)
 .debug_frame   0x0000614c       0x4c ../PepinoBoris_bsp/\libucosii_bsp.a(u_mctest.o)
 .debug_frame   0x00006198       0x48 ../PepinoBoris_bsp/\libucosii_bsp.a(dhcsetup.o)
 .debug_frame   0x000061e0      0x10c ../PepinoBoris_bsp/\libucosii_bsp.a(memdev.o)
 .debug_frame   0x000062ec      0x10c ../PepinoBoris_bsp/\libucosii_bsp.a(parseip.o)
 .debug_frame   0x000063f8       0x2c ../PepinoBoris_bsp/\libucosii_bsp.a(tcpcksum.o)
 .debug_frame   0x00006424       0xf0 ../PepinoBoris_bsp/\libucosii_bsp.a(in_pcb.o)
 .debug_frame   0x00006514      0x320 ../PepinoBoris_bsp/\libucosii_bsp.a(vfsfiles.o)
 .debug_frame   0x00006834       0x2c ../PepinoBoris_bsp/\libucosii_bsp.a(vfsport.o)
 .debug_frame   0x00006860       0x48 ../PepinoBoris_bsp/\libucosii_bsp.a(alt_fcntl.o)
 .debug_frame   0x000068a8       0x2c ../PepinoBoris_bsp/\libucosii_bsp.a(alt_find_file.o)
 .debug_frame   0x000068d4       0x2c ../PepinoBoris_bsp/\libucosii_bsp.a(alt_get_fd.o)
 .debug_frame   0x00006900       0x84 ../PepinoBoris_bsp/\libucosii_bsp.a(icmp.o)
 .debug_frame   0x00006984       0x20 d:/altera/13.0/nios2eds/bin/gnu/h-i686-mingw32/bin/../lib/gcc/nios2-elf/4.1.2/../../../../nios2-elf/lib\libc.a(lib_a-atexit.o)
 .debug_frame   0x000069a4       0x30 d:/altera/13.0/nios2eds/bin/gnu/h-i686-mingw32/bin/../lib/gcc/nios2-elf/4.1.2/../../../../nios2-elf/lib\libc.a(lib_a-atoi.o)
 .debug_frame   0x000069d4       0x20 d:/altera/13.0/nios2eds/bin/gnu/h-i686-mingw32/bin/../lib/gcc/nios2-elf/4.1.2/../../../../nios2-elf/lib\libc.a(lib_a-calloc.o)
 .debug_frame   0x000069f4       0x28 d:/altera/13.0/nios2eds/bin/gnu/h-i686-mingw32/bin/../lib/gcc/nios2-elf/4.1.2/../../../../nios2-elf/lib\libc.a(lib_a-exit.o)
 .debug_frame   0x00006a1c       0x30 d:/altera/13.0/nios2eds/bin/gnu/h-i686-mingw32/bin/../lib/gcc/nios2-elf/4.1.2/../../../../nios2-elf/lib\libc.a(lib_a-malloc.o)
 .debug_frame   0x00006a4c       0x20 d:/altera/13.0/nios2eds/bin/gnu/h-i686-mingw32/bin/../lib/gcc/nios2-elf/4.1.2/../../../../nios2-elf/lib\libc.a(lib_a-memcmp.o)
 .debug_frame   0x00006a6c       0x40 d:/altera/13.0/nios2eds/bin/gnu/h-i686-mingw32/bin/../lib/gcc/nios2-elf/4.1.2/../../../../nios2-elf/lib\libc.a(lib_a-sprintf.o)
 .debug_frame   0x00006aac       0x20 d:/altera/13.0/nios2eds/bin/gnu/h-i686-mingw32/bin/../lib/gcc/nios2-elf/4.1.2/../../../../nios2-elf/lib\libc.a(lib_a-strchr.o)
 .debug_frame   0x00006acc       0x20 d:/altera/13.0/nios2eds/bin/gnu/h-i686-mingw32/bin/../lib/gcc/nios2-elf/4.1.2/../../../../nios2-elf/lib\libc.a(lib_a-strcpy.o)
 .debug_frame   0x00006aec       0x20 d:/altera/13.0/nios2eds/bin/gnu/h-i686-mingw32/bin/../lib/gcc/nios2-elf/4.1.2/../../../../nios2-elf/lib\libc.a(lib_a-strncmp.o)
 .debug_frame   0x00006b0c       0x20 d:/altera/13.0/nios2eds/bin/gnu/h-i686-mingw32/bin/../lib/gcc/nios2-elf/4.1.2/../../../../nios2-elf/lib\libc.a(lib_a-strncpy.o)
 .debug_frame   0x00006b2c       0x4c d:/altera/13.0/nios2eds/bin/gnu/h-i686-mingw32/bin/../lib/gcc/nios2-elf/4.1.2/../../../../nios2-elf/lib\libc.a(lib_a-strtol.o)
 .debug_frame   0x00006b78       0x30 d:/altera/13.0/nios2eds/bin/gnu/h-i686-mingw32/bin/../lib/gcc/nios2-elf/4.1.2/../../../../nios2-elf/lib\libc.a(lib_a-vprintf.o)
 .debug_frame   0x00006ba8       0x38 d:/altera/13.0/nios2eds/bin/gnu/h-i686-mingw32/bin/../lib/gcc/nios2-elf/4.1.2/../../../../nios2-elf/lib\libc.a(lib_a-vsprintf.o)
 .debug_frame   0x00006be0       0x34 d:/altera/13.0/nios2eds/bin/gnu/h-i686-mingw32/bin/../lib/gcc/nios2-elf/4.1.2/../../../../nios2-elf/lib\libc.a(lib_a-__atexit.o)
 .debug_frame   0x00006c14       0x4c d:/altera/13.0/nios2eds/bin/gnu/h-i686-mingw32/bin/../lib/gcc/nios2-elf/4.1.2/../../../../nios2-elf/lib\libc.a(lib_a-__call_atexit.o)
 .debug_frame   0x00006c60       0x48 ../PepinoBoris_bsp/\libucosii_bsp.a(alt_exit.o)

.debug_str      0x00000000     0x387b
 *(.debug_str)
 .debug_str     0x00000000       0x4e obj/default/alt_error_handler.o
 .debug_str     0x0000004e       0x33 obj/default/dm9000a.o
 .debug_str     0x00000081       0x30 obj/default/iniche_init.o
 .debug_str     0x000000b1       0x2b obj/default/led.o
 .debug_str     0x000000dc       0x2a obj/default/my_threads.o
 .debug_str     0x00000106       0x64 obj/default/network_utilities.o
 .debug_str     0x0000016a       0x32 obj/default/sdcard/my_sdcard.o
 .debug_str     0x0000019c       0x1d obj/default/simple_socket_server.o
 .debug_str     0x000001b9      0x122 d:/altera/13.0/nios2eds/bin/gnu/h-i686-mingw32/bin/../lib/gcc/nios2-elf/4.1.2\libgcc.a(_fixunsdfsi.o)
                                0x168 (size before relaxing)
 .debug_str     0x000002db      0x139 d:/altera/13.0/nios2eds/bin/gnu/h-i686-mingw32/bin/../lib/gcc/nios2-elf/4.1.2\libgcc.a(_addsub_sf.o)
                                0x266 (size before relaxing)
 .debug_str     0x00000414       0x2a d:/altera/13.0/nios2eds/bin/gnu/h-i686-mingw32/bin/../lib/gcc/nios2-elf/4.1.2\libgcc.a(_mul_sf.o)
                                0x21d (size before relaxing)
 .debug_str     0x0000043e       0x35 d:/altera/13.0/nios2eds/bin/gnu/h-i686-mingw32/bin/../lib/gcc/nios2-elf/4.1.2\libgcc.a(_div_sf.o)
                                0x228 (size before relaxing)
 .debug_str     0x00000473        0xa d:/altera/13.0/nios2eds/bin/gnu/h-i686-mingw32/bin/../lib/gcc/nios2-elf/4.1.2\libgcc.a(_sf_to_si.o)
                                0x1fe (size before relaxing)
 .debug_str     0x00000000      0x1a0 d:/altera/13.0/nios2eds/bin/gnu/h-i686-mingw32/bin/../lib/gcc/nios2-elf/4.1.2\libgcc.a(_thenan_sf.o)
 .debug_str     0x0000047d       0x1b d:/altera/13.0/nios2eds/bin/gnu/h-i686-mingw32/bin/../lib/gcc/nios2-elf/4.1.2\libgcc.a(_usi_to_sf.o)
                                0x1d7 (size before relaxing)
 .debug_str     0x00000498       0x2d d:/altera/13.0/nios2eds/bin/gnu/h-i686-mingw32/bin/../lib/gcc/nios2-elf/4.1.2\libgcc.a(_addsub_df.o)
                                0x26c (size before relaxing)
 .debug_str     0x000004c5       0x33 d:/altera/13.0/nios2eds/bin/gnu/h-i686-mingw32/bin/../lib/gcc/nios2-elf/4.1.2\libgcc.a(_mul_df.o)
                                0x23e (size before relaxing)
 .debug_str     0x000004f8        0x8 d:/altera/13.0/nios2eds/bin/gnu/h-i686-mingw32/bin/../lib/gcc/nios2-elf/4.1.2\libgcc.a(_ge_df.o)
                                0x1fb (size before relaxing)
 .debug_str     0x00000500        0xa d:/altera/13.0/nios2eds/bin/gnu/h-i686-mingw32/bin/../lib/gcc/nios2-elf/4.1.2\libgcc.a(_df_to_si.o)
                                0x204 (size before relaxing)
 .debug_str     0x00000000      0x1a0 d:/altera/13.0/nios2eds/bin/gnu/h-i686-mingw32/bin/../lib/gcc/nios2-elf/4.1.2\libgcc.a(_thenan_df.o)
 .debug_str     0x0000050a        0xe d:/altera/13.0/nios2eds/bin/gnu/h-i686-mingw32/bin/../lib/gcc/nios2-elf/4.1.2\libgcc.a(_usi_to_df.o)
                                0x1d7 (size before relaxing)
 .debug_str     0x00000518       0x42 d:/altera/13.0/nios2eds/bin/gnu/h-i686-mingw32/bin/../lib/gcc/nios2-elf/4.1.2\libgcc.a(_muldi3.o)
                                0x1a9 (size before relaxing)
 .debug_str     0x0000055a       0x20 d:/altera/13.0/nios2eds/bin/gnu/h-i686-mingw32/bin/../lib/gcc/nios2-elf/4.1.2\libgcc.a(_clzsi2.o)
                                0x17b (size before relaxing)
 .debug_str     0x0000057a       0x10 d:/altera/13.0/nios2eds/bin/gnu/h-i686-mingw32/bin/../lib/gcc/nios2-elf/4.1.2\libgcc.a(_pack_sf.o)
                                0x1fd (size before relaxing)
 .debug_str     0x0000058a        0xb d:/altera/13.0/nios2eds/bin/gnu/h-i686-mingw32/bin/../lib/gcc/nios2-elf/4.1.2\libgcc.a(_unpack_sf.o)
                                0x1df (size before relaxing)
 .debug_str     0x00000595        0x9 d:/altera/13.0/nios2eds/bin/gnu/h-i686-mingw32/bin/../lib/gcc/nios2-elf/4.1.2\libgcc.a(_pack_df.o)
                                0x203 (size before relaxing)
 .debug_str     0x0000059e        0xb d:/altera/13.0/nios2eds/bin/gnu/h-i686-mingw32/bin/../lib/gcc/nios2-elf/4.1.2\libgcc.a(_unpack_df.o)
                                0x1e5 (size before relaxing)
 .debug_str     0x000005a9       0x10 d:/altera/13.0/nios2eds/bin/gnu/h-i686-mingw32/bin/../lib/gcc/nios2-elf/4.1.2\libgcc.a(_fpcmp_parts_df.o)
                                0x1c3 (size before relaxing)
 .debug_str     0x00000000      0x15e d:/altera/13.0/nios2eds/bin/gnu/h-i686-mingw32/bin/../lib/gcc/nios2-elf/4.1.2\libgcc.a(_clz.o)
 .debug_str     0x000005b9       0xdf d:/altera/13.0/nios2eds/bin/gnu/h-i686-mingw32/bin/../lib/gcc/nios2-elf/4.1.2/../../../../nios2-elf/lib\libc.a(lib_a-ctype_.o)
                                0x102 (size before relaxing)
 .debug_str     0x00000698      0x446 d:/altera/13.0/nios2eds/bin/gnu/h-i686-mingw32/bin/../lib/gcc/nios2-elf/4.1.2/../../../../nios2-elf/lib\libc.a(lib_a-fprintf.o)
                                0x51c (size before relaxing)
 .debug_str     0x00000ade       0x87 d:/altera/13.0/nios2eds/bin/gnu/h-i686-mingw32/bin/../lib/gcc/nios2-elf/4.1.2/../../../../nios2-elf/lib\libc.a(lib_a-fwrite.o)
                                0x55c (size before relaxing)
 .debug_str     0x00000b65       0x45 d:/altera/13.0/nios2eds/bin/gnu/h-i686-mingw32/bin/../lib/gcc/nios2-elf/4.1.2/../../../../nios2-elf/lib\libc.a(lib_a-getc.o)
                                0x50f (size before relaxing)
 .debug_str     0x00000baa       0xe1 d:/altera/13.0/nios2eds/bin/gnu/h-i686-mingw32/bin/../lib/gcc/nios2-elf/4.1.2/../../../../nios2-elf/lib\libc.a(lib_a-impure.o)
                                0x517 (size before relaxing)
 .debug_str     0x00000c8b       0xdf d:/altera/13.0/nios2eds/bin/gnu/h-i686-mingw32/bin/../lib/gcc/nios2-elf/4.1.2/../../../../nios2-elf/lib\libc.a(lib_a-memset.o)
                                0x17b (size before relaxing)
 .debug_str     0x00000d6a       0x4b d:/altera/13.0/nios2eds/bin/gnu/h-i686-mingw32/bin/../lib/gcc/nios2-elf/4.1.2/../../../../nios2-elf/lib\libc.a(lib_a-perror.o)
                                0x50f (size before relaxing)
 .debug_str     0x00000db5       0x44 d:/altera/13.0/nios2eds/bin/gnu/h-i686-mingw32/bin/../lib/gcc/nios2-elf/4.1.2/../../../../nios2-elf/lib\libc.a(lib_a-printf.o)
                                0x520 (size before relaxing)
 .debug_str     0x00000df9       0x40 d:/altera/13.0/nios2eds/bin/gnu/h-i686-mingw32/bin/../lib/gcc/nios2-elf/4.1.2/../../../../nios2-elf/lib\libc.a(lib_a-putc.o)
                                0x50f (size before relaxing)
 .debug_str     0x00000e39       0x4e d:/altera/13.0/nios2eds/bin/gnu/h-i686-mingw32/bin/../lib/gcc/nios2-elf/4.1.2/../../../../nios2-elf/lib\libc.a(lib_a-putchar.o)
                                0x50c (size before relaxing)
 .debug_str     0x00000e87       0x40 d:/altera/13.0/nios2eds/bin/gnu/h-i686-mingw32/bin/../lib/gcc/nios2-elf/4.1.2/../../../../nios2-elf/lib\libc.a(lib_a-puts.o)
                                0x546 (size before relaxing)
 .debug_str     0x00000ec7       0x4a d:/altera/13.0/nios2eds/bin/gnu/h-i686-mingw32/bin/../lib/gcc/nios2-elf/4.1.2/../../../../nios2-elf/lib\libc.a(lib_a-rget.o)
                                0x50d (size before relaxing)
 .debug_str     0x00000f11       0x44 d:/altera/13.0/nios2eds/bin/gnu/h-i686-mingw32/bin/../lib/gcc/nios2-elf/4.1.2/../../../../nios2-elf/lib\libc.a(lib_a-strerror.o)
                                0x171 (size before relaxing)
 .debug_str     0x00000f55       0x42 d:/altera/13.0/nios2eds/bin/gnu/h-i686-mingw32/bin/../lib/gcc/nios2-elf/4.1.2/../../../../nios2-elf/lib\libc.a(lib_a-strlen.o)
                                0x17a (size before relaxing)
 .debug_str     0x00000f97       0x4c d:/altera/13.0/nios2eds/bin/gnu/h-i686-mingw32/bin/../lib/gcc/nios2-elf/4.1.2/../../../../nios2-elf/lib\libc.a(lib_a-u_strerr.o)
                                 0xed (size before relaxing)
 .debug_str     0x00000fe3      0x17f d:/altera/13.0/nios2eds/bin/gnu/h-i686-mingw32/bin/../lib/gcc/nios2-elf/4.1.2/../../../../nios2-elf/lib\libc.a(lib_a-vfprintf.o)
                                0x6f5 (size before relaxing)
 .debug_str     0x00001162       0x4a d:/altera/13.0/nios2eds/bin/gnu/h-i686-mingw32/bin/../lib/gcc/nios2-elf/4.1.2/../../../../nios2-elf/lib\libc.a(lib_a-wbuf.o)
                                0x50d (size before relaxing)
 .debug_str     0x000011ac       0x46 d:/altera/13.0/nios2eds/bin/gnu/h-i686-mingw32/bin/../lib/gcc/nios2-elf/4.1.2/../../../../nios2-elf/lib\libc.a(lib_a-wsetup.o)
                                0x509 (size before relaxing)
 .debug_str     0x000011f2      0x18b d:/altera/13.0/nios2eds/bin/gnu/h-i686-mingw32/bin/../lib/gcc/nios2-elf/4.1.2/../../../../nios2-elf/lib\libc.a(lib_a-dtoa.o)
                                0x5fe (size before relaxing)
 .debug_str     0x0000137d       0x52 d:/altera/13.0/nios2eds/bin/gnu/h-i686-mingw32/bin/../lib/gcc/nios2-elf/4.1.2/../../../../nios2-elf/lib\libc.a(lib_a-fflush.o)
                                0x52f (size before relaxing)
 .debug_str     0x000013cf      0x102 d:/altera/13.0/nios2eds/bin/gnu/h-i686-mingw32/bin/../lib/gcc/nios2-elf/4.1.2/../../../../nios2-elf/lib\libc.a(lib_a-findfp.o)
                                0x5f1 (size before relaxing)
 .debug_str     0x000014d1       0x48 d:/altera/13.0/nios2eds/bin/gnu/h-i686-mingw32/bin/../lib/gcc/nios2-elf/4.1.2/../../../../nios2-elf/lib\libc.a(lib_a-fputc.o)
                                0x517 (size before relaxing)
 .debug_str     0x00001519       0x48 d:/altera/13.0/nios2eds/bin/gnu/h-i686-mingw32/bin/../lib/gcc/nios2-elf/4.1.2/../../../../nios2-elf/lib\libc.a(lib_a-fputs.o)
                                0x555 (size before relaxing)
 .debug_str     0x00001561      0x15b d:/altera/13.0/nios2eds/bin/gnu/h-i686-mingw32/bin/../lib/gcc/nios2-elf/4.1.2/../../../../nios2-elf/lib\libc.a(lib_a-freer.o)
                                0x640 (size before relaxing)
 .debug_str     0x000016bc       0x66 d:/altera/13.0/nios2eds/bin/gnu/h-i686-mingw32/bin/../lib/gcc/nios2-elf/4.1.2/../../../../nios2-elf/lib\libc.a(lib_a-fvwrite.o)
                                0x560 (size before relaxing)
 .debug_str     0x00001722       0x5e d:/altera/13.0/nios2eds/bin/gnu/h-i686-mingw32/bin/../lib/gcc/nios2-elf/4.1.2/../../../../nios2-elf/lib\libc.a(lib_a-fwalk.o)
                                0x532 (size before relaxing)
 .debug_str     0x00001780      0x222 d:/altera/13.0/nios2eds/bin/gnu/h-i686-mingw32/bin/../lib/gcc/nios2-elf/4.1.2/../../../../nios2-elf/lib\libc.a(lib_a-locale.o)
                                0x6a6 (size before relaxing)
 .debug_str     0x000019a2      0x123 d:/altera/13.0/nios2eds/bin/gnu/h-i686-mingw32/bin/../lib/gcc/nios2-elf/4.1.2/../../../../nios2-elf/lib\libc.a(lib_a-makebuf.o)
                                0x603 (size before relaxing)
 .debug_str     0x00001ac5       0xe9 d:/altera/13.0/nios2eds/bin/gnu/h-i686-mingw32/bin/../lib/gcc/nios2-elf/4.1.2/../../../../nios2-elf/lib\libc.a(lib_a-mallocr.o)
                                0x6ee (size before relaxing)
 .debug_str     0x00001bae       0x55 d:/altera/13.0/nios2eds/bin/gnu/h-i686-mingw32/bin/../lib/gcc/nios2-elf/4.1.2/../../../../nios2-elf/lib\libc.a(lib_a-memchr.o)
                                0x188 (size before relaxing)
 .debug_str     0x00001c03       0x69 d:/altera/13.0/nios2eds/bin/gnu/h-i686-mingw32/bin/../lib/gcc/nios2-elf/4.1.2/../../../../nios2-elf/lib\libc.a(lib_a-memcpy.o)
                                0x125 (size before relaxing)
 .debug_str     0x00001c6c       0x4d d:/altera/13.0/nios2eds/bin/gnu/h-i686-mingw32/bin/../lib/gcc/nios2-elf/4.1.2/../../../../nios2-elf/lib\libc.a(lib_a-memmove.o)
                                0x19a (size before relaxing)
 .debug_str     0x00001cb9       0xf8 d:/altera/13.0/nios2eds/bin/gnu/h-i686-mingw32/bin/../lib/gcc/nios2-elf/4.1.2/../../../../nios2-elf/lib\libc.a(lib_a-mprec.o)
                                0x60b (size before relaxing)
 .debug_str     0x00001db1       0x59 d:/altera/13.0/nios2eds/bin/gnu/h-i686-mingw32/bin/../lib/gcc/nios2-elf/4.1.2/../../../../nios2-elf/lib\libc.a(lib_a-reallocr.o)
                                0x5c0 (size before relaxing)
 .debug_str     0x00001e0a       0x4d d:/altera/13.0/nios2eds/bin/gnu/h-i686-mingw32/bin/../lib/gcc/nios2-elf/4.1.2/../../../../nios2-elf/lib\libc.a(lib_a-refill.o)
                                0x517 (size before relaxing)
 .debug_str     0x00001e57       0xd9 d:/altera/13.0/nios2eds/bin/gnu/h-i686-mingw32/bin/../lib/gcc/nios2-elf/4.1.2/../../../../nios2-elf/lib\libc.a(lib_a-s_isinfd.o)
                                0x187 (size before relaxing)
 .debug_str     0x00001f30       0x46 d:/altera/13.0/nios2eds/bin/gnu/h-i686-mingw32/bin/../lib/gcc/nios2-elf/4.1.2/../../../../nios2-elf/lib\libc.a(lib_a-s_isnand.o)
                                0x187 (size before relaxing)
 .debug_str     0x00001f76       0x50 d:/altera/13.0/nios2eds/bin/gnu/h-i686-mingw32/bin/../lib/gcc/nios2-elf/4.1.2/../../../../nios2-elf/lib\libc.a(lib_a-sbrkr.o)
                                0x508 (size before relaxing)
 .debug_str     0x00001fc6       0x62 d:/altera/13.0/nios2eds/bin/gnu/h-i686-mingw32/bin/../lib/gcc/nios2-elf/4.1.2/../../../../nios2-elf/lib\libc.a(lib_a-stdio.o)
                                0x52e (size before relaxing)
 .debug_str     0x00002028       0x42 d:/altera/13.0/nios2eds/bin/gnu/h-i686-mingw32/bin/../lib/gcc/nios2-elf/4.1.2/../../../../nios2-elf/lib\libc.a(lib_a-strcmp.o)
                                0x160 (size before relaxing)
 .debug_str     0x0000206a       0x4c d:/altera/13.0/nios2eds/bin/gnu/h-i686-mingw32/bin/../lib/gcc/nios2-elf/4.1.2/../../../../nios2-elf/lib\libc.a(lib_a-writer.o)
                                0x50b (size before relaxing)
 .debug_str     0x000020b6       0x19 d:/altera/13.0/nios2eds/bin/gnu/h-i686-mingw32/bin/../lib/gcc/nios2-elf/4.1.2/../../../../nios2-elf/lib\libc.a(lib_a-callocr.o)
                                0x53f (size before relaxing)
 .debug_str     0x000020cf       0x43 d:/altera/13.0/nios2eds/bin/gnu/h-i686-mingw32/bin/../lib/gcc/nios2-elf/4.1.2/../../../../nios2-elf/lib\libc.a(lib_a-closer.o)
                                0x4fb (size before relaxing)
 .debug_str     0x00002112       0x4b d:/altera/13.0/nios2eds/bin/gnu/h-i686-mingw32/bin/../lib/gcc/nios2-elf/4.1.2/../../../../nios2-elf/lib\libc.a(lib_a-fclose.o)
                                0x513 (size before relaxing)
 .debug_str     0x0000215d       0x49 d:/altera/13.0/nios2eds/bin/gnu/h-i686-mingw32/bin/../lib/gcc/nios2-elf/4.1.2/../../../../nios2-elf/lib\libc.a(lib_a-fstatr.o)
                                0x5ee (size before relaxing)
 .debug_str     0x000021a6       0x3d d:/altera/13.0/nios2eds/bin/gnu/h-i686-mingw32/bin/../lib/gcc/nios2-elf/4.1.2/../../../../nios2-elf/lib\libc.a(lib_a-int_errno.o)
                                0x160 (size before relaxing)
 .debug_str     0x000021e3       0x45 d:/altera/13.0/nios2eds/bin/gnu/h-i686-mingw32/bin/../lib/gcc/nios2-elf/4.1.2/../../../../nios2-elf/lib\libc.a(lib_a-isattyr.o)
                                0x4fd (size before relaxing)
 .debug_str     0x00002228       0x43 d:/altera/13.0/nios2eds/bin/gnu/h-i686-mingw32/bin/../lib/gcc/nios2-elf/4.1.2/../../../../nios2-elf/lib\libc.a(lib_a-lseekr.o)
                                0x509 (size before relaxing)
 .debug_str     0x0000226b       0x41 d:/altera/13.0/nios2eds/bin/gnu/h-i686-mingw32/bin/../lib/gcc/nios2-elf/4.1.2/../../../../nios2-elf/lib\libc.a(lib_a-readr.o)
                                0x509 (size before relaxing)
 .debug_str     0x000022ac       0x35 d:/altera/13.0/nios2eds/bin/gnu/h-i686-mingw32/bin/../lib/gcc/nios2-elf/4.1.2\libgcc.a(_udivdi3.o)
                                0x1f4 (size before relaxing)
 .debug_str     0x000022e1        0xa d:/altera/13.0/nios2eds/bin/gnu/h-i686-mingw32/bin/../lib/gcc/nios2-elf/4.1.2\libgcc.a(_umoddi3.o)
                                0x1f4 (size before relaxing)
 .debug_str     0x000022eb        0x9 d:/altera/13.0/nios2eds/bin/gnu/h-i686-mingw32/bin/../lib/gcc/nios2-elf/4.1.2\libgcc.a(_div_df.o)
                                0x22e (size before relaxing)
 .debug_str     0x000022f4        0x8 d:/altera/13.0/nios2eds/bin/gnu/h-i686-mingw32/bin/../lib/gcc/nios2-elf/4.1.2\libgcc.a(_eq_df.o)
                                0x1fb (size before relaxing)
 .debug_str     0x000022fc        0x8 d:/altera/13.0/nios2eds/bin/gnu/h-i686-mingw32/bin/../lib/gcc/nios2-elf/4.1.2\libgcc.a(_ne_df.o)
                                0x1fb (size before relaxing)
 .debug_str     0x00002304        0x8 d:/altera/13.0/nios2eds/bin/gnu/h-i686-mingw32/bin/../lib/gcc/nios2-elf/4.1.2\libgcc.a(_gt_df.o)
                                0x1fb (size before relaxing)
 .debug_str     0x0000230c        0x8 d:/altera/13.0/nios2eds/bin/gnu/h-i686-mingw32/bin/../lib/gcc/nios2-elf/4.1.2\libgcc.a(_lt_df.o)
                                0x1fb (size before relaxing)
 .debug_str     0x00002314       0x11 d:/altera/13.0/nios2eds/bin/gnu/h-i686-mingw32/bin/../lib/gcc/nios2-elf/4.1.2\libgcc.a(_si_to_df.o)
                                0x1db (size before relaxing)
 .debug_str     0x00002325       0x76 d:/altera/13.0/nios2eds/bin/gnu/h-i686-mingw32/bin/../lib/gcc/nios2-elf/4.1.2\libgcc.a(lib2-divmod.o)
                                0x1b1 (size before relaxing)
 .debug_str     0x0000239b       0x2d ../PepinoBoris_bsp/\libucosii_bsp.a(alt_flash_dev.o)
 .debug_str     0x000023c8       0x12 ../PepinoBoris_bsp/\libucosii_bsp.a(alt_fstat.o)
 .debug_str     0x000023da       0x21 ../PepinoBoris_bsp/\libucosii_bsp.a(alt_irq_register.o)
 .debug_str     0x000023fb       0x12 ../PepinoBoris_bsp/\libucosii_bsp.a(alt_isatty.o)
 .debug_str     0x0000240d       0x12 ../PepinoBoris_bsp/\libucosii_bsp.a(alt_lseek.o)
 .debug_str     0x0000241f       0x12 ../PepinoBoris_bsp/\libucosii_bsp.a(alt_main.o)
 .debug_str     0x00002431       0x1a ../PepinoBoris_bsp/\libucosii_bsp.a(alt_sbrk.o)
 .debug_str     0x0000244b       0x12 ../PepinoBoris_bsp/\libucosii_bsp.a(alt_usleep.o)
 .debug_str     0x0000245d       0x36 ../PepinoBoris_bsp/\libucosii_bsp.a(alt_env_lock.o)
 .debug_str     0x00002493       0x36 ../PepinoBoris_bsp/\libucosii_bsp.a(alt_malloc_lock.o)
 .debug_str     0x000024c9       0x46 ../PepinoBoris_bsp/\libucosii_bsp.a(os_core.o)
 .debug_str     0x0000250f       0x2b ../PepinoBoris_bsp/\libucosii_bsp.a(os_dbg.o)
 .debug_str     0x0000253a       0x4e ../PepinoBoris_bsp/\libucosii_bsp.a(os_flag.o)
 .debug_str     0x00002588       0x2c ../PepinoBoris_bsp/\libucosii_bsp.a(os_mem.o)
 .debug_str     0x000025b4       0x36 ../PepinoBoris_bsp/\libucosii_bsp.a(os_q.o)
 .debug_str     0x000025ea       0x36 ../PepinoBoris_bsp/\libucosii_bsp.a(os_sem.o)
 .debug_str     0x00002620       0x23 ../PepinoBoris_bsp/\libucosii_bsp.a(os_task.o)
 .debug_str     0x00002643       0x1f ../PepinoBoris_bsp/\libucosii_bsp.a(os_time.o)
 .debug_str     0x00002662       0x7a ../PepinoBoris_bsp/\libucosii_bsp.a(alt_sys_init.o)
 .debug_str     0x000026dc       0x82 ../PepinoBoris_bsp/\libucosii_bsp.a(altera_avalon_cfi_flash.o)
 .debug_str     0x0000275e       0x6d ../PepinoBoris_bsp/\libucosii_bsp.a(altera_avalon_cfi_flash_table.o)
 .debug_str     0x000027cb       0x90 ../PepinoBoris_bsp/\libucosii_bsp.a(altera_avalon_epcs_flash_controller.o)
 .debug_str     0x0000285b       0x12 ../PepinoBoris_bsp/\libucosii_bsp.a(altera_avalon_jtag_uart_fd.o)
 .debug_str     0x0000286d       0x1a ../PepinoBoris_bsp/\libucosii_bsp.a(altera_avalon_jtag_uart_init.o)
 .debug_str     0x00002887       0x12 ../PepinoBoris_bsp/\libucosii_bsp.a(altera_avalon_jtag_uart_ioctl.o)
 .debug_str     0x00002899       0x22 ../PepinoBoris_bsp/\libucosii_bsp.a(altera_avalon_jtag_uart_read.o)
 .debug_str     0x000028bb       0x22 ../PepinoBoris_bsp/\libucosii_bsp.a(altera_avalon_jtag_uart_write.o)
 .debug_str     0x000028dd       0x25 ../PepinoBoris_bsp/\libucosii_bsp.a(altera_avalon_lcd_16207.o)
 .debug_str     0x00002902       0x12 ../PepinoBoris_bsp/\libucosii_bsp.a(altera_avalon_lcd_16207_fd.o)
 .debug_str     0x00002914       0x12 ../PepinoBoris_bsp/\libucosii_bsp.a(altera_avalon_timer_sc.o)
 .debug_str     0x00002926       0x12 ../PepinoBoris_bsp/\libucosii_bsp.a(altera_avalon_uart_fd.o)
 .debug_str     0x00002938       0x1f ../PepinoBoris_bsp/\libucosii_bsp.a(altera_avalon_uart_init.o)
 .debug_str     0x00002957       0x1a ../PepinoBoris_bsp/\libucosii_bsp.a(altera_avalon_uart_read.o)
 .debug_str     0x00002971       0x1a ../PepinoBoris_bsp/\libucosii_bsp.a(altera_avalon_uart_write.o)
 .debug_str     0x0000298b      0x1c2 ../PepinoBoris_bsp/\libucosii_bsp.a(altera_up_sd_card_avalon_interface.o)
 .debug_str     0x00002b4d       0x2e ../PepinoBoris_bsp/\libucosii_bsp.a(epcs_commands.o)
 .debug_str     0x00002b7b       0x12 ../PepinoBoris_bsp/\libucosii_bsp.a(alt_iniche_close.o)
 .debug_str     0x00002b8d       0x12 ../PepinoBoris_bsp/\libucosii_bsp.a(alt_iniche_dev.o)
 .debug_str     0x00002b9f       0x12 ../PepinoBoris_bsp/\libucosii_bsp.a(alt_iniche_read.o)
 .debug_str     0x00002bb1       0x12 ../PepinoBoris_bsp/\libucosii_bsp.a(alt_iniche_write.o)
 .debug_str     0x00002bc3       0x12 ../PepinoBoris_bsp/\libucosii_bsp.a(ipnet.o)
 .debug_str     0x00002bd5       0x12 ../PepinoBoris_bsp/\libucosii_bsp.a(ipstart.o)
 .debug_str     0x00002be7       0x12 ../PepinoBoris_bsp/\libucosii_bsp.a(igmp_cmn.o)
 .debug_str     0x00002bf9       0x20 ../PepinoBoris_bsp/\libucosii_bsp.a(bsdsock.o)
 .debug_str     0x00002c19       0x12 ../PepinoBoris_bsp/\libucosii_bsp.a(cksum.o)
 .debug_str     0x00002c2b       0x12 ../PepinoBoris_bsp/\libucosii_bsp.a(in_utils.o)
 .debug_str     0x00002c3d       0x12 ../PepinoBoris_bsp/\libucosii_bsp.a(netmain.o)
 .debug_str     0x00002c4f       0x12 ../PepinoBoris_bsp/\libucosii_bsp.a(tk_crnos.o)
 .debug_str     0x00002c61       0x2e ../PepinoBoris_bsp/\libucosii_bsp.a(dhcpclnt.o)
 .debug_str     0x00002c8f       0x12 ../PepinoBoris_bsp/\libucosii_bsp.a(dhcputil.o)
 .debug_str     0x00002ca1       0x12 ../PepinoBoris_bsp/\libucosii_bsp.a(pktalloc.o)
 .debug_str     0x00002cb3       0x12 ../PepinoBoris_bsp/\libucosii_bsp.a(q.o)
 .debug_str     0x00002cc5       0x12 ../PepinoBoris_bsp/\libucosii_bsp.a(udp_open.o)
 .debug_str     0x00002cd7       0x20 ../PepinoBoris_bsp/\libucosii_bsp.a(brdutils.o)
 .debug_str     0x00002cf7       0x22 ../PepinoBoris_bsp/\libucosii_bsp.a(osportco.o)
 .debug_str     0x00002d19       0x12 ../PepinoBoris_bsp/\libucosii_bsp.a(targnios.o)
 .debug_str     0x00002d2b       0x1e ../PepinoBoris_bsp/\libucosii_bsp.a(nptcp.o)
 .debug_str     0x00002d49       0x12 ../PepinoBoris_bsp/\libucosii_bsp.a(rawsock.o)
 .debug_str     0x00002d5b       0x34 ../PepinoBoris_bsp/\libucosii_bsp.a(sockcall.o)
 .debug_str     0x00002d8f       0x18 ../PepinoBoris_bsp/\libucosii_bsp.a(socket.o)
 .debug_str     0x00002da7       0x12 ../PepinoBoris_bsp/\libucosii_bsp.a(socket2.o)
 .debug_str     0x00002db9       0x12 ../PepinoBoris_bsp/\libucosii_bsp.a(soselect.o)
 .debug_str     0x00002dcb       0x12 ../PepinoBoris_bsp/\libucosii_bsp.a(tcp_in.o)
 .debug_str     0x00002ddd       0x12 ../PepinoBoris_bsp/\libucosii_bsp.a(tcp_out.o)
 .debug_str     0x00002def       0x12 ../PepinoBoris_bsp/\libucosii_bsp.a(tcp_subr.o)
 .debug_str     0x00002e01       0x12 ../PepinoBoris_bsp/\libucosii_bsp.a(tcp_timr.o)
 .debug_str     0x00002e13       0x12 ../PepinoBoris_bsp/\libucosii_bsp.a(tcp_usr.o)
 .debug_str     0x00002e25       0x12 ../PepinoBoris_bsp/\libucosii_bsp.a(tcpport.o)
 .debug_str     0x00002e37       0x1a ../PepinoBoris_bsp/\libucosii_bsp.a(udpsock.o)
 .debug_str     0x00002e51       0x23 ../PepinoBoris_bsp/\libucosii_bsp.a(alt_alarm_start.o)
 .debug_str     0x00002e74       0x12 ../PepinoBoris_bsp/\libucosii_bsp.a(alt_busy_sleep.o)
 .debug_str     0x00002e86       0x12 ../PepinoBoris_bsp/\libucosii_bsp.a(alt_close.o)
 .debug_str     0x00002e98       0x12 ../PepinoBoris_bsp/\libucosii_bsp.a(alt_dcache_flush.o)
 .debug_str     0x00002eaa       0x12 ../PepinoBoris_bsp/\libucosii_bsp.a(alt_dev.o)
 .debug_str     0x00002ebc       0x12 ../PepinoBoris_bsp/\libucosii_bsp.a(alt_dev_llist_insert.o)
 .debug_str     0x00002ece       0x12 ../PepinoBoris_bsp/\libucosii_bsp.a(alt_errno.o)
 .debug_str     0x00002ee0       0x12 ../PepinoBoris_bsp/\libucosii_bsp.a(alt_find_dev.o)
 .debug_str     0x00002ef2       0x18 ../PepinoBoris_bsp/\libucosii_bsp.a(alt_iic.o)
 .debug_str     0x00002f0a       0x1a ../PepinoBoris_bsp/\libucosii_bsp.a(alt_iic_isr_register.o)
 .debug_str     0x00002f24       0x12 ../PepinoBoris_bsp/\libucosii_bsp.a(alt_io_redirect.o)
 .debug_str     0x00002f36       0x12 ../PepinoBoris_bsp/\libucosii_bsp.a(alt_irq_handler.o)
 .debug_str     0x00002f48       0x12 ../PepinoBoris_bsp/\libucosii_bsp.a(alt_open.o)
 .debug_str     0x00002f5a       0x12 ../PepinoBoris_bsp/\libucosii_bsp.a(alt_read.o)
 .debug_str     0x00002f6c       0x12 ../PepinoBoris_bsp/\libucosii_bsp.a(alt_release_fd.o)
 .debug_str     0x00002f7e       0x12 ../PepinoBoris_bsp/\libucosii_bsp.a(alt_remap_cached.o)
 .debug_str     0x00002f90       0x12 ../PepinoBoris_bsp/\libucosii_bsp.a(alt_remap_uncached.o)
 .debug_str     0x00002fa2       0x1a ../PepinoBoris_bsp/\libucosii_bsp.a(alt_tick.o)
 .debug_str     0x00002fbc       0x12 ../PepinoBoris_bsp/\libucosii_bsp.a(alt_write.o)
 .debug_str     0x00002fce       0x12 ../PepinoBoris_bsp/\libucosii_bsp.a(altera_nios2_qsys_irq.o)
 .debug_str     0x00002fe0       0x20 ../PepinoBoris_bsp/\libucosii_bsp.a(os_cpu_c.o)
 .debug_str     0x00003000       0x76 ../PepinoBoris_bsp/\libucosii_bsp.a(altera_avalon_cfi_flash_amd.o)
 .debug_str     0x00003076       0x7d ../PepinoBoris_bsp/\libucosii_bsp.a(altera_avalon_cfi_flash_intel.o)
 .debug_str     0x000030f3       0x12 ../PepinoBoris_bsp/\libucosii_bsp.a(allports.o)
 .debug_str     0x00003105       0x1b ../PepinoBoris_bsp/\libucosii_bsp.a(timeouts.o)
 .debug_str     0x00003120       0x12 ../PepinoBoris_bsp/\libucosii_bsp.a(tk_misc.o)
 .debug_str     0x00003132       0x12 ../PepinoBoris_bsp/\libucosii_bsp.a(alt_iniche_fcntl.o)
 .debug_str     0x00003144       0x3d ../PepinoBoris_bsp/\libucosii_bsp.a(et_arp.o)
 .debug_str     0x00003181       0x12 ../PepinoBoris_bsp/\libucosii_bsp.a(iface.o)
 .debug_str     0x00003193       0x2c ../PepinoBoris_bsp/\libucosii_bsp.a(ip.o)
 .debug_str     0x000031bf       0x4e ../PepinoBoris_bsp/\libucosii_bsp.a(ip_reasm.o)
 .debug_str     0x0000320d       0x12 ../PepinoBoris_bsp/\libucosii_bsp.a(ipdemux.o)
 .debug_str     0x0000321f       0x12 ../PepinoBoris_bsp/\libucosii_bsp.a(ipmc.o)
 .debug_str     0x00003231       0x12 ../PepinoBoris_bsp/\libucosii_bsp.a(ipport.o)
 .debug_str     0x00003243       0x12 ../PepinoBoris_bsp/\libucosii_bsp.a(ipraw.o)
 .debug_str     0x00003255       0x12 ../PepinoBoris_bsp/\libucosii_bsp.a(iproute.o)
 .debug_str     0x00003267       0x12 ../PepinoBoris_bsp/\libucosii_bsp.a(udp.o)
 .debug_str     0x00003279       0x12 ../PepinoBoris_bsp/\libucosii_bsp.a(igmp.o)
 .debug_str     0x0000328b       0x20 ../PepinoBoris_bsp/\libucosii_bsp.a(igmp2.o)
 .debug_str     0x000032ab       0x12 ../PepinoBoris_bsp/\libucosii_bsp.a(ipopt.o)
 .debug_str     0x000032bd       0x12 ../PepinoBoris_bsp/\libucosii_bsp.a(u_mctest.o)
 .debug_str     0x000032cf       0x12 ../PepinoBoris_bsp/\libucosii_bsp.a(dhcsetup.o)
 .debug_str     0x000032e1       0x1b ../PepinoBoris_bsp/\libucosii_bsp.a(memdev.o)
 .debug_str     0x000032fc       0x12 ../PepinoBoris_bsp/\libucosii_bsp.a(parseip.o)
 .debug_str     0x0000330e       0x12 ../PepinoBoris_bsp/\libucosii_bsp.a(tcpcksum.o)
 .debug_str     0x00003320       0x12 ../PepinoBoris_bsp/\libucosii_bsp.a(in_pcb.o)
 .debug_str     0x00003332       0x2b ../PepinoBoris_bsp/\libucosii_bsp.a(vfsfiles.o)
 .debug_str     0x0000335d       0x12 ../PepinoBoris_bsp/\libucosii_bsp.a(vfsport.o)
 .debug_str     0x0000336f       0x12 ../PepinoBoris_bsp/\libucosii_bsp.a(alt_fcntl.o)
 .debug_str     0x00003381       0x12 ../PepinoBoris_bsp/\libucosii_bsp.a(alt_find_file.o)
 .debug_str     0x00003393       0x12 ../PepinoBoris_bsp/\libucosii_bsp.a(alt_get_fd.o)
 .debug_str     0x000033a5       0x12 ../PepinoBoris_bsp/\libucosii_bsp.a(icmp.o)
 .debug_str     0x000033b7       0x3b d:/altera/13.0/nios2eds/bin/gnu/h-i686-mingw32/bin/../lib/gcc/nios2-elf/4.1.2/../../../../nios2-elf/lib\libc.a(lib_a-atexit.o)
                                0x1bc (size before relaxing)
 .debug_str     0x000033f2       0x46 d:/altera/13.0/nios2eds/bin/gnu/h-i686-mingw32/bin/../lib/gcc/nios2-elf/4.1.2/../../../../nios2-elf/lib\libc.a(lib_a-atoi.o)
                                0x4f9 (size before relaxing)
 .debug_str     0x00003438       0x42 d:/altera/13.0/nios2eds/bin/gnu/h-i686-mingw32/bin/../lib/gcc/nios2-elf/4.1.2/../../../../nios2-elf/lib\libc.a(lib_a-calloc.o)
                                0x50d (size before relaxing)
 .debug_str     0x0000347a       0x3e d:/altera/13.0/nios2eds/bin/gnu/h-i686-mingw32/bin/../lib/gcc/nios2-elf/4.1.2/../../../../nios2-elf/lib\libc.a(lib_a-exit.o)
                                0x509 (size before relaxing)
 .debug_str     0x000034b8       0x47 d:/altera/13.0/nios2eds/bin/gnu/h-i686-mingw32/bin/../lib/gcc/nios2-elf/4.1.2/../../../../nios2-elf/lib\libc.a(lib_a-malloc.o)
                                0x519 (size before relaxing)
 .debug_str     0x000034ff       0x42 d:/altera/13.0/nios2eds/bin/gnu/h-i686-mingw32/bin/../lib/gcc/nios2-elf/4.1.2/../../../../nios2-elf/lib\libc.a(lib_a-memcmp.o)
                                0x167 (size before relaxing)
 .debug_str     0x00003541       0x46 d:/altera/13.0/nios2eds/bin/gnu/h-i686-mingw32/bin/../lib/gcc/nios2-elf/4.1.2/../../../../nios2-elf/lib\libc.a(lib_a-sprintf.o)
                                0x528 (size before relaxing)
 .debug_str     0x00003587       0x42 d:/altera/13.0/nios2eds/bin/gnu/h-i686-mingw32/bin/../lib/gcc/nios2-elf/4.1.2/../../../../nios2-elf/lib\libc.a(lib_a-strchr.o)
                                0x172 (size before relaxing)
 .debug_str     0x000035c9       0x42 d:/altera/13.0/nios2eds/bin/gnu/h-i686-mingw32/bin/../lib/gcc/nios2-elf/4.1.2/../../../../nios2-elf/lib\libc.a(lib_a-strcpy.o)
                                0x182 (size before relaxing)
 .debug_str     0x0000360b       0x44 d:/altera/13.0/nios2eds/bin/gnu/h-i686-mingw32/bin/../lib/gcc/nios2-elf/4.1.2/../../../../nios2-elf/lib\libc.a(lib_a-strncmp.o)
                                0x169 (size before relaxing)
 .debug_str     0x0000364f       0x44 d:/altera/13.0/nios2eds/bin/gnu/h-i686-mingw32/bin/../lib/gcc/nios2-elf/4.1.2/../../../../nios2-elf/lib\libc.a(lib_a-strncpy.o)
                                0x191 (size before relaxing)
 .debug_str     0x00003693       0x61 d:/altera/13.0/nios2eds/bin/gnu/h-i686-mingw32/bin/../lib/gcc/nios2-elf/4.1.2/../../../../nios2-elf/lib\libc.a(lib_a-strtol.o)
                                0x53b (size before relaxing)
 .debug_str     0x000036f4       0x4e d:/altera/13.0/nios2eds/bin/gnu/h-i686-mingw32/bin/../lib/gcc/nios2-elf/4.1.2/../../../../nios2-elf/lib\libc.a(lib_a-vprintf.o)
                                0x523 (size before relaxing)
 .debug_str     0x00003742       0x51 d:/altera/13.0/nios2eds/bin/gnu/h-i686-mingw32/bin/../lib/gcc/nios2-elf/4.1.2/../../../../nios2-elf/lib\libc.a(lib_a-vsprintf.o)
                                0x52b (size before relaxing)
 .debug_str     0x00003793       0x51 d:/altera/13.0/nios2eds/bin/gnu/h-i686-mingw32/bin/../lib/gcc/nios2-elf/4.1.2/../../../../nios2-elf/lib\libc.a(lib_a-__atexit.o)
                                0x521 (size before relaxing)
 .debug_str     0x000037e4       0x7b d:/altera/13.0/nios2eds/bin/gnu/h-i686-mingw32/bin/../lib/gcc/nios2-elf/4.1.2/../../../../nios2-elf/lib\libc.a(lib_a-__call_atexit.o)
                                0x54b (size before relaxing)
 .debug_str     0x0000385f       0x1c ../PepinoBoris_bsp/\libucosii_bsp.a(alt_exit.o)

.debug_loc      0x00000000    0x14af2
 *(.debug_loc)
 .debug_loc     0x00000000       0xac obj/default/VGA.o
 .debug_loc     0x000000ac       0x81 obj/default/alt_error_handler.o
 .debug_loc     0x0000012d      0x25a obj/default/dm9000a.o
 .debug_loc     0x00000387       0x57 obj/default/iniche_init.o
 .debug_loc     0x000003de       0x81 obj/default/led.o
 .debug_loc     0x0000045f       0x57 obj/default/my_threads.o
 .debug_loc     0x000004b6      0x12e obj/default/network_utilities.o
 .debug_loc     0x000005e4      0x158 obj/default/sdcard/my_sdcard.o
 .debug_loc     0x0000073c       0xd8 obj/default/simple_socket_server.o
 .debug_loc     0x00000814       0x87 d:/altera/13.0/nios2eds/bin/gnu/h-i686-mingw32/bin/../lib/gcc/nios2-elf/4.1.2\libgcc.a(_fixunsdfsi.o)
 .debug_loc     0x0000089b      0x289 d:/altera/13.0/nios2eds/bin/gnu/h-i686-mingw32/bin/../lib/gcc/nios2-elf/4.1.2\libgcc.a(_addsub_sf.o)
 .debug_loc     0x00000b24      0x103 d:/altera/13.0/nios2eds/bin/gnu/h-i686-mingw32/bin/../lib/gcc/nios2-elf/4.1.2\libgcc.a(_mul_sf.o)
 .debug_loc     0x00000c27      0x11d d:/altera/13.0/nios2eds/bin/gnu/h-i686-mingw32/bin/../lib/gcc/nios2-elf/4.1.2\libgcc.a(_div_sf.o)
 .debug_loc     0x00000d44       0x66 d:/altera/13.0/nios2eds/bin/gnu/h-i686-mingw32/bin/../lib/gcc/nios2-elf/4.1.2\libgcc.a(_sf_to_si.o)
 .debug_loc     0x00000daa       0x87 d:/altera/13.0/nios2eds/bin/gnu/h-i686-mingw32/bin/../lib/gcc/nios2-elf/4.1.2\libgcc.a(_usi_to_sf.o)
 .debug_loc     0x00000e31      0x47a d:/altera/13.0/nios2eds/bin/gnu/h-i686-mingw32/bin/../lib/gcc/nios2-elf/4.1.2\libgcc.a(_addsub_df.o)
 .debug_loc     0x000012ab      0x3b4 d:/altera/13.0/nios2eds/bin/gnu/h-i686-mingw32/bin/../lib/gcc/nios2-elf/4.1.2\libgcc.a(_mul_df.o)
 .debug_loc     0x0000165f       0x70 d:/altera/13.0/nios2eds/bin/gnu/h-i686-mingw32/bin/../lib/gcc/nios2-elf/4.1.2\libgcc.a(_ge_df.o)
 .debug_loc     0x000016cf       0x8b d:/altera/13.0/nios2eds/bin/gnu/h-i686-mingw32/bin/../lib/gcc/nios2-elf/4.1.2\libgcc.a(_df_to_si.o)
 .debug_loc     0x0000175a       0x5b d:/altera/13.0/nios2eds/bin/gnu/h-i686-mingw32/bin/../lib/gcc/nios2-elf/4.1.2\libgcc.a(_usi_to_df.o)
 .debug_loc     0x000017b5       0xc4 d:/altera/13.0/nios2eds/bin/gnu/h-i686-mingw32/bin/../lib/gcc/nios2-elf/4.1.2\libgcc.a(_muldi3.o)
 .debug_loc     0x00001879       0x1e d:/altera/13.0/nios2eds/bin/gnu/h-i686-mingw32/bin/../lib/gcc/nios2-elf/4.1.2\libgcc.a(_clzsi2.o)
 .debug_loc     0x00001897       0xf9 d:/altera/13.0/nios2eds/bin/gnu/h-i686-mingw32/bin/../lib/gcc/nios2-elf/4.1.2\libgcc.a(_pack_sf.o)
 .debug_loc     0x00001990       0x31 d:/altera/13.0/nios2eds/bin/gnu/h-i686-mingw32/bin/../lib/gcc/nios2-elf/4.1.2\libgcc.a(_unpack_sf.o)
 .debug_loc     0x000019c1      0x184 d:/altera/13.0/nios2eds/bin/gnu/h-i686-mingw32/bin/../lib/gcc/nios2-elf/4.1.2\libgcc.a(_pack_df.o)
 .debug_loc     0x00001b45       0xe5 d:/altera/13.0/nios2eds/bin/gnu/h-i686-mingw32/bin/../lib/gcc/nios2-elf/4.1.2\libgcc.a(_unpack_df.o)
 .debug_loc     0x00001c2a       0xf1 d:/altera/13.0/nios2eds/bin/gnu/h-i686-mingw32/bin/../lib/gcc/nios2-elf/4.1.2/../../../../nios2-elf/lib\libc.a(lib_a-fprintf.o)
 .debug_loc     0x00001d1b      0x18e d:/altera/13.0/nios2eds/bin/gnu/h-i686-mingw32/bin/../lib/gcc/nios2-elf/4.1.2/../../../../nios2-elf/lib\libc.a(lib_a-fwrite.o)
 .debug_loc     0x00001ea9      0x10b d:/altera/13.0/nios2eds/bin/gnu/h-i686-mingw32/bin/../lib/gcc/nios2-elf/4.1.2/../../../../nios2-elf/lib\libc.a(lib_a-getc.o)
 .debug_loc     0x00001fb4       0xa1 d:/altera/13.0/nios2eds/bin/gnu/h-i686-mingw32/bin/../lib/gcc/nios2-elf/4.1.2/../../../../nios2-elf/lib\libc.a(lib_a-memset.o)
 .debug_loc     0x00002055       0xa2 d:/altera/13.0/nios2eds/bin/gnu/h-i686-mingw32/bin/../lib/gcc/nios2-elf/4.1.2/../../../../nios2-elf/lib\libc.a(lib_a-perror.o)
 .debug_loc     0x000020f7       0xcb d:/altera/13.0/nios2eds/bin/gnu/h-i686-mingw32/bin/../lib/gcc/nios2-elf/4.1.2/../../../../nios2-elf/lib\libc.a(lib_a-printf.o)
 .debug_loc     0x000021c2      0x20d d:/altera/13.0/nios2eds/bin/gnu/h-i686-mingw32/bin/../lib/gcc/nios2-elf/4.1.2/../../../../nios2-elf/lib\libc.a(lib_a-putc.o)
 .debug_loc     0x000023cf       0x44 d:/altera/13.0/nios2eds/bin/gnu/h-i686-mingw32/bin/../lib/gcc/nios2-elf/4.1.2/../../../../nios2-elf/lib\libc.a(lib_a-putchar.o)
 .debug_loc     0x00002413       0xa2 d:/altera/13.0/nios2eds/bin/gnu/h-i686-mingw32/bin/../lib/gcc/nios2-elf/4.1.2/../../../../nios2-elf/lib\libc.a(lib_a-puts.o)
 .debug_loc     0x000024b5       0x6e d:/altera/13.0/nios2eds/bin/gnu/h-i686-mingw32/bin/../lib/gcc/nios2-elf/4.1.2/../../../../nios2-elf/lib\libc.a(lib_a-rget.o)
 .debug_loc     0x00002523      0x418 d:/altera/13.0/nios2eds/bin/gnu/h-i686-mingw32/bin/../lib/gcc/nios2-elf/4.1.2/../../../../nios2-elf/lib\libc.a(lib_a-strerror.o)
 .debug_loc     0x0000293b       0x3c d:/altera/13.0/nios2eds/bin/gnu/h-i686-mingw32/bin/../lib/gcc/nios2-elf/4.1.2/../../../../nios2-elf/lib\libc.a(lib_a-strlen.o)
 .debug_loc     0x00002977     0x1e0d d:/altera/13.0/nios2eds/bin/gnu/h-i686-mingw32/bin/../lib/gcc/nios2-elf/4.1.2/../../../../nios2-elf/lib\libc.a(lib_a-vfprintf.o)
 .debug_loc     0x00004784      0x157 d:/altera/13.0/nios2eds/bin/gnu/h-i686-mingw32/bin/../lib/gcc/nios2-elf/4.1.2/../../../../nios2-elf/lib\libc.a(lib_a-wbuf.o)
 .debug_loc     0x000048db       0x7c d:/altera/13.0/nios2eds/bin/gnu/h-i686-mingw32/bin/../lib/gcc/nios2-elf/4.1.2/../../../../nios2-elf/lib\libc.a(lib_a-wsetup.o)
 .debug_loc     0x00004957     0x1dfa d:/altera/13.0/nios2eds/bin/gnu/h-i686-mingw32/bin/../lib/gcc/nios2-elf/4.1.2/../../../../nios2-elf/lib\libc.a(lib_a-dtoa.o)
 .debug_loc     0x00006751      0x1f6 d:/altera/13.0/nios2eds/bin/gnu/h-i686-mingw32/bin/../lib/gcc/nios2-elf/4.1.2/../../../../nios2-elf/lib\libc.a(lib_a-fflush.o)
 .debug_loc     0x00006947      0x19f d:/altera/13.0/nios2eds/bin/gnu/h-i686-mingw32/bin/../lib/gcc/nios2-elf/4.1.2/../../../../nios2-elf/lib\libc.a(lib_a-findfp.o)
 .debug_loc     0x00006ae6      0x14d d:/altera/13.0/nios2eds/bin/gnu/h-i686-mingw32/bin/../lib/gcc/nios2-elf/4.1.2/../../../../nios2-elf/lib\libc.a(lib_a-fputc.o)
 .debug_loc     0x00006c33       0xcb d:/altera/13.0/nios2eds/bin/gnu/h-i686-mingw32/bin/../lib/gcc/nios2-elf/4.1.2/../../../../nios2-elf/lib\libc.a(lib_a-fputs.o)
 .debug_loc     0x00006cfe      0x4a7 d:/altera/13.0/nios2eds/bin/gnu/h-i686-mingw32/bin/../lib/gcc/nios2-elf/4.1.2/../../../../nios2-elf/lib\libc.a(lib_a-freer.o)
 .debug_loc     0x000071a5      0x4e4 d:/altera/13.0/nios2eds/bin/gnu/h-i686-mingw32/bin/../lib/gcc/nios2-elf/4.1.2/../../../../nios2-elf/lib\libc.a(lib_a-fvwrite.o)
 .debug_loc     0x00007689      0x1d2 d:/altera/13.0/nios2eds/bin/gnu/h-i686-mingw32/bin/../lib/gcc/nios2-elf/4.1.2/../../../../nios2-elf/lib\libc.a(lib_a-fwalk.o)
 .debug_loc     0x0000785b       0xe1 d:/altera/13.0/nios2eds/bin/gnu/h-i686-mingw32/bin/../lib/gcc/nios2-elf/4.1.2/../../../../nios2-elf/lib\libc.a(lib_a-locale.o)
 .debug_loc     0x0000793c      0x11c d:/altera/13.0/nios2eds/bin/gnu/h-i686-mingw32/bin/../lib/gcc/nios2-elf/4.1.2/../../../../nios2-elf/lib\libc.a(lib_a-makebuf.o)
 .debug_loc     0x00007a58      0xaeb d:/altera/13.0/nios2eds/bin/gnu/h-i686-mingw32/bin/../lib/gcc/nios2-elf/4.1.2/../../../../nios2-elf/lib\libc.a(lib_a-mallocr.o)
 .debug_loc     0x00008543      0x106 d:/altera/13.0/nios2eds/bin/gnu/h-i686-mingw32/bin/../lib/gcc/nios2-elf/4.1.2/../../../../nios2-elf/lib\libc.a(lib_a-memchr.o)
 .debug_loc     0x00008649       0xca d:/altera/13.0/nios2eds/bin/gnu/h-i686-mingw32/bin/../lib/gcc/nios2-elf/4.1.2/../../../../nios2-elf/lib\libc.a(lib_a-memcpy.o)
 .debug_loc     0x00008713      0x117 d:/altera/13.0/nios2eds/bin/gnu/h-i686-mingw32/bin/../lib/gcc/nios2-elf/4.1.2/../../../../nios2-elf/lib\libc.a(lib_a-memmove.o)
 .debug_loc     0x0000882a     0x14d6 d:/altera/13.0/nios2eds/bin/gnu/h-i686-mingw32/bin/../lib/gcc/nios2-elf/4.1.2/../../../../nios2-elf/lib\libc.a(lib_a-mprec.o)
 .debug_loc     0x00009d00      0x8c0 d:/altera/13.0/nios2eds/bin/gnu/h-i686-mingw32/bin/../lib/gcc/nios2-elf/4.1.2/../../../../nios2-elf/lib\libc.a(lib_a-reallocr.o)
 .debug_loc     0x0000a5c0       0xd1 d:/altera/13.0/nios2eds/bin/gnu/h-i686-mingw32/bin/../lib/gcc/nios2-elf/4.1.2/../../../../nios2-elf/lib\libc.a(lib_a-refill.o)
 .debug_loc     0x0000a691       0x36 d:/altera/13.0/nios2eds/bin/gnu/h-i686-mingw32/bin/../lib/gcc/nios2-elf/4.1.2/../../../../nios2-elf/lib\libc.a(lib_a-s_isinfd.o)
 .debug_loc     0x0000a6c7       0x18 d:/altera/13.0/nios2eds/bin/gnu/h-i686-mingw32/bin/../lib/gcc/nios2-elf/4.1.2/../../../../nios2-elf/lib\libc.a(lib_a-s_isnand.o)
 .debug_loc     0x0000a6df       0x5b d:/altera/13.0/nios2eds/bin/gnu/h-i686-mingw32/bin/../lib/gcc/nios2-elf/4.1.2/../../../../nios2-elf/lib\libc.a(lib_a-sbrkr.o)
 .debug_loc     0x0000a73a      0x21f d:/altera/13.0/nios2eds/bin/gnu/h-i686-mingw32/bin/../lib/gcc/nios2-elf/4.1.2/../../../../nios2-elf/lib\libc.a(lib_a-stdio.o)
 .debug_loc     0x0000a959       0x65 d:/altera/13.0/nios2eds/bin/gnu/h-i686-mingw32/bin/../lib/gcc/nios2-elf/4.1.2/../../../../nios2-elf/lib\libc.a(lib_a-strcmp.o)
 .debug_loc     0x0000a9be       0x97 d:/altera/13.0/nios2eds/bin/gnu/h-i686-mingw32/bin/../lib/gcc/nios2-elf/4.1.2/../../../../nios2-elf/lib\libc.a(lib_a-writer.o)
 .debug_loc     0x0000aa55       0xe9 d:/altera/13.0/nios2eds/bin/gnu/h-i686-mingw32/bin/../lib/gcc/nios2-elf/4.1.2/../../../../nios2-elf/lib\libc.a(lib_a-callocr.o)
 .debug_loc     0x0000ab3e       0x5b d:/altera/13.0/nios2eds/bin/gnu/h-i686-mingw32/bin/../lib/gcc/nios2-elf/4.1.2/../../../../nios2-elf/lib\libc.a(lib_a-closer.o)
 .debug_loc     0x0000ab99       0xe4 d:/altera/13.0/nios2eds/bin/gnu/h-i686-mingw32/bin/../lib/gcc/nios2-elf/4.1.2/../../../../nios2-elf/lib\libc.a(lib_a-fclose.o)
 .debug_loc     0x0000ac7d       0x79 d:/altera/13.0/nios2eds/bin/gnu/h-i686-mingw32/bin/../lib/gcc/nios2-elf/4.1.2/../../../../nios2-elf/lib\libc.a(lib_a-fstatr.o)
 .debug_loc     0x0000acf6       0x5b d:/altera/13.0/nios2eds/bin/gnu/h-i686-mingw32/bin/../lib/gcc/nios2-elf/4.1.2/../../../../nios2-elf/lib\libc.a(lib_a-isattyr.o)
 .debug_loc     0x0000ad51       0x97 d:/altera/13.0/nios2eds/bin/gnu/h-i686-mingw32/bin/../lib/gcc/nios2-elf/4.1.2/../../../../nios2-elf/lib\libc.a(lib_a-lseekr.o)
 .debug_loc     0x0000ade8       0x97 d:/altera/13.0/nios2eds/bin/gnu/h-i686-mingw32/bin/../lib/gcc/nios2-elf/4.1.2/../../../../nios2-elf/lib\libc.a(lib_a-readr.o)
 .debug_loc     0x0000ae7f      0xc12 d:/altera/13.0/nios2eds/bin/gnu/h-i686-mingw32/bin/../lib/gcc/nios2-elf/4.1.2\libgcc.a(_udivdi3.o)
 .debug_loc     0x0000ba91      0xc26 d:/altera/13.0/nios2eds/bin/gnu/h-i686-mingw32/bin/../lib/gcc/nios2-elf/4.1.2\libgcc.a(_umoddi3.o)
 .debug_loc     0x0000c6b7      0x1df d:/altera/13.0/nios2eds/bin/gnu/h-i686-mingw32/bin/../lib/gcc/nios2-elf/4.1.2\libgcc.a(_div_df.o)
 .debug_loc     0x0000c896       0x70 d:/altera/13.0/nios2eds/bin/gnu/h-i686-mingw32/bin/../lib/gcc/nios2-elf/4.1.2\libgcc.a(_eq_df.o)
 .debug_loc     0x0000c906       0x70 d:/altera/13.0/nios2eds/bin/gnu/h-i686-mingw32/bin/../lib/gcc/nios2-elf/4.1.2\libgcc.a(_ne_df.o)
 .debug_loc     0x0000c976       0x70 d:/altera/13.0/nios2eds/bin/gnu/h-i686-mingw32/bin/../lib/gcc/nios2-elf/4.1.2\libgcc.a(_gt_df.o)
 .debug_loc     0x0000c9e6       0x70 d:/altera/13.0/nios2eds/bin/gnu/h-i686-mingw32/bin/../lib/gcc/nios2-elf/4.1.2\libgcc.a(_lt_df.o)
 .debug_loc     0x0000ca56       0x9a d:/altera/13.0/nios2eds/bin/gnu/h-i686-mingw32/bin/../lib/gcc/nios2-elf/4.1.2\libgcc.a(_si_to_df.o)
 .debug_loc     0x0000caf0      0x1d2 d:/altera/13.0/nios2eds/bin/gnu/h-i686-mingw32/bin/../lib/gcc/nios2-elf/4.1.2\libgcc.a(lib2-divmod.o)
 .debug_loc     0x0000ccc2       0x56 ../PepinoBoris_bsp/\libucosii_bsp.a(alt_flash_dev.o)
 .debug_loc     0x0000cd18       0x56 ../PepinoBoris_bsp/\libucosii_bsp.a(alt_fstat.o)
 .debug_loc     0x0000cd6e       0x2c ../PepinoBoris_bsp/\libucosii_bsp.a(alt_irq_register.o)
 .debug_loc     0x0000cd9a       0x57 ../PepinoBoris_bsp/\libucosii_bsp.a(alt_isatty.o)
 .debug_loc     0x0000cdf1       0x56 ../PepinoBoris_bsp/\libucosii_bsp.a(alt_lseek.o)
 .debug_loc     0x0000ce47       0x2b ../PepinoBoris_bsp/\libucosii_bsp.a(alt_main.o)
 .debug_loc     0x0000ce72       0x2b ../PepinoBoris_bsp/\libucosii_bsp.a(alt_sbrk.o)
 .debug_loc     0x0000ce9d       0x2b ../PepinoBoris_bsp/\libucosii_bsp.a(alt_usleep.o)
 .debug_loc     0x0000cec8       0x57 ../PepinoBoris_bsp/\libucosii_bsp.a(alt_env_lock.o)
 .debug_loc     0x0000cf1f       0x57 ../PepinoBoris_bsp/\libucosii_bsp.a(alt_malloc_lock.o)
 .debug_loc     0x0000cf76      0x5e2 ../PepinoBoris_bsp/\libucosii_bsp.a(os_core.o)
 .debug_loc     0x0000d558       0x2b ../PepinoBoris_bsp/\libucosii_bsp.a(os_dbg.o)
 .debug_loc     0x0000d583      0x232 ../PepinoBoris_bsp/\libucosii_bsp.a(os_flag.o)
 .debug_loc     0x0000d7b5      0x12d ../PepinoBoris_bsp/\libucosii_bsp.a(os_mem.o)
 .debug_loc     0x0000d8e2      0x1da ../PepinoBoris_bsp/\libucosii_bsp.a(os_q.o)
 .debug_loc     0x0000dabc      0x158 ../PepinoBoris_bsp/\libucosii_bsp.a(os_sem.o)
 .debug_loc     0x0000dc14      0x207 ../PepinoBoris_bsp/\libucosii_bsp.a(os_task.o)
 .debug_loc     0x0000de1b       0xd7 ../PepinoBoris_bsp/\libucosii_bsp.a(os_time.o)
 .debug_loc     0x0000def2       0x81 ../PepinoBoris_bsp/\libucosii_bsp.a(alt_sys_init.o)
 .debug_loc     0x0000df73      0x12e ../PepinoBoris_bsp/\libucosii_bsp.a(altera_avalon_cfi_flash.o)
 .debug_loc     0x0000e0a1      0x306 ../PepinoBoris_bsp/\libucosii_bsp.a(altera_avalon_cfi_flash_table.o)
 .debug_loc     0x0000e3a7      0x1af ../PepinoBoris_bsp/\libucosii_bsp.a(altera_avalon_epcs_flash_controller.o)
 .debug_loc     0x0000e556       0xac ../PepinoBoris_bsp/\libucosii_bsp.a(altera_avalon_jtag_uart_fd.o)
 .debug_loc     0x0000e602       0xac ../PepinoBoris_bsp/\libucosii_bsp.a(altera_avalon_jtag_uart_init.o)
 .debug_loc     0x0000e6ae       0x2b ../PepinoBoris_bsp/\libucosii_bsp.a(altera_avalon_jtag_uart_ioctl.o)
 .debug_loc     0x0000e6d9       0x2c ../PepinoBoris_bsp/\libucosii_bsp.a(altera_avalon_jtag_uart_read.o)
 .debug_loc     0x0000e705       0x2c ../PepinoBoris_bsp/\libucosii_bsp.a(altera_avalon_jtag_uart_write.o)
 .debug_loc     0x0000e731      0x184 ../PepinoBoris_bsp/\libucosii_bsp.a(altera_avalon_lcd_16207.o)
 .debug_loc     0x0000e8b5       0x2b ../PepinoBoris_bsp/\libucosii_bsp.a(altera_avalon_lcd_16207_fd.o)
 .debug_loc     0x0000e8e0       0x56 ../PepinoBoris_bsp/\libucosii_bsp.a(altera_avalon_timer_sc.o)
 .debug_loc     0x0000e936       0x81 ../PepinoBoris_bsp/\libucosii_bsp.a(altera_avalon_uart_fd.o)
 .debug_loc     0x0000e9b7       0xd8 ../PepinoBoris_bsp/\libucosii_bsp.a(altera_avalon_uart_init.o)
 .debug_loc     0x0000ea8f       0x57 ../PepinoBoris_bsp/\libucosii_bsp.a(altera_avalon_uart_read.o)
 .debug_loc     0x0000eae6       0x57 ../PepinoBoris_bsp/\libucosii_bsp.a(altera_avalon_uart_write.o)
 .debug_loc     0x0000eb3d      0x590 ../PepinoBoris_bsp/\libucosii_bsp.a(altera_up_sd_card_avalon_interface.o)
 .debug_loc     0x0000f0cd      0x204 ../PepinoBoris_bsp/\libucosii_bsp.a(epcs_commands.o)
 .debug_loc     0x0000f2d1       0x2b ../PepinoBoris_bsp/\libucosii_bsp.a(alt_iniche_close.o)
 .debug_loc     0x0000f2fc       0x2b ../PepinoBoris_bsp/\libucosii_bsp.a(alt_iniche_dev.o)
 .debug_loc     0x0000f327       0x2b ../PepinoBoris_bsp/\libucosii_bsp.a(alt_iniche_read.o)
 .debug_loc     0x0000f352       0x2b ../PepinoBoris_bsp/\libucosii_bsp.a(alt_iniche_write.o)
 .debug_loc     0x0000f37d      0x102 ../PepinoBoris_bsp/\libucosii_bsp.a(ipnet.o)
 .debug_loc     0x0000f47f       0xac ../PepinoBoris_bsp/\libucosii_bsp.a(ipstart.o)
 .debug_loc     0x0000f52b      0x159 ../PepinoBoris_bsp/\libucosii_bsp.a(igmp_cmn.o)
 .debug_loc     0x0000f684      0x1af ../PepinoBoris_bsp/\libucosii_bsp.a(bsdsock.o)
 .debug_loc     0x0000f833       0x56 ../PepinoBoris_bsp/\libucosii_bsp.a(cksum.o)
 .debug_loc     0x0000f889      0x204 ../PepinoBoris_bsp/\libucosii_bsp.a(in_utils.o)
 .debug_loc     0x0000fa8d       0x81 ../PepinoBoris_bsp/\libucosii_bsp.a(netmain.o)
 .debug_loc     0x0000fb0e      0x12f ../PepinoBoris_bsp/\libucosii_bsp.a(tk_crnos.o)
 .debug_loc     0x0000fc3d      0x35c ../PepinoBoris_bsp/\libucosii_bsp.a(dhcpclnt.o)
 .debug_loc     0x0000ff99       0x2b ../PepinoBoris_bsp/\libucosii_bsp.a(dhcputil.o)
 .debug_loc     0x0000ffc4      0x102 ../PepinoBoris_bsp/\libucosii_bsp.a(pktalloc.o)
 .debug_loc     0x000100c6       0x81 ../PepinoBoris_bsp/\libucosii_bsp.a(q.o)
 .debug_loc     0x00010147       0x56 ../PepinoBoris_bsp/\libucosii_bsp.a(udp_open.o)
 .debug_loc     0x0001019d      0x158 ../PepinoBoris_bsp/\libucosii_bsp.a(brdutils.o)
 .debug_loc     0x000102f5       0xd8 ../PepinoBoris_bsp/\libucosii_bsp.a(osportco.o)
 .debug_loc     0x000103cd      0x183 ../PepinoBoris_bsp/\libucosii_bsp.a(targnios.o)
 .debug_loc     0x00010550      0x306 ../PepinoBoris_bsp/\libucosii_bsp.a(nptcp.o)
 .debug_loc     0x00010856       0x82 ../PepinoBoris_bsp/\libucosii_bsp.a(rawsock.o)
 .debug_loc     0x000108d8      0x332 ../PepinoBoris_bsp/\libucosii_bsp.a(sockcall.o)
 .debug_loc     0x00010c0a      0x2b1 ../PepinoBoris_bsp/\libucosii_bsp.a(socket.o)
 .debug_loc     0x00010ebb      0x3dd ../PepinoBoris_bsp/\libucosii_bsp.a(socket2.o)
 .debug_loc     0x00011298      0x184 ../PepinoBoris_bsp/\libucosii_bsp.a(soselect.o)
 .debug_loc     0x0001141c      0x12e ../PepinoBoris_bsp/\libucosii_bsp.a(tcp_in.o)
 .debug_loc     0x0001154a       0x82 ../PepinoBoris_bsp/\libucosii_bsp.a(tcp_out.o)
 .debug_loc     0x000115cc      0x183 ../PepinoBoris_bsp/\libucosii_bsp.a(tcp_subr.o)
 .debug_loc     0x0001174f       0x81 ../PepinoBoris_bsp/\libucosii_bsp.a(tcp_timr.o)
 .debug_loc     0x000117d0       0xac ../PepinoBoris_bsp/\libucosii_bsp.a(tcp_usr.o)
 .debug_loc     0x0001187c       0x2b ../PepinoBoris_bsp/\libucosii_bsp.a(tcpport.o)
 .debug_loc     0x000118a7      0x102 ../PepinoBoris_bsp/\libucosii_bsp.a(udpsock.o)
 .debug_loc     0x000119a9       0x2b ../PepinoBoris_bsp/\libucosii_bsp.a(alt_alarm_start.o)
 .debug_loc     0x000119d4       0x2b ../PepinoBoris_bsp/\libucosii_bsp.a(alt_busy_sleep.o)
 .debug_loc     0x000119ff       0x56 ../PepinoBoris_bsp/\libucosii_bsp.a(alt_close.o)
 .debug_loc     0x00011a55       0x2b ../PepinoBoris_bsp/\libucosii_bsp.a(alt_dcache_flush.o)
 .debug_loc     0x00011a80       0x2b ../PepinoBoris_bsp/\libucosii_bsp.a(alt_dev.o)
 .debug_loc     0x00011aab       0x56 ../PepinoBoris_bsp/\libucosii_bsp.a(alt_dev_llist_insert.o)
 .debug_loc     0x00011b01       0x2b ../PepinoBoris_bsp/\libucosii_bsp.a(alt_do_ctors.o)
 .debug_loc     0x00011b2c       0x2b ../PepinoBoris_bsp/\libucosii_bsp.a(alt_do_dtors.o)
 .debug_loc     0x00011b57       0x2b ../PepinoBoris_bsp/\libucosii_bsp.a(alt_find_dev.o)
 .debug_loc     0x00011b82       0xac ../PepinoBoris_bsp/\libucosii_bsp.a(alt_iic.o)
 .debug_loc     0x00011c2e       0x2b ../PepinoBoris_bsp/\libucosii_bsp.a(alt_iic_isr_register.o)
 .debug_loc     0x00011c59       0x56 ../PepinoBoris_bsp/\libucosii_bsp.a(alt_io_redirect.o)
 .debug_loc     0x00011caf       0x2b ../PepinoBoris_bsp/\libucosii_bsp.a(alt_irq_handler.o)
 .debug_loc     0x00011cda       0x81 ../PepinoBoris_bsp/\libucosii_bsp.a(alt_open.o)
 .debug_loc     0x00011d5b       0x56 ../PepinoBoris_bsp/\libucosii_bsp.a(alt_read.o)
 .debug_loc     0x00011db1       0x2b ../PepinoBoris_bsp/\libucosii_bsp.a(alt_release_fd.o)
 .debug_loc     0x00011ddc       0x2b ../PepinoBoris_bsp/\libucosii_bsp.a(alt_remap_cached.o)
 .debug_loc     0x00011e07       0x2b ../PepinoBoris_bsp/\libucosii_bsp.a(alt_remap_uncached.o)
 .debug_loc     0x00011e32       0x56 ../PepinoBoris_bsp/\libucosii_bsp.a(alt_tick.o)
 .debug_loc     0x00011e88       0x56 ../PepinoBoris_bsp/\libucosii_bsp.a(alt_write.o)
 .debug_loc     0x00011ede       0x2b ../PepinoBoris_bsp/\libucosii_bsp.a(altera_nios2_qsys_irq.o)
 .debug_loc     0x00011f09      0x1ae ../PepinoBoris_bsp/\libucosii_bsp.a(os_cpu_c.o)
 .debug_loc     0x000120b7       0xac ../PepinoBoris_bsp/\libucosii_bsp.a(altera_avalon_cfi_flash_amd.o)
 .debug_loc     0x00012163       0xac ../PepinoBoris_bsp/\libucosii_bsp.a(altera_avalon_cfi_flash_intel.o)
 .debug_loc     0x0001220f       0x2b ../PepinoBoris_bsp/\libucosii_bsp.a(altera_avalon_spi.o)
 .debug_loc     0x0001223a      0x12d ../PepinoBoris_bsp/\libucosii_bsp.a(allports.o)
 .debug_loc     0x00012367       0xac ../PepinoBoris_bsp/\libucosii_bsp.a(timeouts.o)
 .debug_loc     0x00012413       0x56 ../PepinoBoris_bsp/\libucosii_bsp.a(tk_misc.o)
 .debug_loc     0x00012469       0x2b ../PepinoBoris_bsp/\libucosii_bsp.a(alt_iniche_fcntl.o)
 .debug_loc     0x00012494      0x204 ../PepinoBoris_bsp/\libucosii_bsp.a(et_arp.o)
 .debug_loc     0x00012698       0xac ../PepinoBoris_bsp/\libucosii_bsp.a(iface.o)
 .debug_loc     0x00012744      0x207 ../PepinoBoris_bsp/\libucosii_bsp.a(ip.o)
 .debug_loc     0x0001294b      0x2b2 ../PepinoBoris_bsp/\libucosii_bsp.a(ip_reasm.o)
 .debug_loc     0x00012bfd       0x81 ../PepinoBoris_bsp/\libucosii_bsp.a(ipdemux.o)
 .debug_loc     0x00012c7e       0x81 ../PepinoBoris_bsp/\libucosii_bsp.a(ipmc.o)
 .debug_loc     0x00012cff       0x81 ../PepinoBoris_bsp/\libucosii_bsp.a(ipport.o)
 .debug_loc     0x00012d80      0x102 ../PepinoBoris_bsp/\libucosii_bsp.a(ipraw.o)
 .debug_loc     0x00012e82       0x81 ../PepinoBoris_bsp/\libucosii_bsp.a(iproute.o)
 .debug_loc     0x00012f03      0x12f ../PepinoBoris_bsp/\libucosii_bsp.a(udp.o)
 .debug_loc     0x00013032       0x2b ../PepinoBoris_bsp/\libucosii_bsp.a(igmp.o)
 .debug_loc     0x0001305d       0xd7 ../PepinoBoris_bsp/\libucosii_bsp.a(igmp2.o)
 .debug_loc     0x00013134       0xac ../PepinoBoris_bsp/\libucosii_bsp.a(ipopt.o)
 .debug_loc     0x000131e0       0x57 ../PepinoBoris_bsp/\libucosii_bsp.a(u_mctest.o)
 .debug_loc     0x00013237       0x56 ../PepinoBoris_bsp/\libucosii_bsp.a(dhcsetup.o)
 .debug_loc     0x0001328d      0x183 ../PepinoBoris_bsp/\libucosii_bsp.a(memdev.o)
 .debug_loc     0x00013410      0x183 ../PepinoBoris_bsp/\libucosii_bsp.a(parseip.o)
 .debug_loc     0x00013593       0x2b ../PepinoBoris_bsp/\libucosii_bsp.a(tcpcksum.o)
 .debug_loc     0x000135be      0x158 ../PepinoBoris_bsp/\libucosii_bsp.a(in_pcb.o)
 .debug_loc     0x00013716      0x4b4 ../PepinoBoris_bsp/\libucosii_bsp.a(vfsfiles.o)
 .debug_loc     0x00013bca       0x2b ../PepinoBoris_bsp/\libucosii_bsp.a(vfsport.o)
 .debug_loc     0x00013bf5       0x56 ../PepinoBoris_bsp/\libucosii_bsp.a(alt_fcntl.o)
 .debug_loc     0x00013c4b       0x2b ../PepinoBoris_bsp/\libucosii_bsp.a(alt_find_file.o)
 .debug_loc     0x00013c76       0x2b ../PepinoBoris_bsp/\libucosii_bsp.a(alt_get_fd.o)
 .debug_loc     0x00013ca1       0xad ../PepinoBoris_bsp/\libucosii_bsp.a(icmp.o)
 .debug_loc     0x00013d4e       0x1e d:/altera/13.0/nios2eds/bin/gnu/h-i686-mingw32/bin/../lib/gcc/nios2-elf/4.1.2/../../../../nios2-elf/lib\libc.a(lib_a-atexit.o)
 .debug_loc     0x00013d6c       0x39 d:/altera/13.0/nios2eds/bin/gnu/h-i686-mingw32/bin/../lib/gcc/nios2-elf/4.1.2/../../../../nios2-elf/lib\libc.a(lib_a-atoi.o)
 .debug_loc     0x00013da5       0x3c d:/altera/13.0/nios2eds/bin/gnu/h-i686-mingw32/bin/../lib/gcc/nios2-elf/4.1.2/../../../../nios2-elf/lib\libc.a(lib_a-calloc.o)
 .debug_loc     0x00013de1       0x3d d:/altera/13.0/nios2eds/bin/gnu/h-i686-mingw32/bin/../lib/gcc/nios2-elf/4.1.2/../../../../nios2-elf/lib\libc.a(lib_a-exit.o)
 .debug_loc     0x00013e1e       0x3c d:/altera/13.0/nios2eds/bin/gnu/h-i686-mingw32/bin/../lib/gcc/nios2-elf/4.1.2/../../../../nios2-elf/lib\libc.a(lib_a-malloc.o)
 .debug_loc     0x00013e5a      0x114 d:/altera/13.0/nios2eds/bin/gnu/h-i686-mingw32/bin/../lib/gcc/nios2-elf/4.1.2/../../../../nios2-elf/lib\libc.a(lib_a-memcmp.o)
 .debug_loc     0x00013f6e       0xc0 d:/altera/13.0/nios2eds/bin/gnu/h-i686-mingw32/bin/../lib/gcc/nios2-elf/4.1.2/../../../../nios2-elf/lib\libc.a(lib_a-sprintf.o)
 .debug_loc     0x0001402e       0xf3 d:/altera/13.0/nios2eds/bin/gnu/h-i686-mingw32/bin/../lib/gcc/nios2-elf/4.1.2/../../../../nios2-elf/lib\libc.a(lib_a-strchr.o)
 .debug_loc     0x00014121       0x8b d:/altera/13.0/nios2eds/bin/gnu/h-i686-mingw32/bin/../lib/gcc/nios2-elf/4.1.2/../../../../nios2-elf/lib\libc.a(lib_a-strcpy.o)
 .debug_loc     0x000141ac       0x78 d:/altera/13.0/nios2eds/bin/gnu/h-i686-mingw32/bin/../lib/gcc/nios2-elf/4.1.2/../../../../nios2-elf/lib\libc.a(lib_a-strncmp.o)
 .debug_loc     0x00014224       0xeb d:/altera/13.0/nios2eds/bin/gnu/h-i686-mingw32/bin/../lib/gcc/nios2-elf/4.1.2/../../../../nios2-elf/lib\libc.a(lib_a-strncpy.o)
 .debug_loc     0x0001430f      0x346 d:/altera/13.0/nios2eds/bin/gnu/h-i686-mingw32/bin/../lib/gcc/nios2-elf/4.1.2/../../../../nios2-elf/lib\libc.a(lib_a-strtol.o)
 .debug_loc     0x00014655       0x8b d:/altera/13.0/nios2eds/bin/gnu/h-i686-mingw32/bin/../lib/gcc/nios2-elf/4.1.2/../../../../nios2-elf/lib\libc.a(lib_a-vprintf.o)
 .debug_loc     0x000146e0       0xd1 d:/altera/13.0/nios2eds/bin/gnu/h-i686-mingw32/bin/../lib/gcc/nios2-elf/4.1.2/../../../../nios2-elf/lib\libc.a(lib_a-vsprintf.o)
 .debug_loc     0x000147b1      0x120 d:/altera/13.0/nios2eds/bin/gnu/h-i686-mingw32/bin/../lib/gcc/nios2-elf/4.1.2/../../../../nios2-elf/lib\libc.a(lib_a-__atexit.o)
 .debug_loc     0x000148d1      0x1cb d:/altera/13.0/nios2eds/bin/gnu/h-i686-mingw32/bin/../lib/gcc/nios2-elf/4.1.2/../../../../nios2-elf/lib\libc.a(lib_a-__call_atexit.o)
 .debug_loc     0x00014a9c       0x56 ../PepinoBoris_bsp/\libucosii_bsp.a(alt_exit.o)

.debug_macinfo
 *(.debug_macinfo)

.debug_weaknames
 *(.debug_weaknames)

.debug_funcnames
 *(.debug_funcnames)

.debug_typenames
 *(.debug_typenames)

.debug_varnames
 *(.debug_varnames)

.debug_alt_sim_info
                0x00000000       0x50
 *(.debug_alt_sim_info)
 .debug_alt_sim_info
                0x00000000       0x20 ../PepinoBoris_bsp//obj/HAL/src/crt0.o
 .debug_alt_sim_info
                0x00000020       0x30 ../PepinoBoris_bsp/\libucosii_bsp.a(alt_busy_sleep.o)
                0x01000000                __alt_data_end = 0x1000000
                0x01000000                PROVIDE (__alt_stack_pointer, __alt_data_end)
                0x008613f0                PROVIDE (__alt_stack_limit, __alt_stack_base)
                0x008613f0                PROVIDE (__alt_heap_start, end)
                0x01000000                PROVIDE (__alt_heap_limit, 0x1000000)
OUTPUT(PepinoBoris.elf elf32-littlenios2)

.debug_ranges   0x00000000      0xae8
 .debug_ranges  0x00000000       0x28 d:/altera/13.0/nios2eds/bin/gnu/h-i686-mingw32/bin/../lib/gcc/nios2-elf/4.1.2\libgcc.a(_addsub_sf.o)
 .debug_ranges  0x00000028       0x80 d:/altera/13.0/nios2eds/bin/gnu/h-i686-mingw32/bin/../lib/gcc/nios2-elf/4.1.2\libgcc.a(_mul_sf.o)
 .debug_ranges  0x000000a8       0x60 d:/altera/13.0/nios2eds/bin/gnu/h-i686-mingw32/bin/../lib/gcc/nios2-elf/4.1.2\libgcc.a(_div_sf.o)
 .debug_ranges  0x00000108       0x40 d:/altera/13.0/nios2eds/bin/gnu/h-i686-mingw32/bin/../lib/gcc/nios2-elf/4.1.2\libgcc.a(_usi_to_sf.o)
 .debug_ranges  0x00000148       0x30 d:/altera/13.0/nios2eds/bin/gnu/h-i686-mingw32/bin/../lib/gcc/nios2-elf/4.1.2\libgcc.a(_addsub_df.o)
 .debug_ranges  0x00000178       0x88 d:/altera/13.0/nios2eds/bin/gnu/h-i686-mingw32/bin/../lib/gcc/nios2-elf/4.1.2\libgcc.a(_mul_df.o)
 .debug_ranges  0x00000200       0x18 d:/altera/13.0/nios2eds/bin/gnu/h-i686-mingw32/bin/../lib/gcc/nios2-elf/4.1.2\libgcc.a(_usi_to_df.o)
 .debug_ranges  0x00000218       0x68 d:/altera/13.0/nios2eds/bin/gnu/h-i686-mingw32/bin/../lib/gcc/nios2-elf/4.1.2\libgcc.a(_muldi3.o)
 .debug_ranges  0x00000280       0x28 d:/altera/13.0/nios2eds/bin/gnu/h-i686-mingw32/bin/../lib/gcc/nios2-elf/4.1.2\libgcc.a(_clzsi2.o)
 .debug_ranges  0x000002a8       0x28 d:/altera/13.0/nios2eds/bin/gnu/h-i686-mingw32/bin/../lib/gcc/nios2-elf/4.1.2\libgcc.a(_pack_df.o)
 .debug_ranges  0x000002d0      0x168 d:/altera/13.0/nios2eds/bin/gnu/h-i686-mingw32/bin/../lib/gcc/nios2-elf/4.1.2/../../../../nios2-elf/lib\libc.a(lib_a-vfprintf.o)
 .debug_ranges  0x00000438       0x20 d:/altera/13.0/nios2eds/bin/gnu/h-i686-mingw32/bin/../lib/gcc/nios2-elf/4.1.2/../../../../nios2-elf/lib\libc.a(lib_a-fflush.o)
 .debug_ranges  0x00000458       0x28 d:/altera/13.0/nios2eds/bin/gnu/h-i686-mingw32/bin/../lib/gcc/nios2-elf/4.1.2/../../../../nios2-elf/lib\libc.a(lib_a-fvwrite.o)
 .debug_ranges  0x00000480       0xa0 d:/altera/13.0/nios2eds/bin/gnu/h-i686-mingw32/bin/../lib/gcc/nios2-elf/4.1.2/../../../../nios2-elf/lib\libc.a(lib_a-fwalk.o)
 .debug_ranges  0x00000520       0x70 d:/altera/13.0/nios2eds/bin/gnu/h-i686-mingw32/bin/../lib/gcc/nios2-elf/4.1.2/../../../../nios2-elf/lib\libc.a(lib_a-mallocr.o)
 .debug_ranges  0x00000590      0x110 d:/altera/13.0/nios2eds/bin/gnu/h-i686-mingw32/bin/../lib/gcc/nios2-elf/4.1.2/../../../../nios2-elf/lib\libc.a(lib_a-reallocr.o)
 .debug_ranges  0x000006a0       0x38 d:/altera/13.0/nios2eds/bin/gnu/h-i686-mingw32/bin/../lib/gcc/nios2-elf/4.1.2/../../../../nios2-elf/lib\libc.a(lib_a-callocr.o)
 .debug_ranges  0x000006d8      0x188 d:/altera/13.0/nios2eds/bin/gnu/h-i686-mingw32/bin/../lib/gcc/nios2-elf/4.1.2\libgcc.a(_udivdi3.o)
 .debug_ranges  0x00000860      0x198 d:/altera/13.0/nios2eds/bin/gnu/h-i686-mingw32/bin/../lib/gcc/nios2-elf/4.1.2\libgcc.a(_umoddi3.o)
 .debug_ranges  0x000009f8       0x50 d:/altera/13.0/nios2eds/bin/gnu/h-i686-mingw32/bin/../lib/gcc/nios2-elf/4.1.2\libgcc.a(_div_df.o)
 .debug_ranges  0x00000a48       0x18 ../PepinoBoris_bsp/\libucosii_bsp.a(altera_avalon_jtag_uart_init.o)
 .debug_ranges  0x00000a60       0x18 ../PepinoBoris_bsp/\libucosii_bsp.a(altera_avalon_uart_init.o)
 .debug_ranges  0x00000a78       0x28 ../PepinoBoris_bsp/\libucosii_bsp.a(alt_irq_entry.o)
 .debug_ranges  0x00000aa0       0x30 ../PepinoBoris_bsp/\libucosii_bsp.a(alt_exception_entry.o)
 .debug_ranges  0x00000ad0       0x18 d:/altera/13.0/nios2eds/bin/gnu/h-i686-mingw32/bin/../lib/gcc/nios2-elf/4.1.2/../../../../nios2-elf/lib\libc.a(lib_a-__call_atexit.o)
