Archive member included because of file (symbol)

c:/altera/13.0/nios2eds/bin/gnu/h-i686-mingw32/bin/../lib/gcc/nios2-elf/4.1.2\libgcc.a(_fixunsdfsi.o)
                              obj/default/dm9000a.o (__fixunsdfsi)
c:/altera/13.0/nios2eds/bin/gnu/h-i686-mingw32/bin/../lib/gcc/nios2-elf/4.1.2\libgcc.a(_addsub_df.o)
                              c:/altera/13.0/nios2eds/bin/gnu/h-i686-mingw32/bin/../lib/gcc/nios2-elf/4.1.2\libgcc.a(_fixunsdfsi.o) (__subdf3)
c:/altera/13.0/nios2eds/bin/gnu/h-i686-mingw32/bin/../lib/gcc/nios2-elf/4.1.2\libgcc.a(_mul_df.o)
                              obj/default/dm9000a.o (__muldf3)
c:/altera/13.0/nios2eds/bin/gnu/h-i686-mingw32/bin/../lib/gcc/nios2-elf/4.1.2\libgcc.a(_ge_df.o)
                              c:/altera/13.0/nios2eds/bin/gnu/h-i686-mingw32/bin/../lib/gcc/nios2-elf/4.1.2\libgcc.a(_fixunsdfsi.o) (__gedf2)
c:/altera/13.0/nios2eds/bin/gnu/h-i686-mingw32/bin/../lib/gcc/nios2-elf/4.1.2\libgcc.a(_df_to_si.o)
                              c:/altera/13.0/nios2eds/bin/gnu/h-i686-mingw32/bin/../lib/gcc/nios2-elf/4.1.2\libgcc.a(_fixunsdfsi.o) (__fixdfsi)
c:/altera/13.0/nios2eds/bin/gnu/h-i686-mingw32/bin/../lib/gcc/nios2-elf/4.1.2\libgcc.a(_thenan_df.o)
                              c:/altera/13.0/nios2eds/bin/gnu/h-i686-mingw32/bin/../lib/gcc/nios2-elf/4.1.2\libgcc.a(_addsub_df.o) (__thenan_df)
c:/altera/13.0/nios2eds/bin/gnu/h-i686-mingw32/bin/../lib/gcc/nios2-elf/4.1.2\libgcc.a(_usi_to_df.o)
                              obj/default/dm9000a.o (__floatunsidf)
c:/altera/13.0/nios2eds/bin/gnu/h-i686-mingw32/bin/../lib/gcc/nios2-elf/4.1.2\libgcc.a(lib2-divmod.o)
                              obj/default/srec_flash.o (__divsi3)
c:/altera/13.0/nios2eds/bin/gnu/h-i686-mingw32/bin/../lib/gcc/nios2-elf/4.1.2\libgcc.a(_muldi3.o)
                              c:/altera/13.0/nios2eds/bin/gnu/h-i686-mingw32/bin/../lib/gcc/nios2-elf/4.1.2\libgcc.a(_mul_df.o) (__muldi3)
c:/altera/13.0/nios2eds/bin/gnu/h-i686-mingw32/bin/../lib/gcc/nios2-elf/4.1.2\libgcc.a(_clzsi2.o)
                              c:/altera/13.0/nios2eds/bin/gnu/h-i686-mingw32/bin/../lib/gcc/nios2-elf/4.1.2\libgcc.a(_usi_to_df.o) (__clzsi2)
c:/altera/13.0/nios2eds/bin/gnu/h-i686-mingw32/bin/../lib/gcc/nios2-elf/4.1.2\libgcc.a(_pack_df.o)
                              c:/altera/13.0/nios2eds/bin/gnu/h-i686-mingw32/bin/../lib/gcc/nios2-elf/4.1.2\libgcc.a(_addsub_df.o) (__pack_d)
c:/altera/13.0/nios2eds/bin/gnu/h-i686-mingw32/bin/../lib/gcc/nios2-elf/4.1.2\libgcc.a(_unpack_df.o)
                              c:/altera/13.0/nios2eds/bin/gnu/h-i686-mingw32/bin/../lib/gcc/nios2-elf/4.1.2\libgcc.a(_addsub_df.o) (__unpack_d)
c:/altera/13.0/nios2eds/bin/gnu/h-i686-mingw32/bin/../lib/gcc/nios2-elf/4.1.2\libgcc.a(_fpcmp_parts_df.o)
                              c:/altera/13.0/nios2eds/bin/gnu/h-i686-mingw32/bin/../lib/gcc/nios2-elf/4.1.2\libgcc.a(_ge_df.o) (__fpcmp_parts_d)
c:/altera/13.0/nios2eds/bin/gnu/h-i686-mingw32/bin/../lib/gcc/nios2-elf/4.1.2\libgcc.a(_clz.o)
                              c:/altera/13.0/nios2eds/bin/gnu/h-i686-mingw32/bin/../lib/gcc/nios2-elf/4.1.2\libgcc.a(_clzsi2.o) (__clz_tab)
c:/altera/13.0/nios2eds/bin/gnu/h-i686-mingw32/bin/../lib/gcc/nios2-elf/4.1.2/../../../../nios2-elf/lib\libc.a(lib_a-atoi.o)
                              obj/default/http.o (atoi)
c:/altera/13.0/nios2eds/bin/gnu/h-i686-mingw32/bin/../lib/gcc/nios2-elf/4.1.2/../../../../nios2-elf/lib\libc.a(lib_a-ctype_.o)
                              obj/default/http.o (__ctype_ptr)
c:/altera/13.0/nios2eds/bin/gnu/h-i686-mingw32/bin/../lib/gcc/nios2-elf/4.1.2/../../../../nios2-elf/lib\libc.a(lib_a-fclose.o)
                              obj/default/http.o (fclose)
c:/altera/13.0/nios2eds/bin/gnu/h-i686-mingw32/bin/../lib/gcc/nios2-elf/4.1.2/../../../../nios2-elf/lib\libc.a(lib_a-fflush.o)
                              c:/altera/13.0/nios2eds/bin/gnu/h-i686-mingw32/bin/../lib/gcc/nios2-elf/4.1.2/../../../../nios2-elf/lib\libc.a(lib_a-fclose.o) (_fflush_r)
c:/altera/13.0/nios2eds/bin/gnu/h-i686-mingw32/bin/../lib/gcc/nios2-elf/4.1.2/../../../../nios2-elf/lib\libc.a(lib_a-fgetpos.o)
                              obj/default/http.o (fgetpos)
c:/altera/13.0/nios2eds/bin/gnu/h-i686-mingw32/bin/../lib/gcc/nios2-elf/4.1.2/../../../../nios2-elf/lib\libc.a(lib_a-findfp.o)
                              c:/altera/13.0/nios2eds/bin/gnu/h-i686-mingw32/bin/../lib/gcc/nios2-elf/4.1.2/../../../../nios2-elf/lib\libc.a(lib_a-fclose.o) (__sfp_lock_acquire)
c:/altera/13.0/nios2eds/bin/gnu/h-i686-mingw32/bin/../lib/gcc/nios2-elf/4.1.2/../../../../nios2-elf/lib\libc.a(lib_a-fopen.o)
                              obj/default/http.o (fopen)
c:/altera/13.0/nios2eds/bin/gnu/h-i686-mingw32/bin/../lib/gcc/nios2-elf/4.1.2/../../../../nios2-elf/lib\libc.a(lib_a-fprintf.o)
                              obj/default/alt_error_handler.o (fprintf)
c:/altera/13.0/nios2eds/bin/gnu/h-i686-mingw32/bin/../lib/gcc/nios2-elf/4.1.2/../../../../nios2-elf/lib\libc.a(lib_a-fread.o)
                              obj/default/http.o (fread)
c:/altera/13.0/nios2eds/bin/gnu/h-i686-mingw32/bin/../lib/gcc/nios2-elf/4.1.2/../../../../nios2-elf/lib\libc.a(lib_a-freer.o)
                              c:/altera/13.0/nios2eds/bin/gnu/h-i686-mingw32/bin/../lib/gcc/nios2-elf/4.1.2/../../../../nios2-elf/lib\libc.a(lib_a-fclose.o) (_free_r)
c:/altera/13.0/nios2eds/bin/gnu/h-i686-mingw32/bin/../lib/gcc/nios2-elf/4.1.2/../../../../nios2-elf/lib\libc.a(lib_a-fseek.o)
                              c:/altera/13.0/nios2eds/bin/gnu/h-i686-mingw32/bin/../lib/gcc/nios2-elf/4.1.2/../../../../nios2-elf/lib\libc.a(lib_a-fopen.o) (_fseek_r)
c:/altera/13.0/nios2eds/bin/gnu/h-i686-mingw32/bin/../lib/gcc/nios2-elf/4.1.2/../../../../nios2-elf/lib\libc.a(lib_a-fstatr.o)
                              c:/altera/13.0/nios2eds/bin/gnu/h-i686-mingw32/bin/../lib/gcc/nios2-elf/4.1.2/../../../../nios2-elf/lib\libc.a(lib_a-fseek.o) (_fstat_r)
c:/altera/13.0/nios2eds/bin/gnu/h-i686-mingw32/bin/../lib/gcc/nios2-elf/4.1.2/../../../../nios2-elf/lib\libc.a(lib_a-ftell.o)
                              c:/altera/13.0/nios2eds/bin/gnu/h-i686-mingw32/bin/../lib/gcc/nios2-elf/4.1.2/../../../../nios2-elf/lib\libc.a(lib_a-fgetpos.o) (_ftell_r)
c:/altera/13.0/nios2eds/bin/gnu/h-i686-mingw32/bin/../lib/gcc/nios2-elf/4.1.2/../../../../nios2-elf/lib\libc.a(lib_a-fwalk.o)
                              c:/altera/13.0/nios2eds/bin/gnu/h-i686-mingw32/bin/../lib/gcc/nios2-elf/4.1.2/../../../../nios2-elf/lib\libc.a(lib_a-fflush.o) (_fwalk_reent)
c:/altera/13.0/nios2eds/bin/gnu/h-i686-mingw32/bin/../lib/gcc/nios2-elf/4.1.2/../../../../nios2-elf/lib\libc.a(lib_a-fwrite.o)
                              obj/default/alt_error_handler.o (fwrite)
c:/altera/13.0/nios2eds/bin/gnu/h-i686-mingw32/bin/../lib/gcc/nios2-elf/4.1.2/../../../../nios2-elf/lib\libc.a(lib_a-getc.o)
                              obj/default/network_utilities.o (getc)
c:/altera/13.0/nios2eds/bin/gnu/h-i686-mingw32/bin/../lib/gcc/nios2-elf/4.1.2/../../../../nios2-elf/lib\libc.a(lib_a-impure.o)
                              obj/default/alt_error_handler.o (_impure_ptr)
c:/altera/13.0/nios2eds/bin/gnu/h-i686-mingw32/bin/../lib/gcc/nios2-elf/4.1.2/../../../../nios2-elf/lib\libc.a(lib_a-int_errno.o)
                              c:/altera/13.0/nios2eds/bin/gnu/h-i686-mingw32/bin/../lib/gcc/nios2-elf/4.1.2/../../../../nios2-elf/lib\libc.a(lib_a-fstatr.o) (errno)
c:/altera/13.0/nios2eds/bin/gnu/h-i686-mingw32/bin/../lib/gcc/nios2-elf/4.1.2/../../../../nios2-elf/lib\libc.a(lib_a-makebuf.o)
                              c:/altera/13.0/nios2eds/bin/gnu/h-i686-mingw32/bin/../lib/gcc/nios2-elf/4.1.2/../../../../nios2-elf/lib\libc.a(lib_a-fseek.o) (__smakebuf_r)
c:/altera/13.0/nios2eds/bin/gnu/h-i686-mingw32/bin/../lib/gcc/nios2-elf/4.1.2/../../../../nios2-elf/lib\libc.a(lib_a-mallocr.o)
                              c:/altera/13.0/nios2eds/bin/gnu/h-i686-mingw32/bin/../lib/gcc/nios2-elf/4.1.2/../../../../nios2-elf/lib\libc.a(lib_a-findfp.o) (_malloc_r)
c:/altera/13.0/nios2eds/bin/gnu/h-i686-mingw32/bin/../lib/gcc/nios2-elf/4.1.2/../../../../nios2-elf/lib\libc.a(lib_a-memcpy.o)
                              obj/default/http.o (memcpy)
c:/altera/13.0/nios2eds/bin/gnu/h-i686-mingw32/bin/../lib/gcc/nios2-elf/4.1.2/../../../../nios2-elf/lib\libc.a(lib_a-memmove.o)
                              obj/default/http.o (memmove)
c:/altera/13.0/nios2eds/bin/gnu/h-i686-mingw32/bin/../lib/gcc/nios2-elf/4.1.2/../../../../nios2-elf/lib\libc.a(lib_a-memset.o)
                              obj/default/http.o (memset)
c:/altera/13.0/nios2eds/bin/gnu/h-i686-mingw32/bin/../lib/gcc/nios2-elf/4.1.2/../../../../nios2-elf/lib\libc.a(lib_a-openr.o)
                              c:/altera/13.0/nios2eds/bin/gnu/h-i686-mingw32/bin/../lib/gcc/nios2-elf/4.1.2/../../../../nios2-elf/lib\libc.a(lib_a-fopen.o) (_open_r)
c:/altera/13.0/nios2eds/bin/gnu/h-i686-mingw32/bin/../lib/gcc/nios2-elf/4.1.2/../../../../nios2-elf/lib\libc.a(lib_a-perror.o)
                              obj/default/alt_error_handler.o (perror)
c:/altera/13.0/nios2eds/bin/gnu/h-i686-mingw32/bin/../lib/gcc/nios2-elf/4.1.2/../../../../nios2-elf/lib\libc.a(lib_a-printf.o)
                              obj/default/alt_error_handler.o (printf)
c:/altera/13.0/nios2eds/bin/gnu/h-i686-mingw32/bin/../lib/gcc/nios2-elf/4.1.2/../../../../nios2-elf/lib\libc.a(lib_a-putc.o)
                              obj/default/network_utilities.o (putc)
c:/altera/13.0/nios2eds/bin/gnu/h-i686-mingw32/bin/../lib/gcc/nios2-elf/4.1.2/../../../../nios2-elf/lib\libc.a(lib_a-putchar.o)
                              obj/default/network_utilities.o (putchar)
c:/altera/13.0/nios2eds/bin/gnu/h-i686-mingw32/bin/../lib/gcc/nios2-elf/4.1.2/../../../../nios2-elf/lib\libc.a(lib_a-puts.o)
                              obj/default/alt_error_handler.o (puts)
c:/altera/13.0/nios2eds/bin/gnu/h-i686-mingw32/bin/../lib/gcc/nios2-elf/4.1.2/../../../../nios2-elf/lib\libc.a(lib_a-refill.o)
                              c:/altera/13.0/nios2eds/bin/gnu/h-i686-mingw32/bin/../lib/gcc/nios2-elf/4.1.2/../../../../nios2-elf/lib\libc.a(lib_a-fread.o) (__srefill_r)
c:/altera/13.0/nios2eds/bin/gnu/h-i686-mingw32/bin/../lib/gcc/nios2-elf/4.1.2/../../../../nios2-elf/lib\libc.a(lib_a-rget.o)
                              c:/altera/13.0/nios2eds/bin/gnu/h-i686-mingw32/bin/../lib/gcc/nios2-elf/4.1.2/../../../../nios2-elf/lib\libc.a(lib_a-getc.o) (__srget_r)
c:/altera/13.0/nios2eds/bin/gnu/h-i686-mingw32/bin/../lib/gcc/nios2-elf/4.1.2/../../../../nios2-elf/lib\libc.a(lib_a-sbrkr.o)
                              c:/altera/13.0/nios2eds/bin/gnu/h-i686-mingw32/bin/../lib/gcc/nios2-elf/4.1.2/../../../../nios2-elf/lib\libc.a(lib_a-freer.o) (_sbrk_r)
c:/altera/13.0/nios2eds/bin/gnu/h-i686-mingw32/bin/../lib/gcc/nios2-elf/4.1.2/../../../../nios2-elf/lib\libc.a(lib_a-sprintf.o)
                              obj/default/http.o (sprintf)
c:/altera/13.0/nios2eds/bin/gnu/h-i686-mingw32/bin/../lib/gcc/nios2-elf/4.1.2/../../../../nios2-elf/lib\libc.a(lib_a-sscanf.o)
                              obj/default/srec_flash.o (sscanf)
c:/altera/13.0/nios2eds/bin/gnu/h-i686-mingw32/bin/../lib/gcc/nios2-elf/4.1.2/../../../../nios2-elf/lib\libc.a(lib_a-stdio.o)
                              c:/altera/13.0/nios2eds/bin/gnu/h-i686-mingw32/bin/../lib/gcc/nios2-elf/4.1.2/../../../../nios2-elf/lib\libc.a(lib_a-findfp.o) (__sclose)
c:/altera/13.0/nios2eds/bin/gnu/h-i686-mingw32/bin/../lib/gcc/nios2-elf/4.1.2/../../../../nios2-elf/lib\libc.a(lib_a-strcasecmp.o)
                              obj/default/http.o (strcasecmp)
c:/altera/13.0/nios2eds/bin/gnu/h-i686-mingw32/bin/../lib/gcc/nios2-elf/4.1.2/../../../../nios2-elf/lib\libc.a(lib_a-strcat.o)
                              obj/default/srec_flash.o (strcat)
c:/altera/13.0/nios2eds/bin/gnu/h-i686-mingw32/bin/../lib/gcc/nios2-elf/4.1.2/../../../../nios2-elf/lib\libc.a(lib_a-strchr.o)
                              obj/default/http.o (strchr)
c:/altera/13.0/nios2eds/bin/gnu/h-i686-mingw32/bin/../lib/gcc/nios2-elf/4.1.2/../../../../nios2-elf/lib\libc.a(lib_a-strcmp.o)
                              obj/default/http.o (strcmp)
c:/altera/13.0/nios2eds/bin/gnu/h-i686-mingw32/bin/../lib/gcc/nios2-elf/4.1.2/../../../../nios2-elf/lib\libc.a(lib_a-strcpy.o)
                              obj/default/http.o (strcpy)
c:/altera/13.0/nios2eds/bin/gnu/h-i686-mingw32/bin/../lib/gcc/nios2-elf/4.1.2/../../../../nios2-elf/lib\libc.a(lib_a-strerror.o)
                              c:/altera/13.0/nios2eds/bin/gnu/h-i686-mingw32/bin/../lib/gcc/nios2-elf/4.1.2/../../../../nios2-elf/lib\libc.a(lib_a-perror.o) (strerror)
c:/altera/13.0/nios2eds/bin/gnu/h-i686-mingw32/bin/../lib/gcc/nios2-elf/4.1.2/../../../../nios2-elf/lib\libc.a(lib_a-strlen.o)
                              obj/default/http.o (strlen)
c:/altera/13.0/nios2eds/bin/gnu/h-i686-mingw32/bin/../lib/gcc/nios2-elf/4.1.2/../../../../nios2-elf/lib\libc.a(lib_a-strncmp.o)
                              obj/default/http.o (strncmp)
c:/altera/13.0/nios2eds/bin/gnu/h-i686-mingw32/bin/../lib/gcc/nios2-elf/4.1.2/../../../../nios2-elf/lib\libc.a(lib_a-strncpy.o)
                              obj/default/http.o (strncpy)
c:/altera/13.0/nios2eds/bin/gnu/h-i686-mingw32/bin/../lib/gcc/nios2-elf/4.1.2/../../../../nios2-elf/lib\libc.a(lib_a-strstr.o)
                              obj/default/http.o (strstr)
c:/altera/13.0/nios2eds/bin/gnu/h-i686-mingw32/bin/../lib/gcc/nios2-elf/4.1.2/../../../../nios2-elf/lib\libc.a(lib_a-strtok.o)
                              obj/default/http.o (strtok)
c:/altera/13.0/nios2eds/bin/gnu/h-i686-mingw32/bin/../lib/gcc/nios2-elf/4.1.2/../../../../nios2-elf/lib\libc.a(lib_a-strtok_r.o)
                              c:/altera/13.0/nios2eds/bin/gnu/h-i686-mingw32/bin/../lib/gcc/nios2-elf/4.1.2/../../../../nios2-elf/lib\libc.a(lib_a-strtok.o) (__strtok_r)
c:/altera/13.0/nios2eds/bin/gnu/h-i686-mingw32/bin/../lib/gcc/nios2-elf/4.1.2/../../../../nios2-elf/lib\libc.a(lib_a-strtol.o)
                              c:/altera/13.0/nios2eds/bin/gnu/h-i686-mingw32/bin/../lib/gcc/nios2-elf/4.1.2/../../../../nios2-elf/lib\libc.a(lib_a-atoi.o) (_strtol_r)
c:/altera/13.0/nios2eds/bin/gnu/h-i686-mingw32/bin/../lib/gcc/nios2-elf/4.1.2/../../../../nios2-elf/lib\libc.a(lib_a-u_strerr.o)
                              c:/altera/13.0/nios2eds/bin/gnu/h-i686-mingw32/bin/../lib/gcc/nios2-elf/4.1.2/../../../../nios2-elf/lib\libc.a(lib_a-strerror.o) (_user_strerror)
c:/altera/13.0/nios2eds/bin/gnu/h-i686-mingw32/bin/../lib/gcc/nios2-elf/4.1.2/../../../../nios2-elf/lib\libc.a(lib_a-vfprintf.o)
                              c:/altera/13.0/nios2eds/bin/gnu/h-i686-mingw32/bin/../lib/gcc/nios2-elf/4.1.2/../../../../nios2-elf/lib\libc.a(lib_a-printf.o) (___vfprintf_internal_r)
c:/altera/13.0/nios2eds/bin/gnu/h-i686-mingw32/bin/../lib/gcc/nios2-elf/4.1.2/../../../../nios2-elf/lib\libc.a(lib_a-vfscanf.o)
                              c:/altera/13.0/nios2eds/bin/gnu/h-i686-mingw32/bin/../lib/gcc/nios2-elf/4.1.2/../../../../nios2-elf/lib\libc.a(lib_a-sscanf.o) (__svfscanf_r)
c:/altera/13.0/nios2eds/bin/gnu/h-i686-mingw32/bin/../lib/gcc/nios2-elf/4.1.2/../../../../nios2-elf/lib\libc.a(lib_a-wbuf.o)
                              c:/altera/13.0/nios2eds/bin/gnu/h-i686-mingw32/bin/../lib/gcc/nios2-elf/4.1.2/../../../../nios2-elf/lib\libc.a(lib_a-putc.o) (__swbuf_r)
c:/altera/13.0/nios2eds/bin/gnu/h-i686-mingw32/bin/../lib/gcc/nios2-elf/4.1.2/../../../../nios2-elf/lib\libc.a(lib_a-writer.o)
                              c:/altera/13.0/nios2eds/bin/gnu/h-i686-mingw32/bin/../lib/gcc/nios2-elf/4.1.2/../../../../nios2-elf/lib\libc.a(lib_a-stdio.o) (_write_r)
c:/altera/13.0/nios2eds/bin/gnu/h-i686-mingw32/bin/../lib/gcc/nios2-elf/4.1.2/../../../../nios2-elf/lib\libc.a(lib_a-wsetup.o)
                              c:/altera/13.0/nios2eds/bin/gnu/h-i686-mingw32/bin/../lib/gcc/nios2-elf/4.1.2/../../../../nios2-elf/lib\libc.a(lib_a-vfprintf.o) (__swsetup_r)
c:/altera/13.0/nios2eds/bin/gnu/h-i686-mingw32/bin/../lib/gcc/nios2-elf/4.1.2/../../../../nios2-elf/lib\libc.a(lib_a-closer.o)
                              c:/altera/13.0/nios2eds/bin/gnu/h-i686-mingw32/bin/../lib/gcc/nios2-elf/4.1.2/../../../../nios2-elf/lib\libc.a(lib_a-stdio.o) (_close_r)
c:/altera/13.0/nios2eds/bin/gnu/h-i686-mingw32/bin/../lib/gcc/nios2-elf/4.1.2/../../../../nios2-elf/lib\libc.a(lib_a-dtoa.o)
                              c:/altera/13.0/nios2eds/bin/gnu/h-i686-mingw32/bin/../lib/gcc/nios2-elf/4.1.2/../../../../nios2-elf/lib\libc.a(lib_a-vfprintf.o) (_dtoa_r)
c:/altera/13.0/nios2eds/bin/gnu/h-i686-mingw32/bin/../lib/gcc/nios2-elf/4.1.2/../../../../nios2-elf/lib\libc.a(lib_a-flags.o)
                              c:/altera/13.0/nios2eds/bin/gnu/h-i686-mingw32/bin/../lib/gcc/nios2-elf/4.1.2/../../../../nios2-elf/lib\libc.a(lib_a-fopen.o) (__sflags)
c:/altera/13.0/nios2eds/bin/gnu/h-i686-mingw32/bin/../lib/gcc/nios2-elf/4.1.2/../../../../nios2-elf/lib\libc.a(lib_a-fputc.o)
                              c:/altera/13.0/nios2eds/bin/gnu/h-i686-mingw32/bin/../lib/gcc/nios2-elf/4.1.2/../../../../nios2-elf/lib\libc.a(lib_a-perror.o) (fputc)
c:/altera/13.0/nios2eds/bin/gnu/h-i686-mingw32/bin/../lib/gcc/nios2-elf/4.1.2/../../../../nios2-elf/lib\libc.a(lib_a-fputs.o)
                              c:/altera/13.0/nios2eds/bin/gnu/h-i686-mingw32/bin/../lib/gcc/nios2-elf/4.1.2/../../../../nios2-elf/lib\libc.a(lib_a-perror.o) (fputs)
c:/altera/13.0/nios2eds/bin/gnu/h-i686-mingw32/bin/../lib/gcc/nios2-elf/4.1.2/../../../../nios2-elf/lib\libc.a(lib_a-fvwrite.o)
                              c:/altera/13.0/nios2eds/bin/gnu/h-i686-mingw32/bin/../lib/gcc/nios2-elf/4.1.2/../../../../nios2-elf/lib\libc.a(lib_a-fwrite.o) (__sfvwrite_r)
c:/altera/13.0/nios2eds/bin/gnu/h-i686-mingw32/bin/../lib/gcc/nios2-elf/4.1.2/../../../../nios2-elf/lib\libc.a(lib_a-isattyr.o)
                              c:/altera/13.0/nios2eds/bin/gnu/h-i686-mingw32/bin/../lib/gcc/nios2-elf/4.1.2/../../../../nios2-elf/lib\libc.a(lib_a-makebuf.o) (_isatty_r)
c:/altera/13.0/nios2eds/bin/gnu/h-i686-mingw32/bin/../lib/gcc/nios2-elf/4.1.2/../../../../nios2-elf/lib\libc.a(lib_a-iswspace.o)
                              c:/altera/13.0/nios2eds/bin/gnu/h-i686-mingw32/bin/../lib/gcc/nios2-elf/4.1.2/../../../../nios2-elf/lib\libc.a(lib_a-vfscanf.o) (iswspace)
c:/altera/13.0/nios2eds/bin/gnu/h-i686-mingw32/bin/../lib/gcc/nios2-elf/4.1.2/../../../../nios2-elf/lib\libc.a(lib_a-locale.o)
                              c:/altera/13.0/nios2eds/bin/gnu/h-i686-mingw32/bin/../lib/gcc/nios2-elf/4.1.2/../../../../nios2-elf/lib\libc.a(lib_a-vfprintf.o) (_localeconv_r)
c:/altera/13.0/nios2eds/bin/gnu/h-i686-mingw32/bin/../lib/gcc/nios2-elf/4.1.2/../../../../nios2-elf/lib\libc.a(lib_a-lseekr.o)
                              c:/altera/13.0/nios2eds/bin/gnu/h-i686-mingw32/bin/../lib/gcc/nios2-elf/4.1.2/../../../../nios2-elf/lib\libc.a(lib_a-stdio.o) (_lseek_r)
c:/altera/13.0/nios2eds/bin/gnu/h-i686-mingw32/bin/../lib/gcc/nios2-elf/4.1.2/../../../../nios2-elf/lib\libc.a(lib_a-mbrtowc.o)
                              c:/altera/13.0/nios2eds/bin/gnu/h-i686-mingw32/bin/../lib/gcc/nios2-elf/4.1.2/../../../../nios2-elf/lib\libc.a(lib_a-vfscanf.o) (_mbrtowc_r)
c:/altera/13.0/nios2eds/bin/gnu/h-i686-mingw32/bin/../lib/gcc/nios2-elf/4.1.2/../../../../nios2-elf/lib\libc.a(lib_a-mbtowc_r.o)
                              c:/altera/13.0/nios2eds/bin/gnu/h-i686-mingw32/bin/../lib/gcc/nios2-elf/4.1.2/../../../../nios2-elf/lib\libc.a(lib_a-mbrtowc.o) (_mbtowc_r)
c:/altera/13.0/nios2eds/bin/gnu/h-i686-mingw32/bin/../lib/gcc/nios2-elf/4.1.2/../../../../nios2-elf/lib\libc.a(lib_a-memchr.o)
                              c:/altera/13.0/nios2eds/bin/gnu/h-i686-mingw32/bin/../lib/gcc/nios2-elf/4.1.2/../../../../nios2-elf/lib\libc.a(lib_a-strstr.o) (memchr)
c:/altera/13.0/nios2eds/bin/gnu/h-i686-mingw32/bin/../lib/gcc/nios2-elf/4.1.2/../../../../nios2-elf/lib\libc.a(lib_a-memcmp.o)
                              c:/altera/13.0/nios2eds/bin/gnu/h-i686-mingw32/bin/../lib/gcc/nios2-elf/4.1.2/../../../../nios2-elf/lib\libc.a(lib_a-strstr.o) (memcmp)
c:/altera/13.0/nios2eds/bin/gnu/h-i686-mingw32/bin/../lib/gcc/nios2-elf/4.1.2/../../../../nios2-elf/lib\libc.a(lib_a-mprec.o)
                              c:/altera/13.0/nios2eds/bin/gnu/h-i686-mingw32/bin/../lib/gcc/nios2-elf/4.1.2/../../../../nios2-elf/lib\libc.a(lib_a-dtoa.o) (_Bfree)
c:/altera/13.0/nios2eds/bin/gnu/h-i686-mingw32/bin/../lib/gcc/nios2-elf/4.1.2/../../../../nios2-elf/lib\libc.a(lib_a-readr.o)
                              c:/altera/13.0/nios2eds/bin/gnu/h-i686-mingw32/bin/../lib/gcc/nios2-elf/4.1.2/../../../../nios2-elf/lib\libc.a(lib_a-stdio.o) (_read_r)
c:/altera/13.0/nios2eds/bin/gnu/h-i686-mingw32/bin/../lib/gcc/nios2-elf/4.1.2/../../../../nios2-elf/lib\libc.a(lib_a-reallocr.o)
                              c:/altera/13.0/nios2eds/bin/gnu/h-i686-mingw32/bin/../lib/gcc/nios2-elf/4.1.2/../../../../nios2-elf/lib\libc.a(lib_a-fvwrite.o) (_realloc_r)
c:/altera/13.0/nios2eds/bin/gnu/h-i686-mingw32/bin/../lib/gcc/nios2-elf/4.1.2/../../../../nios2-elf/lib\libc.a(lib_a-s_isinfd.o)
                              c:/altera/13.0/nios2eds/bin/gnu/h-i686-mingw32/bin/../lib/gcc/nios2-elf/4.1.2/../../../../nios2-elf/lib\libc.a(lib_a-vfprintf.o) (__isinfd)
c:/altera/13.0/nios2eds/bin/gnu/h-i686-mingw32/bin/../lib/gcc/nios2-elf/4.1.2/../../../../nios2-elf/lib\libc.a(lib_a-s_isnand.o)
                              c:/altera/13.0/nios2eds/bin/gnu/h-i686-mingw32/bin/../lib/gcc/nios2-elf/4.1.2/../../../../nios2-elf/lib\libc.a(lib_a-vfprintf.o) (__isnand)
c:/altera/13.0/nios2eds/bin/gnu/h-i686-mingw32/bin/../lib/gcc/nios2-elf/4.1.2/../../../../nios2-elf/lib\libc.a(lib_a-sccl.o)
                              c:/altera/13.0/nios2eds/bin/gnu/h-i686-mingw32/bin/../lib/gcc/nios2-elf/4.1.2/../../../../nios2-elf/lib\libc.a(lib_a-vfscanf.o) (__sccl)
c:/altera/13.0/nios2eds/bin/gnu/h-i686-mingw32/bin/../lib/gcc/nios2-elf/4.1.2/../../../../nios2-elf/lib\libc.a(lib_a-sf_nan.o)
                              c:/altera/13.0/nios2eds/bin/gnu/h-i686-mingw32/bin/../lib/gcc/nios2-elf/4.1.2/../../../../nios2-elf/lib\libc.a(lib_a-vfscanf.o) (nanf)
c:/altera/13.0/nios2eds/bin/gnu/h-i686-mingw32/bin/../lib/gcc/nios2-elf/4.1.2/../../../../nios2-elf/lib\libc.a(lib_a-strtod.o)
                              c:/altera/13.0/nios2eds/bin/gnu/h-i686-mingw32/bin/../lib/gcc/nios2-elf/4.1.2/../../../../nios2-elf/lib\libc.a(lib_a-vfscanf.o) (_strtod_r)
c:/altera/13.0/nios2eds/bin/gnu/h-i686-mingw32/bin/../lib/gcc/nios2-elf/4.1.2/../../../../nios2-elf/lib\libc.a(lib_a-strtoll_r.o)
                              c:/altera/13.0/nios2eds/bin/gnu/h-i686-mingw32/bin/../lib/gcc/nios2-elf/4.1.2/../../../../nios2-elf/lib\libc.a(lib_a-vfscanf.o) (_strtoll_r)
c:/altera/13.0/nios2eds/bin/gnu/h-i686-mingw32/bin/../lib/gcc/nios2-elf/4.1.2/../../../../nios2-elf/lib\libc.a(lib_a-strtoul.o)
                              c:/altera/13.0/nios2eds/bin/gnu/h-i686-mingw32/bin/../lib/gcc/nios2-elf/4.1.2/../../../../nios2-elf/lib\libc.a(lib_a-vfscanf.o) (_strtoul_r)
c:/altera/13.0/nios2eds/bin/gnu/h-i686-mingw32/bin/../lib/gcc/nios2-elf/4.1.2/../../../../nios2-elf/lib\libc.a(lib_a-strtoull_r.o)
                              c:/altera/13.0/nios2eds/bin/gnu/h-i686-mingw32/bin/../lib/gcc/nios2-elf/4.1.2/../../../../nios2-elf/lib\libc.a(lib_a-vfscanf.o) (_strtoull_r)
c:/altera/13.0/nios2eds/bin/gnu/h-i686-mingw32/bin/../lib/gcc/nios2-elf/4.1.2/../../../../nios2-elf/lib\libc.a(lib_a-ungetc.o)
                              c:/altera/13.0/nios2eds/bin/gnu/h-i686-mingw32/bin/../lib/gcc/nios2-elf/4.1.2/../../../../nios2-elf/lib\libc.a(lib_a-vfscanf.o) (_ungetc_r)
c:/altera/13.0/nios2eds/bin/gnu/h-i686-mingw32/bin/../lib/gcc/nios2-elf/4.1.2/../../../../nios2-elf/lib\libc.a(lib_a-callocr.o)
                              c:/altera/13.0/nios2eds/bin/gnu/h-i686-mingw32/bin/../lib/gcc/nios2-elf/4.1.2/../../../../nios2-elf/lib\libc.a(lib_a-mprec.o) (_calloc_r)
c:/altera/13.0/nios2eds/bin/gnu/h-i686-mingw32/bin/../lib/gcc/nios2-elf/4.1.2/../../../../nios2-elf/lib\libc.a(lib_a-gdtoa-gethex.o)
                              c:/altera/13.0/nios2eds/bin/gnu/h-i686-mingw32/bin/../lib/gcc/nios2-elf/4.1.2/../../../../nios2-elf/lib\libc.a(lib_a-strtod.o) (__gethex)
c:/altera/13.0/nios2eds/bin/gnu/h-i686-mingw32/bin/../lib/gcc/nios2-elf/4.1.2/../../../../nios2-elf/lib\libc.a(lib_a-gdtoa-hexnan.o)
                              c:/altera/13.0/nios2eds/bin/gnu/h-i686-mingw32/bin/../lib/gcc/nios2-elf/4.1.2/../../../../nios2-elf/lib\libc.a(lib_a-strtod.o) (__hexnan)
c:/altera/13.0/nios2eds/bin/gnu/h-i686-mingw32/bin/../lib/gcc/nios2-elf/4.1.2\libgcc.a(_udivdi3.o)
                              c:/altera/13.0/nios2eds/bin/gnu/h-i686-mingw32/bin/../lib/gcc/nios2-elf/4.1.2/../../../../nios2-elf/lib\libc.a(lib_a-vfprintf.o) (__udivdi3)
c:/altera/13.0/nios2eds/bin/gnu/h-i686-mingw32/bin/../lib/gcc/nios2-elf/4.1.2\libgcc.a(_umoddi3.o)
                              c:/altera/13.0/nios2eds/bin/gnu/h-i686-mingw32/bin/../lib/gcc/nios2-elf/4.1.2/../../../../nios2-elf/lib\libc.a(lib_a-vfprintf.o) (__umoddi3)
c:/altera/13.0/nios2eds/bin/gnu/h-i686-mingw32/bin/../lib/gcc/nios2-elf/4.1.2\libgcc.a(_ne_sf.o)
                              c:/altera/13.0/nios2eds/bin/gnu/h-i686-mingw32/bin/../lib/gcc/nios2-elf/4.1.2/../../../../nios2-elf/lib\libc.a(lib_a-strtod.o) (__nesf2)
c:/altera/13.0/nios2eds/bin/gnu/h-i686-mingw32/bin/../lib/gcc/nios2-elf/4.1.2\libgcc.a(_gt_sf.o)
                              c:/altera/13.0/nios2eds/bin/gnu/h-i686-mingw32/bin/../lib/gcc/nios2-elf/4.1.2/../../../../nios2-elf/lib\libc.a(lib_a-strtod.o) (__gtsf2)
c:/altera/13.0/nios2eds/bin/gnu/h-i686-mingw32/bin/../lib/gcc/nios2-elf/4.1.2\libgcc.a(_lt_sf.o)
                              c:/altera/13.0/nios2eds/bin/gnu/h-i686-mingw32/bin/../lib/gcc/nios2-elf/4.1.2/../../../../nios2-elf/lib\libc.a(lib_a-strtod.o) (__ltsf2)
c:/altera/13.0/nios2eds/bin/gnu/h-i686-mingw32/bin/../lib/gcc/nios2-elf/4.1.2\libgcc.a(_div_df.o)
                              c:/altera/13.0/nios2eds/bin/gnu/h-i686-mingw32/bin/../lib/gcc/nios2-elf/4.1.2/../../../../nios2-elf/lib\libc.a(lib_a-dtoa.o) (__divdf3)
c:/altera/13.0/nios2eds/bin/gnu/h-i686-mingw32/bin/../lib/gcc/nios2-elf/4.1.2\libgcc.a(_eq_df.o)
                              c:/altera/13.0/nios2eds/bin/gnu/h-i686-mingw32/bin/../lib/gcc/nios2-elf/4.1.2/../../../../nios2-elf/lib\libc.a(lib_a-vfprintf.o) (__eqdf2)
c:/altera/13.0/nios2eds/bin/gnu/h-i686-mingw32/bin/../lib/gcc/nios2-elf/4.1.2\libgcc.a(_ne_df.o)
                              c:/altera/13.0/nios2eds/bin/gnu/h-i686-mingw32/bin/../lib/gcc/nios2-elf/4.1.2/../../../../nios2-elf/lib\libc.a(lib_a-vfprintf.o) (__nedf2)
c:/altera/13.0/nios2eds/bin/gnu/h-i686-mingw32/bin/../lib/gcc/nios2-elf/4.1.2\libgcc.a(_gt_df.o)
                              c:/altera/13.0/nios2eds/bin/gnu/h-i686-mingw32/bin/../lib/gcc/nios2-elf/4.1.2/../../../../nios2-elf/lib\libc.a(lib_a-dtoa.o) (__gtdf2)
c:/altera/13.0/nios2eds/bin/gnu/h-i686-mingw32/bin/../lib/gcc/nios2-elf/4.1.2\libgcc.a(_lt_df.o)
                              c:/altera/13.0/nios2eds/bin/gnu/h-i686-mingw32/bin/../lib/gcc/nios2-elf/4.1.2/../../../../nios2-elf/lib\libc.a(lib_a-vfprintf.o) (__ltdf2)
c:/altera/13.0/nios2eds/bin/gnu/h-i686-mingw32/bin/../lib/gcc/nios2-elf/4.1.2\libgcc.a(_le_df.o)
                              c:/altera/13.0/nios2eds/bin/gnu/h-i686-mingw32/bin/../lib/gcc/nios2-elf/4.1.2/../../../../nios2-elf/lib\libc.a(lib_a-strtod.o) (__ledf2)
c:/altera/13.0/nios2eds/bin/gnu/h-i686-mingw32/bin/../lib/gcc/nios2-elf/4.1.2\libgcc.a(_si_to_df.o)
                              c:/altera/13.0/nios2eds/bin/gnu/h-i686-mingw32/bin/../lib/gcc/nios2-elf/4.1.2/../../../../nios2-elf/lib\libc.a(lib_a-dtoa.o) (__floatsidf)
c:/altera/13.0/nios2eds/bin/gnu/h-i686-mingw32/bin/../lib/gcc/nios2-elf/4.1.2\libgcc.a(_df_to_sf.o)
                              c:/altera/13.0/nios2eds/bin/gnu/h-i686-mingw32/bin/../lib/gcc/nios2-elf/4.1.2/../../../../nios2-elf/lib\libc.a(lib_a-vfscanf.o) (__truncdfsf2)
c:/altera/13.0/nios2eds/bin/gnu/h-i686-mingw32/bin/../lib/gcc/nios2-elf/4.1.2\libgcc.a(_unpack_sf.o)
                              c:/altera/13.0/nios2eds/bin/gnu/h-i686-mingw32/bin/../lib/gcc/nios2-elf/4.1.2\libgcc.a(_ne_sf.o) (__unpack_f)
c:/altera/13.0/nios2eds/bin/gnu/h-i686-mingw32/bin/../lib/gcc/nios2-elf/4.1.2\libgcc.a(_fpcmp_parts_sf.o)
                              c:/altera/13.0/nios2eds/bin/gnu/h-i686-mingw32/bin/../lib/gcc/nios2-elf/4.1.2\libgcc.a(_ne_sf.o) (__fpcmp_parts_f)
c:/altera/13.0/nios2eds/bin/gnu/h-i686-mingw32/bin/../lib/gcc/nios2-elf/4.1.2\libgcc.a(_make_sf.o)
                              c:/altera/13.0/nios2eds/bin/gnu/h-i686-mingw32/bin/../lib/gcc/nios2-elf/4.1.2\libgcc.a(_df_to_sf.o) (__make_fp)
c:/altera/13.0/nios2eds/bin/gnu/h-i686-mingw32/bin/../lib/gcc/nios2-elf/4.1.2\libgcc.a(_pack_sf.o)
                              c:/altera/13.0/nios2eds/bin/gnu/h-i686-mingw32/bin/../lib/gcc/nios2-elf/4.1.2\libgcc.a(_make_sf.o) (__pack_f)
../WebServer_bsp/\libucosii_bsp.a(alt_dcache_flush.o)
                              obj/default/srec_flash.o (alt_dcache_flush)
../WebServer_bsp/\libucosii_bsp.a(alt_flash_dev.o)
                              obj/default/network_utilities.o (alt_flash_open_dev)
../WebServer_bsp/\libucosii_bsp.a(alt_fstat.o)
                              c:/altera/13.0/nios2eds/bin/gnu/h-i686-mingw32/bin/../lib/gcc/nios2-elf/4.1.2/../../../../nios2-elf/lib\libc.a(lib_a-fstatr.o) (fstat)
../WebServer_bsp/\libucosii_bsp.a(alt_irq_register.o)
                              obj/default/dm9000a.o (alt_irq_register)
../WebServer_bsp/\libucosii_bsp.a(alt_irq_vars.o)
                              ../WebServer_bsp/\libucosii_bsp.a(alt_irq_register.o) (alt_irq_active)
../WebServer_bsp/\libucosii_bsp.a(alt_isatty.o)
                              c:/altera/13.0/nios2eds/bin/gnu/h-i686-mingw32/bin/../lib/gcc/nios2-elf/4.1.2/../../../../nios2-elf/lib\libc.a(lib_a-isattyr.o) (isatty)
../WebServer_bsp/\libucosii_bsp.a(alt_lseek.o)
                              c:/altera/13.0/nios2eds/bin/gnu/h-i686-mingw32/bin/../lib/gcc/nios2-elf/4.1.2/../../../../nios2-elf/lib\libc.a(lib_a-lseekr.o) (lseek)
../WebServer_bsp/\libucosii_bsp.a(alt_main.o)
                              ../WebServer_bsp//obj/HAL/src/crt0.o (alt_main)
../WebServer_bsp/\libucosii_bsp.a(alt_open.o)
                              c:/altera/13.0/nios2eds/bin/gnu/h-i686-mingw32/bin/../lib/gcc/nios2-elf/4.1.2/../../../../nios2-elf/lib\libc.a(lib_a-openr.o) (open)
../WebServer_bsp/\libucosii_bsp.a(alt_release_fd.o)
                              ../WebServer_bsp/\libucosii_bsp.a(alt_open.o) (alt_release_fd)
../WebServer_bsp/\libucosii_bsp.a(alt_sbrk.o)
                              c:/altera/13.0/nios2eds/bin/gnu/h-i686-mingw32/bin/../lib/gcc/nios2-elf/4.1.2/../../../../nios2-elf/lib\libc.a(lib_a-sbrkr.o) (sbrk)
../WebServer_bsp/\libucosii_bsp.a(alt_tick.o)
                              obj/default/http.o (_alt_nticks)
../WebServer_bsp/\libucosii_bsp.a(alt_usleep.o)
                              obj/default/dm9000a.o (usleep)
../WebServer_bsp/\libucosii_bsp.a(alt_env_lock.o)
                              ../WebServer_bsp/\libucosii_bsp.a(alt_main.o) (alt_envsem)
../WebServer_bsp/\libucosii_bsp.a(alt_malloc_lock.o)
                              c:/altera/13.0/nios2eds/bin/gnu/h-i686-mingw32/bin/../lib/gcc/nios2-elf/4.1.2/../../../../nios2-elf/lib\libc.a(lib_a-freer.o) (__malloc_lock)
../WebServer_bsp/\libucosii_bsp.a(os_core.o)
                              ../WebServer_bsp/\libucosii_bsp.a(alt_main.o) (OSInit)
../WebServer_bsp/\libucosii_bsp.a(os_dbg.o)
                              ../WebServer_bsp/\libucosii_bsp.a(os_core.o) (OSDebugInit)
../WebServer_bsp/\libucosii_bsp.a(os_flag.o)
                              ../WebServer_bsp/\libucosii_bsp.a(os_core.o) (OS_FlagInit)
../WebServer_bsp/\libucosii_bsp.a(os_mbox.o)
                              obj/default/web_server.o (OSMboxCreate)
../WebServer_bsp/\libucosii_bsp.a(os_mem.o)
                              ../WebServer_bsp/\libucosii_bsp.a(os_core.o) (OS_MemInit)
../WebServer_bsp/\libucosii_bsp.a(os_q.o)
                              ../WebServer_bsp/\libucosii_bsp.a(os_core.o) (OS_QInit)
../WebServer_bsp/\libucosii_bsp.a(os_sem.o)
                              ../WebServer_bsp/\libucosii_bsp.a(alt_main.o) (OSSemCreate)
../WebServer_bsp/\libucosii_bsp.a(os_task.o)
                              obj/default/web_server.o (OSTaskCreateExt)
../WebServer_bsp/\libucosii_bsp.a(os_time.o)
                              obj/default/web_server.o (OSTimeDly)
../WebServer_bsp/\libucosii_bsp.a(alt_sys_init.o)
                              ../WebServer_bsp/\libucosii_bsp.a(alt_main.o) (alt_irq_init)
../WebServer_bsp/\libucosii_bsp.a(altera_avalon_cfi_flash.o)
                              ../WebServer_bsp/\libucosii_bsp.a(alt_sys_init.o) (alt_flash_cfi_init)
../WebServer_bsp/\libucosii_bsp.a(altera_avalon_cfi_flash_table.o)
                              ../WebServer_bsp/\libucosii_bsp.a(altera_avalon_cfi_flash.o) (alt_set_flash_width_func)
../WebServer_bsp/\libucosii_bsp.a(altera_avalon_epcs_flash_controller.o)
                              ../WebServer_bsp/\libucosii_bsp.a(alt_sys_init.o) (alt_epcs_flash_init)
../WebServer_bsp/\libucosii_bsp.a(altera_avalon_jtag_uart_fd.o)
                              ../WebServer_bsp/\libucosii_bsp.a(alt_sys_init.o) (altera_avalon_jtag_uart_read_fd)
../WebServer_bsp/\libucosii_bsp.a(altera_avalon_jtag_uart_init.o)
                              ../WebServer_bsp/\libucosii_bsp.a(alt_sys_init.o) (altera_avalon_jtag_uart_init)
../WebServer_bsp/\libucosii_bsp.a(altera_avalon_jtag_uart_ioctl.o)
                              ../WebServer_bsp/\libucosii_bsp.a(altera_avalon_jtag_uart_fd.o) (altera_avalon_jtag_uart_ioctl)
../WebServer_bsp/\libucosii_bsp.a(altera_avalon_jtag_uart_read.o)
                              ../WebServer_bsp/\libucosii_bsp.a(altera_avalon_jtag_uart_fd.o) (altera_avalon_jtag_uart_read)
../WebServer_bsp/\libucosii_bsp.a(altera_avalon_jtag_uart_write.o)
                              ../WebServer_bsp/\libucosii_bsp.a(altera_avalon_jtag_uart_fd.o) (altera_avalon_jtag_uart_write)
../WebServer_bsp/\libucosii_bsp.a(altera_avalon_lcd_16207.o)
                              ../WebServer_bsp/\libucosii_bsp.a(alt_sys_init.o) (altera_avalon_lcd_16207_init)
../WebServer_bsp/\libucosii_bsp.a(altera_avalon_lcd_16207_fd.o)
                              ../WebServer_bsp/\libucosii_bsp.a(alt_sys_init.o) (altera_avalon_lcd_16207_write_fd)
../WebServer_bsp/\libucosii_bsp.a(altera_avalon_timer_sc.o)
                              ../WebServer_bsp/\libucosii_bsp.a(alt_sys_init.o) (alt_avalon_timer_sc_init)
../WebServer_bsp/\libucosii_bsp.a(altera_avalon_uart_fd.o)
                              ../WebServer_bsp/\libucosii_bsp.a(alt_sys_init.o) (altera_avalon_uart_read_fd)
../WebServer_bsp/\libucosii_bsp.a(altera_avalon_uart_init.o)
                              ../WebServer_bsp/\libucosii_bsp.a(alt_sys_init.o) (altera_avalon_uart_init)
../WebServer_bsp/\libucosii_bsp.a(altera_avalon_uart_read.o)
                              ../WebServer_bsp/\libucosii_bsp.a(altera_avalon_uart_fd.o) (altera_avalon_uart_read)
../WebServer_bsp/\libucosii_bsp.a(altera_avalon_uart_write.o)
                              ../WebServer_bsp/\libucosii_bsp.a(altera_avalon_uart_fd.o) (altera_avalon_uart_write)
../WebServer_bsp/\libucosii_bsp.a(altera_ro_zipfs.o)
                              ../WebServer_bsp/\libucosii_bsp.a(alt_sys_init.o) (alt_ro_zipfs_open)
../WebServer_bsp/\libucosii_bsp.a(epcs_commands.o)
                              ../WebServer_bsp/\libucosii_bsp.a(altera_avalon_epcs_flash_controller.o) (epcs_sector_erase)
../WebServer_bsp/\libucosii_bsp.a(alt_iniche_close.o)
                              obj/default/http.o (close)
../WebServer_bsp/\libucosii_bsp.a(alt_iniche_dev.o)
                              obj/default/web_server.o (alt_iniche_dev_list)
../WebServer_bsp/\libucosii_bsp.a(alt_iniche_read.o)
                              c:/altera/13.0/nios2eds/bin/gnu/h-i686-mingw32/bin/../lib/gcc/nios2-elf/4.1.2/../../../../nios2-elf/lib\libc.a(lib_a-readr.o) (read)
../WebServer_bsp/\libucosii_bsp.a(alt_iniche_write.o)
                              c:/altera/13.0/nios2eds/bin/gnu/h-i686-mingw32/bin/../lib/gcc/nios2-elf/4.1.2/../../../../nios2-elf/lib\libc.a(lib_a-writer.o) (write)
../WebServer_bsp/\libucosii_bsp.a(ipnet.o)
                              obj/default/dm9000a.o (rcvdq)
../WebServer_bsp/\libucosii_bsp.a(ipstart.o)
                              ../WebServer_bsp/\libucosii_bsp.a(ipnet.o) (ifNumber)
../WebServer_bsp/\libucosii_bsp.a(igmp_cmn.o)
                              ../WebServer_bsp/\libucosii_bsp.a(ipstart.o) (igmp_init)
../WebServer_bsp/\libucosii_bsp.a(bsdsock.o)
                              obj/default/http.o (bsd_accept)
../WebServer_bsp/\libucosii_bsp.a(cksum.o)
                              ../WebServer_bsp/\libucosii_bsp.a(igmp_cmn.o) (cksum)
../WebServer_bsp/\libucosii_bsp.a(in_utils.o)
                              ../WebServer_bsp/\libucosii_bsp.a(igmp_cmn.o) (ns_printf)
../WebServer_bsp/\libucosii_bsp.a(netmain.o)
                              obj/default/web_server.o (iniche_net_ready)
../WebServer_bsp/\libucosii_bsp.a(tk_crnos.o)
                              ../WebServer_bsp/\libucosii_bsp.a(ipnet.o) (tk_yield)
../WebServer_bsp/\libucosii_bsp.a(dhcpclnt.o)
                              ../WebServer_bsp/\libucosii_bsp.a(netmain.o) (dhc_second)
../WebServer_bsp/\libucosii_bsp.a(dhcputil.o)
                              ../WebServer_bsp/\libucosii_bsp.a(dhcpclnt.o) (find_opt)
../WebServer_bsp/\libucosii_bsp.a(pktalloc.o)
                              ../WebServer_bsp/\libucosii_bsp.a(ipnet.o) (pk_init)
../WebServer_bsp/\libucosii_bsp.a(q.o)
                              ../WebServer_bsp/\libucosii_bsp.a(ipnet.o) (getq)
../WebServer_bsp/\libucosii_bsp.a(udp_open.o)
                              ../WebServer_bsp/\libucosii_bsp.a(dhcpclnt.o) (udp_open)
../WebServer_bsp/\libucosii_bsp.a(asm_cksum.o)
                              ../WebServer_bsp/\libucosii_bsp.a(cksum.o) (asm_cksum)
../WebServer_bsp/\libucosii_bsp.a(brdutils.o)
                              ../WebServer_bsp/\libucosii_bsp.a(ipnet.o) (dtrap)
../WebServer_bsp/\libucosii_bsp.a(osportco.o)
                              ../WebServer_bsp/\libucosii_bsp.a(tk_crnos.o) (tcp_sleep_count)
../WebServer_bsp/\libucosii_bsp.a(targnios.o)
                              obj/default/web_server.o (alt_iniche_init)
../WebServer_bsp/\libucosii_bsp.a(nptcp.o)
                              ../WebServer_bsp/\libucosii_bsp.a(bsdsock.o) (soq)
../WebServer_bsp/\libucosii_bsp.a(rawsock.o)
                              ../WebServer_bsp/\libucosii_bsp.a(nptcp.o) (rawip_usrreq)
../WebServer_bsp/\libucosii_bsp.a(sockcall.o)
                              obj/default/http.o (t_socket)
../WebServer_bsp/\libucosii_bsp.a(socket.o)
                              ../WebServer_bsp/\libucosii_bsp.a(sockcall.o) (socreate)
../WebServer_bsp/\libucosii_bsp.a(socket2.o)
                              ../WebServer_bsp/\libucosii_bsp.a(sockcall.o) (soqremque)
../WebServer_bsp/\libucosii_bsp.a(soselect.o)
                              ../WebServer_bsp/\libucosii_bsp.a(bsdsock.o) (t_select)
../WebServer_bsp/\libucosii_bsp.a(tcp_in.o)
                              ../WebServer_bsp/\libucosii_bsp.a(nptcp.o) (tcp_input)
../WebServer_bsp/\libucosii_bsp.a(tcp_out.o)
                              ../WebServer_bsp/\libucosii_bsp.a(tcp_in.o) (tcp_output)
../WebServer_bsp/\libucosii_bsp.a(tcp_subr.o)
                              ../WebServer_bsp/\libucosii_bsp.a(nptcp.o) (tcp_init)
../WebServer_bsp/\libucosii_bsp.a(tcp_timr.o)
                              ../WebServer_bsp/\libucosii_bsp.a(tcp_in.o) (tcp_keepidle)
../WebServer_bsp/\libucosii_bsp.a(tcp_usr.o)
                              ../WebServer_bsp/\libucosii_bsp.a(nptcp.o) (tcp_usrreq)
../WebServer_bsp/\libucosii_bsp.a(tcpport.o)
                              ../WebServer_bsp/\libucosii_bsp.a(ipstart.o) (tcpinit)
../WebServer_bsp/\libucosii_bsp.a(udpsock.o)
                              ../WebServer_bsp/\libucosii_bsp.a(nptcp.o) (udp_usrreq)
../WebServer_bsp/\libucosii_bsp.a(alt_alarm_start.o)
                              ../WebServer_bsp/\libucosii_bsp.a(altera_avalon_jtag_uart_init.o) (alt_alarm_start)
../WebServer_bsp/\libucosii_bsp.a(alt_busy_sleep.o)
                              ../WebServer_bsp/\libucosii_bsp.a(alt_usleep.o) (alt_busy_sleep)
../WebServer_bsp/\libucosii_bsp.a(alt_close.o)
                              ../WebServer_bsp/\libucosii_bsp.a(alt_iniche_close.o) (alt_close)
../WebServer_bsp/\libucosii_bsp.a(alt_dev.o)
                              ../WebServer_bsp/\libucosii_bsp.a(alt_open.o) (alt_dev_list)
../WebServer_bsp/\libucosii_bsp.a(alt_dev_llist_insert.o)
                              ../WebServer_bsp/\libucosii_bsp.a(alt_sys_init.o) (alt_dev_llist_insert)
../WebServer_bsp/\libucosii_bsp.a(alt_do_ctors.o)
                              ../WebServer_bsp/\libucosii_bsp.a(alt_main.o) (_do_ctors)
../WebServer_bsp/\libucosii_bsp.a(alt_do_dtors.o)
                              ../WebServer_bsp/\libucosii_bsp.a(alt_main.o) (_do_dtors)
../WebServer_bsp/\libucosii_bsp.a(alt_errno.o)
                              ../WebServer_bsp/\libucosii_bsp.a(alt_fstat.o) (alt_errno)
../WebServer_bsp/\libucosii_bsp.a(alt_find_dev.o)
                              ../WebServer_bsp/\libucosii_bsp.a(alt_flash_dev.o) (alt_find_dev)
../WebServer_bsp/\libucosii_bsp.a(alt_find_file.o)
                              ../WebServer_bsp/\libucosii_bsp.a(alt_open.o) (alt_find_file)
../WebServer_bsp/\libucosii_bsp.a(alt_fs_reg.o)
                              ../WebServer_bsp/\libucosii_bsp.a(alt_sys_init.o) (alt_fs_reg)
../WebServer_bsp/\libucosii_bsp.a(alt_get_fd.o)
                              ../WebServer_bsp/\libucosii_bsp.a(alt_open.o) (alt_get_fd)
../WebServer_bsp/\libucosii_bsp.a(alt_iic.o)
                              ../WebServer_bsp/\libucosii_bsp.a(altera_avalon_jtag_uart_init.o) (alt_ic_isr_register)
../WebServer_bsp/\libucosii_bsp.a(alt_iic_isr_register.o)
                              ../WebServer_bsp/\libucosii_bsp.a(alt_iic.o) (alt_iic_isr_register)
../WebServer_bsp/\libucosii_bsp.a(alt_io_redirect.o)
                              ../WebServer_bsp/\libucosii_bsp.a(alt_main.o) (alt_io_redirect)
../WebServer_bsp/\libucosii_bsp.a(alt_irq_entry.o)
                              ../WebServer_bsp/\libucosii_bsp.a(alt_irq_register.o) (alt_irq_entry)
../WebServer_bsp/\libucosii_bsp.a(alt_irq_handler.o)
                              ../WebServer_bsp/\libucosii_bsp.a(alt_irq_register.o) (alt_irq_handler)
../WebServer_bsp/\libucosii_bsp.a(alt_read.o)
                              ../WebServer_bsp/\libucosii_bsp.a(alt_iniche_read.o) (alt_read)
../WebServer_bsp/\libucosii_bsp.a(alt_remap_cached.o)
                              ../WebServer_bsp/\libucosii_bsp.a(targnios.o) (alt_remap_cached)
../WebServer_bsp/\libucosii_bsp.a(alt_remap_uncached.o)
                              ../WebServer_bsp/\libucosii_bsp.a(targnios.o) (alt_remap_uncached)
../WebServer_bsp/\libucosii_bsp.a(alt_write.o)
                              ../WebServer_bsp/\libucosii_bsp.a(alt_iniche_write.o) (alt_write)
../WebServer_bsp/\libucosii_bsp.a(altera_nios2_qsys_irq.o)
                              ../WebServer_bsp/\libucosii_bsp.a(alt_sys_init.o) (altera_nios2_qsys_irq_init)
../WebServer_bsp/\libucosii_bsp.a(os_cpu_a.o)
                              ../WebServer_bsp/\libucosii_bsp.a(os_core.o) (OSIntCtxSw)
../WebServer_bsp/\libucosii_bsp.a(os_cpu_c.o)
                              ../WebServer_bsp/\libucosii_bsp.a(os_task.o) (OSTaskStkInit)
../WebServer_bsp/\libucosii_bsp.a(altera_avalon_cfi_flash_amd.o)
                              ../WebServer_bsp/\libucosii_bsp.a(altera_avalon_cfi_flash_table.o) (alt_program_amd)
../WebServer_bsp/\libucosii_bsp.a(altera_avalon_cfi_flash_intel.o)
                              ../WebServer_bsp/\libucosii_bsp.a(altera_avalon_cfi_flash_table.o) (alt_program_intel)
../WebServer_bsp/\libucosii_bsp.a(altera_avalon_spi.o)
                              ../WebServer_bsp/\libucosii_bsp.a(epcs_commands.o) (alt_avalon_spi_command)
../WebServer_bsp/\libucosii_bsp.a(allports.o)
                              ../WebServer_bsp/\libucosii_bsp.a(dhcpclnt.o) (name)
../WebServer_bsp/\libucosii_bsp.a(timeouts.o)
                              ../WebServer_bsp/\libucosii_bsp.a(netmain.o) (inet_timer)
../WebServer_bsp/\libucosii_bsp.a(tk_misc.o)
                              ../WebServer_bsp/\libucosii_bsp.a(netmain.o) (create_apptasks)
../WebServer_bsp/\libucosii_bsp.a(alt_iniche_fcntl.o)
                              ../WebServer_bsp/\libucosii_bsp.a(brdutils.o) (fcntl)
../WebServer_bsp/\libucosii_bsp.a(et_arp.o)
                              ../WebServer_bsp/\libucosii_bsp.a(ipstart.o) (etainit)
../WebServer_bsp/\libucosii_bsp.a(iface.o)
                              ../WebServer_bsp/\libucosii_bsp.a(ipnet.o) (netlist)
../WebServer_bsp/\libucosii_bsp.a(ip.o)
                              ../WebServer_bsp/\libucosii_bsp.a(ipstart.o) (ip_init)
../WebServer_bsp/\libucosii_bsp.a(ip_reasm.o)
                              ../WebServer_bsp/\libucosii_bsp.a(timeouts.o) (ire_cticks)
../WebServer_bsp/\libucosii_bsp.a(ipdemux.o)
                              ../WebServer_bsp/\libucosii_bsp.a(ipnet.o) (ip_rcv)
../WebServer_bsp/\libucosii_bsp.a(ipmc.o)
                              ../WebServer_bsp/\libucosii_bsp.a(ipstart.o) (in_addmulti)
../WebServer_bsp/\libucosii_bsp.a(ipport.o)
                              ../WebServer_bsp/\libucosii_bsp.a(targnios.o) (port_prep)
../WebServer_bsp/\libucosii_bsp.a(ipraw.o)
                              ../WebServer_bsp/\libucosii_bsp.a(rawsock.o) (ipraw_eps)
../WebServer_bsp/\libucosii_bsp.a(iproute.o)
                              ../WebServer_bsp/\libucosii_bsp.a(ip.o) (cachedRoute)
../WebServer_bsp/\libucosii_bsp.a(udp.o)
                              ../WebServer_bsp/\libucosii_bsp.a(ipdemux.o) (udpdemux)
../WebServer_bsp/\libucosii_bsp.a(igmp.o)
                              ../WebServer_bsp/\libucosii_bsp.a(igmp_cmn.o) (igmpv1_input)
../WebServer_bsp/\libucosii_bsp.a(igmp2.o)
                              ../WebServer_bsp/\libucosii_bsp.a(igmp_cmn.o) (igmpv2_input)
../WebServer_bsp/\libucosii_bsp.a(ipopt.o)
                              ../WebServer_bsp/\libucosii_bsp.a(socket.o) (ip_setmoptions)
../WebServer_bsp/\libucosii_bsp.a(u_mctest.o)
                              ../WebServer_bsp/\libucosii_bsp.a(allports.o) (u_mctest_init)
../WebServer_bsp/\libucosii_bsp.a(dhcsetup.o)
                              ../WebServer_bsp/\libucosii_bsp.a(allports.o) (dhc_setup)
../WebServer_bsp/\libucosii_bsp.a(memdev.o)
                              ../WebServer_bsp/\libucosii_bsp.a(allports.o) (init_memdev)
../WebServer_bsp/\libucosii_bsp.a(parseip.o)
                              ../WebServer_bsp/\libucosii_bsp.a(u_mctest.o) (inet_addr)
../WebServer_bsp/\libucosii_bsp.a(tcpcksum.o)
                              ../WebServer_bsp/\libucosii_bsp.a(nptcp.o) (tcp_cksum)
../WebServer_bsp/\libucosii_bsp.a(in_pcb.o)
                              ../WebServer_bsp/\libucosii_bsp.a(tcp_usr.o) (in_pcballoc)
../WebServer_bsp/\libucosii_bsp.a(vfsfiles.o)
                              ../WebServer_bsp/\libucosii_bsp.a(memdev.o) (vfsystems)
../WebServer_bsp/\libucosii_bsp.a(vfsport.o)
                              ../WebServer_bsp/\libucosii_bsp.a(allports.o) (prep_vfs)
../WebServer_bsp/\libucosii_bsp.a(alt_exception_entry.o)
                              ../WebServer_bsp/\libucosii_bsp.a(alt_irq_entry.o) (alt_exception)
../WebServer_bsp/\libucosii_bsp.a(alt_fcntl.o)
                              ../WebServer_bsp/\libucosii_bsp.a(alt_iniche_fcntl.o) (alt_fcntl)
../WebServer_bsp/\libucosii_bsp.a(icmp.o)
                              ../WebServer_bsp/\libucosii_bsp.a(ipdemux.o) (icmprcv)
c:/altera/13.0/nios2eds/bin/gnu/h-i686-mingw32/bin/../lib/gcc/nios2-elf/4.1.2/../../../../nios2-elf/lib\libc.a(lib_a-atexit.o)
                              ../WebServer_bsp/\libucosii_bsp.a(alt_main.o) (atexit)
c:/altera/13.0/nios2eds/bin/gnu/h-i686-mingw32/bin/../lib/gcc/nios2-elf/4.1.2/../../../../nios2-elf/lib\libc.a(lib_a-calloc.o)
                              ../WebServer_bsp/\libucosii_bsp.a(targnios.o) (calloc)
c:/altera/13.0/nios2eds/bin/gnu/h-i686-mingw32/bin/../lib/gcc/nios2-elf/4.1.2/../../../../nios2-elf/lib\libc.a(lib_a-exit.o)
                              ../WebServer_bsp/\libucosii_bsp.a(alt_main.o) (exit)
c:/altera/13.0/nios2eds/bin/gnu/h-i686-mingw32/bin/../lib/gcc/nios2-elf/4.1.2/../../../../nios2-elf/lib\libc.a(lib_a-malloc.o)
                              ../WebServer_bsp/\libucosii_bsp.a(targnios.o) (free)
c:/altera/13.0/nios2eds/bin/gnu/h-i686-mingw32/bin/../lib/gcc/nios2-elf/4.1.2/../../../../nios2-elf/lib\libc.a(lib_a-vprintf.o)
                              ../WebServer_bsp/\libucosii_bsp.a(in_utils.o) (vprintf)
c:/altera/13.0/nios2eds/bin/gnu/h-i686-mingw32/bin/../lib/gcc/nios2-elf/4.1.2/../../../../nios2-elf/lib\libc.a(lib_a-vsprintf.o)
                              ../WebServer_bsp/\libucosii_bsp.a(in_utils.o) (vsprintf)
c:/altera/13.0/nios2eds/bin/gnu/h-i686-mingw32/bin/../lib/gcc/nios2-elf/4.1.2/../../../../nios2-elf/lib\libc.a(lib_a-__atexit.o)
                              c:/altera/13.0/nios2eds/bin/gnu/h-i686-mingw32/bin/../lib/gcc/nios2-elf/4.1.2/../../../../nios2-elf/lib\libc.a(lib_a-atexit.o) (__register_exitproc)
c:/altera/13.0/nios2eds/bin/gnu/h-i686-mingw32/bin/../lib/gcc/nios2-elf/4.1.2/../../../../nios2-elf/lib\libc.a(lib_a-__call_atexit.o)
                              c:/altera/13.0/nios2eds/bin/gnu/h-i686-mingw32/bin/../lib/gcc/nios2-elf/4.1.2/../../../../nios2-elf/lib\libc.a(lib_a-exit.o) (__call_exitprocs)
../WebServer_bsp/\libucosii_bsp.a(alt_exit.o)
                              c:/altera/13.0/nios2eds/bin/gnu/h-i686-mingw32/bin/../lib/gcc/nios2-elf/4.1.2/../../../../nios2-elf/lib\libc.a(lib_a-exit.o) (_exit)

Allocating common symbols
Common symbol       size              file

soq                 0x14              ../WebServer_bsp/\libucosii_bsp.a(nptcp.o)
upload_buf          0x5b8d88          obj/default/http.o
alt_irq             0x100             ../WebServer_bsp/\libucosii_bsp.a(alt_irq_handler.o)
tcp_optionbuf       0x4               ../WebServer_bsp/\libucosii_bsp.a(tcp_out.o)
last_flash_sector_offset
                    0x4               obj/default/network_utilities.o
rt_mib              0x4               ../WebServer_bsp/\libucosii_bsp.a(ip.o)
so_evtmap_create    0x4               ../WebServer_bsp/\libucosii_bsp.a(ipport.o)
board_funcs         0x2c              obj/default/http.o
OSLockNesting       0x1               ../WebServer_bsp/\libucosii_bsp.a(os_core.o)
tcb                 0x2c              ../WebServer_bsp/\libucosii_bsp.a(tcp_subr.o)
OSRunning           0x1               ../WebServer_bsp/\libucosii_bsp.a(os_core.o)
dhc_states          0xf0              ../WebServer_bsp/\libucosii_bsp.a(dhcpclnt.o)
tcpstat             0xe0              ../WebServer_bsp/\libucosii_bsp.a(tcp_subr.o)
OSIdleCtr           0x4               ../WebServer_bsp/\libucosii_bsp.a(os_core.o)
udp_mib             0x10              ../WebServer_bsp/\libucosii_bsp.a(udp.o)
to_netmain          0x1               ../WebServer_bsp/\libucosii_bsp.a(netmain.o)
OSPrioHighRdy       0x1               ../WebServer_bsp/\libucosii_bsp.a(os_core.o)
errno               0x4               c:/altera/13.0/nios2eds/bin/gnu/h-i686-mingw32/bin/../lib/gcc/nios2-elf/4.1.2/../../../../nios2-elf/lib\libc.a(lib_a-int_errno.o)
lilfreeq            0x14              ../WebServer_bsp/\libucosii_bsp.a(pktalloc.o)
icmp_mib            0x68              ../WebServer_bsp/\libucosii_bsp.a(icmp.o)
resid_semaphore     0x40              ../WebServer_bsp/\libucosii_bsp.a(targnios.o)
alt_heapsem         0x4               ../WebServer_bsp/\libucosii_bsp.a(alt_malloc_lock.o)
OSFlagTbl           0x370             ../WebServer_bsp/\libucosii_bsp.a(os_core.o)
mbstat              0x8               ../WebServer_bsp/\libucosii_bsp.a(nptcp.o)
netq_intmask        0x4               ../WebServer_bsp/\libucosii_bsp.a(osportco.o)
select_wait         0x2               ../WebServer_bsp/\libucosii_bsp.a(nptcp.o)
tcpmib              0x3c              ../WebServer_bsp/\libucosii_bsp.a(nptcp.o)
OSPrioCur           0x1               ../WebServer_bsp/\libucosii_bsp.a(os_core.o)
mheap_sem_ptr       0x4               ../WebServer_bsp/\libucosii_bsp.a(targnios.o)
netlist             0x14              ../WebServer_bsp/\libucosii_bsp.a(iface.o)
mbufq               0x14              ../WebServer_bsp/\libucosii_bsp.a(nptcp.o)
OSTCBList           0x4               ../WebServer_bsp/\libucosii_bsp.a(os_core.o)
alt_fd_list_lock    0x4               ../WebServer_bsp/\libucosii_bsp.a(alt_dev.o)
OSMemTbl            0xc30             ../WebServer_bsp/\libucosii_bsp.a(os_core.o)
OSTickStepState     0x1               ../WebServer_bsp/\libucosii_bsp.a(os_core.o)
SSDTaskStk          0x2000            obj/default/web_server.o
line_count          0x4               obj/default/srec_flash.o
OSTaskStatStk       0x800             ../WebServer_bsp/\libucosii_bsp.a(os_core.o)
OSCtxSwCtr          0x4               ../WebServer_bsp/\libucosii_bsp.a(os_core.o)
igmpstats           0x64              ../WebServer_bsp/\libucosii_bsp.a(igmp_cmn.o)
ire_stats           0x18              ../WebServer_bsp/\libucosii_bsp.a(ip_reasm.o)
__hexdig            0x100             c:/altera/13.0/nios2eds/bin/gnu/h-i686-mingw32/bin/../lib/gcc/nios2-elf/4.1.2/../../../../nios2-elf/lib\libc.a(lib_a-gdtoa-gethex.o)
old_mode            0x4               ../WebServer_bsp/\libucosii_bsp.a(osportco.o)
vfs_dir_stale       0x4               ../WebServer_bsp/\libucosii_bsp.a(vfsfiles.o)
cticks_factor       0x4               ../WebServer_bsp/\libucosii_bsp.a(brdutils.o)
g_dm9ka             0x44              obj/default/dm9000a.o
OSIdleCtrMax        0x4               ../WebServer_bsp/\libucosii_bsp.a(os_core.o)
memestats           0x10              ../WebServer_bsp/\libucosii_bsp.a(pktalloc.o)
intimers            0x64              ../WebServer_bsp/\libucosii_bsp.a(timeouts.o)
OSTCBFreeList       0x4               ../WebServer_bsp/\libucosii_bsp.a(os_core.o)
global_TCPwakeup_setIndx
                    0x4               ../WebServer_bsp/\libucosii_bsp.a(osportco.o)
rcvdq               0x14              ../WebServer_bsp/\libucosii_bsp.a(ipnet.o)
http_rx_buffer      0xc000            obj/default/http.o
global_tcb_ext      0xfc              ../WebServer_bsp/\libucosii_bsp.a(osportco.o)
netstatic           0x300             ../WebServer_bsp/\libucosii_bsp.a(ipstart.o)
tcp_maxidle         0x4               ../WebServer_bsp/\libucosii_bsp.a(tcp_timr.o)
flash_inf           0x30              obj/default/http.o
OSCPUUsage          0x1               ../WebServer_bsp/\libucosii_bsp.a(os_core.o)
nets                0x10              ../WebServer_bsp/\libucosii_bsp.a(ipstart.o)
pktlog              0xf0              ../WebServer_bsp/\libucosii_bsp.a(pktalloc.o)
lcdDevice           0x4               obj/default/web_server.o
frag                0x104             obj/default/srec_flash.o
OSTaskCtr           0x1               ../WebServer_bsp/\libucosii_bsp.a(os_core.o)
OSMemFreeList       0x4               ../WebServer_bsp/\libucosii_bsp.a(os_core.o)
vfs_open_files      0x4               ../WebServer_bsp/\libucosii_bsp.a(vfsfiles.o)
cticks              0x4               ../WebServer_bsp/\libucosii_bsp.a(osportco.o)
to_nettick          0x1               ../WebServer_bsp/\libucosii_bsp.a(netmain.o)
WSInitialTaskStk    0x2000            obj/default/web_server.o
last_flash_sector   0x4               obj/default/network_utilities.o
OSQTbl              0x1e0             ../WebServer_bsp/\libucosii_bsp.a(os_core.o)
OSTCBHighRdy        0x4               ../WebServer_bsp/\libucosii_bsp.a(os_core.o)
OSQFreeList         0x4               ../WebServer_bsp/\libucosii_bsp.a(os_core.o)
OSRdyGrp            0x1               ../WebServer_bsp/\libucosii_bsp.a(os_core.o)
ip_mib              0x50              ../WebServer_bsp/\libucosii_bsp.a(ip.o)
OS_TPS              0x4               ../WebServer_bsp/\libucosii_bsp.a(brdutils.o)
_atexit0            0x190             c:/altera/13.0/nios2eds/bin/gnu/h-i686-mingw32/bin/../lib/gcc/nios2-elf/4.1.2/../../../../nios2-elf/lib\libc.a(lib_a-atexit.o)
current_flash_block
                    0x4               obj/default/srec_flash.o
OSRdyTbl            0x3               ../WebServer_bsp/\libucosii_bsp.a(os_core.o)
igmp_all_hosts_group
                    0x4               ../WebServer_bsp/\libucosii_bsp.a(igmp_cmn.o)
LEDTaskStk          0x2000            obj/default/web_server.o
eth_prt_buf         0x12              ../WebServer_bsp/\libucosii_bsp.a(in_utils.o)
app_semaphore       0x18              ../WebServer_bsp/\libucosii_bsp.a(targnios.o)
rcvdq_sem_ptr       0x4               ../WebServer_bsp/\libucosii_bsp.a(targnios.o)
OSEventFreeList     0x4               ../WebServer_bsp/\libucosii_bsp.a(os_core.o)
http_tx_buffer      0xc000            obj/default/http.o
mfreeq              0x14              ../WebServer_bsp/\libucosii_bsp.a(nptcp.o)
global_TCPwakeup_set
                    0xf0              ../WebServer_bsp/\libucosii_bsp.a(osportco.o)
bigfreeq            0x14              ../WebServer_bsp/\libucosii_bsp.a(pktalloc.o)
so_evtmap_delete    0x4               ../WebServer_bsp/\libucosii_bsp.a(ipport.o)
tcp_saveti          0x28              ../WebServer_bsp/\libucosii_bsp.a(tcp_in.o)
OSIntNesting        0x1               ../WebServer_bsp/\libucosii_bsp.a(os_core.o)
so_evtmap           0x1               ../WebServer_bsp/\libucosii_bsp.a(ipport.o)
board_control_mbox  0x4               obj/default/web_server.o
to_wstask           0x1               obj/default/web_server.o
OSTCBCur            0x4               ../WebServer_bsp/\libucosii_bsp.a(os_core.o)
arp_table           0x100             ../WebServer_bsp/\libucosii_bsp.a(et_arp.o)
tcp_iss             0x4               ../WebServer_bsp/\libucosii_bsp.a(tcp_timr.o)
vfs_total_rw_space  0x4               ../WebServer_bsp/\libucosii_bsp.a(vfsfiles.o)
OSTime              0x4               ../WebServer_bsp/\libucosii_bsp.a(os_core.o)
OSTaskIdleStk       0x800             ../WebServer_bsp/\libucosii_bsp.a(os_core.o)
OSEventTbl          0xb40             ../WebServer_bsp/\libucosii_bsp.a(os_core.o)
vfs_total_dyna_files
                    0x4               ../WebServer_bsp/\libucosii_bsp.a(vfsfiles.o)
OSTCBTbl            0x510             ../WebServer_bsp/\libucosii_bsp.a(os_core.o)
ipreturn            0x12              ../WebServer_bsp/\libucosii_bsp.a(in_utils.o)
OSFlagFreeList      0x4               ../WebServer_bsp/\libucosii_bsp.a(os_core.o)
dropline            0x4               ../WebServer_bsp/\libucosii_bsp.a(tcp_in.o)
OSStatRdy           0x1               ../WebServer_bsp/\libucosii_bsp.a(os_core.o)
OSTCBPrioTbl        0x54              ../WebServer_bsp/\libucosii_bsp.a(os_core.o)
igmp_all_rtrs_group
                    0x4               ../WebServer_bsp/\libucosii_bsp.a(igmp_cmn.o)
BCTaskStk           0x2000            obj/default/web_server.o
alt_envsem          0x4               ../WebServer_bsp/\libucosii_bsp.a(alt_env_lock.o)
OSIdleCtrRun        0x4               ../WebServer_bsp/\libucosii_bsp.a(os_core.o)

Memory Configuration

Name             Origin             Length             Attributes
sdram_0_BEFORE_EXCEPTION 0x00800000         0x00000020
sdram_0          0x00800020         0x007fffe0
reset            0x01400000         0x00000020
cfi_flash_0      0x01400020         0x003fffe0
sram_0           0x01a00000         0x00080000
epcs_controller  0x01a81800         0x00000800
*default*        0x00000000         0xffffffff

Linker script and memory map

LOAD ../WebServer_bsp//obj/HAL/src/crt0.o
LOAD obj/default/alt_error_handler.o
LOAD obj/default/dm9000a.o
LOAD obj/default/http.o
LOAD obj/default/network_utilities.o
LOAD obj/default/srec_flash.o
LOAD obj/default/web_server.o
LOAD c:/altera/13.0/nios2eds/bin/gnu/h-i686-mingw32/bin/../lib/gcc/nios2-elf/4.1.2/../../../../nios2-elf/lib\libstdc++.a
LOAD c:/altera/13.0/nios2eds/bin/gnu/h-i686-mingw32/bin/../lib/gcc/nios2-elf/4.1.2/../../../../nios2-elf/lib\libm.a
LOAD c:/altera/13.0/nios2eds/bin/gnu/h-i686-mingw32/bin/../lib/gcc/nios2-elf/4.1.2\libgcc.a
START GROUP
LOAD c:/altera/13.0/nios2eds/bin/gnu/h-i686-mingw32/bin/../lib/gcc/nios2-elf/4.1.2/../../../../nios2-elf/lib\libc.a
LOAD c:/altera/13.0/nios2eds/bin/gnu/h-i686-mingw32/bin/../lib/gcc/nios2-elf/4.1.2\libgcc.a
LOAD ../WebServer_bsp/\libucosii_bsp.a
END GROUP
LOAD c:/altera/13.0/nios2eds/bin/gnu/h-i686-mingw32/bin/../lib/gcc/nios2-elf/4.1.2\libgcc.a
                0x00800000                __alt_mem_sdram_0 = 0x800000
                0x01400000                __alt_mem_cfi_flash_0 = 0x1400000
                0x01a00000                __alt_mem_sram_0 = 0x1a00000
                0x01a81800                __alt_mem_epcs_controller = 0x1a81800

.entry          0x01400000        0x0
 *(.entry)
 .entry         0x01400000        0x0 ../WebServer_bsp//obj/HAL/src/crt0.o
                0x01400000                __reset

.exceptions     0x00800020      0x19c
                0x00800020                PROVIDE (__ram_exceptions_start, ABSOLUTE (.))
                0x00800020                . = ALIGN (0x20)
 *(.irq)
 *(.exceptions.entry.label)
 .exceptions.entry.label
                0x00800020        0x0 ../WebServer_bsp/\libucosii_bsp.a(alt_irq_entry.o)
                0x00800020                alt_irq_entry
 .exceptions.entry.label
                0x00800020        0x0 ../WebServer_bsp/\libucosii_bsp.a(alt_exception_entry.o)
                0x00800020                alt_exception
 *(.exceptions.entry.user)
 *(.exceptions.entry)
 .exceptions.entry
                0x00800020       0x54 ../WebServer_bsp/\libucosii_bsp.a(alt_exception_entry.o)
 *(.exceptions.irqtest.user)
 *(.exceptions.irqtest)
 .exceptions.irqtest
                0x00800074       0x10 ../WebServer_bsp/\libucosii_bsp.a(alt_irq_entry.o)
 *(.exceptions.irqhandler.user)
 *(.exceptions.irqhandler)
 .exceptions.irqhandler
                0x00800084        0x4 ../WebServer_bsp/\libucosii_bsp.a(alt_irq_entry.o)
 *(.exceptions.irqreturn.user)
 *(.exceptions.irqreturn)
 .exceptions.irqreturn
                0x00800088        0x4 ../WebServer_bsp/\libucosii_bsp.a(alt_irq_entry.o)
 *(.exceptions.notirq.label)
 .exceptions.notirq.label
                0x0080008c        0x0 ../WebServer_bsp/\libucosii_bsp.a(alt_irq_entry.o)
 *(.exceptions.notirq.user)
 *(.exceptions.notirq)
 .exceptions.notirq
                0x0080008c        0x8 ../WebServer_bsp/\libucosii_bsp.a(alt_exception_entry.o)
 *(.exceptions.soft.user)
 *(.exceptions.soft)
 *(.exceptions.unknown.user)
 *(.exceptions.unknown)
 .exceptions.unknown
                0x00800094        0x4 ../WebServer_bsp/\libucosii_bsp.a(alt_exception_entry.o)
 *(.exceptions.exit.label)
 .exceptions.exit.label
                0x00800098        0x0 ../WebServer_bsp/\libucosii_bsp.a(alt_irq_entry.o)
 .exceptions.exit.label
                0x00800098        0x0 ../WebServer_bsp/\libucosii_bsp.a(alt_exception_entry.o)
 *(.exceptions.exit.user)
 *(.exceptions.exit)
 .exceptions.exit
                0x00800098       0x54 ../WebServer_bsp/\libucosii_bsp.a(alt_exception_entry.o)
 *(.exceptions)
 .exceptions    0x008000ec       0xd0 ../WebServer_bsp/\libucosii_bsp.a(alt_irq_handler.o)
                0x008000ec                alt_irq_handler
                0x008001bc                PROVIDE (__ram_exceptions_end, ABSOLUTE (.))
                0x00800020                PROVIDE (__flash_exceptions_start, LOADADDR (.exceptions))

.text           0x008001bc    0x50110
                0x008001bc                PROVIDE (stext, ABSOLUTE (.))
 *(.interp)
 *(.hash)
 *(.dynsym)
 *(.dynstr)
 *(.gnu.version)
 *(.gnu.version_d)
 *(.gnu.version_r)
 *(.rel.init)
 *(.rela.init)
 *(.rel.text .rel.text.* .rel.gnu.linkonce.t.*)
 *(.rela.text .rela.text.* .rela.gnu.linkonce.t.*)
 *(.rel.fini)
 *(.rela.fini)
 *(.rel.rodata .rel.rodata.* .rel.gnu.linkonce.r.*)
 *(.rela.rodata .rela.rodata.* .rela.gnu.linkonce.r.*)
 *(.rel.data .rel.data.* .rel.gnu.linkonce.d.*)
 *(.rela.data .rela.data.* .rela.gnu.linkonce.d.*)
 *(.rel.tdata .rel.tdata.* .rel.gnu.linkonce.td.*)
 *(.rela.tdata .rela.tdata.* .rela.gnu.linkonce.td.*)
 *(.rel.tbss .rel.tbss.* .rel.gnu.linkonce.tb.*)
 *(.rela.tbss .rela.tbss.* .rela.gnu.linkonce.tb.*)
 *(.rel.ctors)
 *(.rela.ctors)
 *(.rel.dtors)
 *(.rela.dtors)
 *(.rel.got)
 *(.rela.got)
 *(.rel.sdata .rel.sdata.* .rel.gnu.linkonce.s.*)
 *(.rela.sdata .rela.sdata.* .rela.gnu.linkonce.s.*)
 *(.rel.sbss .rel.sbss.* .rel.gnu.linkonce.sb.*)
 *(.rela.sbss .rela.sbss.* .rela.gnu.linkonce.sb.*)
 *(.rel.sdata2 .rel.sdata2.* .rel.gnu.linkonce.s2.*)
 *(.rela.sdata2 .rela.sdata2.* .rela.gnu.linkonce.s2.*)
 *(.rel.sbss2 .rel.sbss2.* .rel.gnu.linkonce.sb2.*)
 *(.rela.sbss2 .rela.sbss2.* .rela.gnu.linkonce.sb2.*)
 *(.rel.bss .rel.bss.* .rel.gnu.linkonce.b.*)
 *(.rela.bss .rela.bss.* .rela.gnu.linkonce.b.*)
 *(.rel.plt)
 *(.rela.plt)
 *(.rel.dyn)
 *(.init)
 *(.plt)
 *(.text .stub .text.* .gnu.linkonce.t.*)
 .text          0x008001bc       0x48 ../WebServer_bsp//obj/HAL/src/crt0.o
                0x008001bc                _start
 .text          0x00800204      0x624 obj/default/alt_error_handler.o
                0x00800204                alt_uCOSIIErrorHandler
 .text          0x00800828      0xe48 obj/default/dm9000a.o
                0x00800828                dm9000a_iow
                0x0080087c                dm9000a_ior
                0x008008c8                phy_write
                0x00800964                dm9000a_reset
                0x00800b28                TransmitPacket
                0x00800c44                prep_dm9000a
                0x00800e60                dm9000a_init
                0x008012b0                dm9Ka_isr_wrap
                0x008012f0                dm9ka_init
                0x008013e8                dm9ka_close
                0x008014f8                dm9ka_stats
                0x00801554                dm9ka_pkt_send
 .text          0x00801670     0x2844 obj/default/http.o
                0x00801670                print
                0x008016a0                sweep
                0x00801788                http_cleanup_lcd_text
                0x00801804                lcd_output
                0x008018cc                http_parse_multipart_header
                0x00801b1c                file_upload
                0x00801d80                ProgFlashStub
                0x00801dd0                http_reset_connection
                0x00801ec0                http_manage_connection
                0x0080206c                http_handle_accept
                0x00802194                http_read_line
                0x00802244                http_parse_type_boundary
                0x00802330                http_process_headers
                0x00802564                http_process_request
                0x00802858                http_send_file_chunk
                0x00802a04                http_send_file_header
                0x00803144                http_find_file
                0x008033c0                http_send_redirect
                0x008033f4                http_handle_post
                0x008036ec                http_prepare_response
                0x00803760                http_handle_receive
                0x00803b1c                http_handle_transmit
                0x00803b7c                WSTask
 .text          0x00803eb4      0x8b0 obj/default/network_utilities.o
                0x00803eb4                die_with_error
                0x00803ee4                get_serial_number
                0x008040c0                generate_and_store_mac_addr
                0x0080428c                generate_mac_addr
                0x008043c8                get_board_mac_addr
                0x0080455c                get_mac_addr
                0x008045b4                get_ip_addr
                0x00804620                FindLastFlashSectorOffset
 .text          0x00804764      0x820 obj/default/srec_flash.o
                0x00804764                ProgFlash
                0x00804a08                ParseAndProgramLine
                0x00804cc4                ParseSRECBuf
 .text          0x00804f84      0x5c8 obj/default/web_server.o
                0x00804f84                lcd_ip_addr
                0x00805140                WSInitialTask
                0x008051bc                main
                0x008053a0                lcd_output_text
                0x0080541c                board_control_task
                0x008054c0                LED_task
 .text          0x0080554c       0xa4 c:/altera/13.0/nios2eds/bin/gnu/h-i686-mingw32/bin/../lib/gcc/nios2-elf/4.1.2\libgcc.a(_fixunsdfsi.o)
                0x0080554c                __fixunsdfsi
 .text          0x008055f0      0x504 c:/altera/13.0/nios2eds/bin/gnu/h-i686-mingw32/bin/../lib/gcc/nios2-elf/4.1.2\libgcc.a(_addsub_df.o)
                0x00805a00                __subdf3
                0x00805a80                __adddf3
 .text          0x00805af4      0x3c4 c:/altera/13.0/nios2eds/bin/gnu/h-i686-mingw32/bin/../lib/gcc/nios2-elf/4.1.2\libgcc.a(_mul_df.o)
                0x00805af4                __muldf3
 .text          0x00805eb8       0x88 c:/altera/13.0/nios2eds/bin/gnu/h-i686-mingw32/bin/../lib/gcc/nios2-elf/4.1.2\libgcc.a(_ge_df.o)
                0x00805eb8                __gedf2
 .text          0x00805f40       0xd8 c:/altera/13.0/nios2eds/bin/gnu/h-i686-mingw32/bin/../lib/gcc/nios2-elf/4.1.2\libgcc.a(_df_to_si.o)
                0x00805f40                __fixdfsi
 .text          0x00806018        0x0 c:/altera/13.0/nios2eds/bin/gnu/h-i686-mingw32/bin/../lib/gcc/nios2-elf/4.1.2\libgcc.a(_thenan_df.o)
 .text          0x00806018      0x194 c:/altera/13.0/nios2eds/bin/gnu/h-i686-mingw32/bin/../lib/gcc/nios2-elf/4.1.2\libgcc.a(_usi_to_df.o)
                0x00806018                __floatunsidf
 .text          0x008061ac      0x14c c:/altera/13.0/nios2eds/bin/gnu/h-i686-mingw32/bin/../lib/gcc/nios2-elf/4.1.2\libgcc.a(lib2-divmod.o)
                0x00806228                __divsi3
                0x00806288                __modsi3
                0x008062e8                __udivsi3
                0x008062f0                __umodsi3
 .text          0x008062f8       0x98 c:/altera/13.0/nios2eds/bin/gnu/h-i686-mingw32/bin/../lib/gcc/nios2-elf/4.1.2\libgcc.a(_muldi3.o)
                0x008062f8                __muldi3
 .text          0x00806390       0x80 c:/altera/13.0/nios2eds/bin/gnu/h-i686-mingw32/bin/../lib/gcc/nios2-elf/4.1.2\libgcc.a(_clzsi2.o)
                0x00806390                __clzsi2
 .text          0x00806410      0x314 c:/altera/13.0/nios2eds/bin/gnu/h-i686-mingw32/bin/../lib/gcc/nios2-elf/4.1.2\libgcc.a(_pack_df.o)
                0x00806410                __pack_d
 .text          0x00806724      0x138 c:/altera/13.0/nios2eds/bin/gnu/h-i686-mingw32/bin/../lib/gcc/nios2-elf/4.1.2\libgcc.a(_unpack_df.o)
                0x00806724                __unpack_d
 .text          0x0080685c       0xc8 c:/altera/13.0/nios2eds/bin/gnu/h-i686-mingw32/bin/../lib/gcc/nios2-elf/4.1.2\libgcc.a(_fpcmp_parts_df.o)
                0x0080685c                __fpcmp_parts_d
 .text          0x00806924        0x0 c:/altera/13.0/nios2eds/bin/gnu/h-i686-mingw32/bin/../lib/gcc/nios2-elf/4.1.2\libgcc.a(_clz.o)
 .text          0x00806924       0x18 c:/altera/13.0/nios2eds/bin/gnu/h-i686-mingw32/bin/../lib/gcc/nios2-elf/4.1.2/../../../../nios2-elf/lib\libc.a(lib_a-atoi.o)
                0x00806924                _atoi_r
                0x00806930                atoi
 .text          0x0080693c        0x0 c:/altera/13.0/nios2eds/bin/gnu/h-i686-mingw32/bin/../lib/gcc/nios2-elf/4.1.2/../../../../nios2-elf/lib\libc.a(lib_a-ctype_.o)
 .text          0x0080693c      0x124 c:/altera/13.0/nios2eds/bin/gnu/h-i686-mingw32/bin/../lib/gcc/nios2-elf/4.1.2/../../../../nios2-elf/lib\libc.a(lib_a-fclose.o)
                0x0080693c                _fclose_r
                0x00806a4c                fclose
 .text          0x00806a60      0x230 c:/altera/13.0/nios2eds/bin/gnu/h-i686-mingw32/bin/../lib/gcc/nios2-elf/4.1.2/../../../../nios2-elf/lib\libc.a(lib_a-fflush.o)
                0x00806a60                _fflush_r
                0x00806c5c                fflush
 .text          0x00806c90       0x48 c:/altera/13.0/nios2eds/bin/gnu/h-i686-mingw32/bin/../lib/gcc/nios2-elf/4.1.2/../../../../nios2-elf/lib\libc.a(lib_a-fgetpos.o)
                0x00806c90                _fgetpos_r
                0x00806cbc                fgetpos
 .text          0x00806cd8      0x2c0 c:/altera/13.0/nios2eds/bin/gnu/h-i686-mingw32/bin/../lib/gcc/nios2-elf/4.1.2/../../../../nios2-elf/lib\libc.a(lib_a-findfp.o)
                0x00806d30                __sfp_lock_acquire
                0x00806d34                __sfp_lock_release
                0x00806d38                __sinit_lock_acquire
                0x00806d3c                __sinit_lock_release
                0x00806d40                __sinit
                0x00806df4                __fp_unlock_all
                0x00806e0c                __fp_lock_all
                0x00806e24                _cleanup_r
                0x00806e30                _cleanup
                0x00806e40                __sfmoreglue
                0x00806ea8                __sfp
 .text          0x00806f98      0x110 c:/altera/13.0/nios2eds/bin/gnu/h-i686-mingw32/bin/../lib/gcc/nios2-elf/4.1.2/../../../../nios2-elf/lib\libc.a(lib_a-fopen.o)
                0x00806f98                _fopen_r
                0x0080708c                fopen
 .text          0x008070a8       0x60 c:/altera/13.0/nios2eds/bin/gnu/h-i686-mingw32/bin/../lib/gcc/nios2-elf/4.1.2/../../../../nios2-elf/lib\libc.a(lib_a-fprintf.o)
                0x008070a8                fprintf
                0x008070d4                _fprintf_r
 .text          0x00807108      0x23c c:/altera/13.0/nios2eds/bin/gnu/h-i686-mingw32/bin/../lib/gcc/nios2-elf/4.1.2/../../../../nios2-elf/lib\libc.a(lib_a-fread.o)
                0x00807108                _fread_r
                0x00807304                fread
 .text          0x00807344      0x440 c:/altera/13.0/nios2eds/bin/gnu/h-i686-mingw32/bin/../lib/gcc/nios2-elf/4.1.2/../../../../nios2-elf/lib\libc.a(lib_a-freer.o)
                0x00807344                _malloc_trim_r
                0x00807470                _free_r
 .text          0x00807784      0x460 c:/altera/13.0/nios2eds/bin/gnu/h-i686-mingw32/bin/../lib/gcc/nios2-elf/4.1.2/../../../../nios2-elf/lib\libc.a(lib_a-fseek.o)
                0x00807784                _fseek_r
                0x00807bc0                fseek
 .text          0x00807be4       0x74 c:/altera/13.0/nios2eds/bin/gnu/h-i686-mingw32/bin/../lib/gcc/nios2-elf/4.1.2/../../../../nios2-elf/lib\libc.a(lib_a-fstatr.o)
                0x00807be4                _fstat_r
 .text          0x00807c58      0x10c c:/altera/13.0/nios2eds/bin/gnu/h-i686-mingw32/bin/../lib/gcc/nios2-elf/4.1.2/../../../../nios2-elf/lib\libc.a(lib_a-ftell.o)
                0x00807c58                _ftell_r
                0x00807d50                ftell
 .text          0x00807d64      0x180 c:/altera/13.0/nios2eds/bin/gnu/h-i686-mingw32/bin/../lib/gcc/nios2-elf/4.1.2/../../../../nios2-elf/lib\libc.a(lib_a-fwalk.o)
                0x00807d64                _fwalk_reent
                0x00807e2c                _fwalk
 .text          0x00807ee4       0xdc c:/altera/13.0/nios2eds/bin/gnu/h-i686-mingw32/bin/../lib/gcc/nios2-elf/4.1.2/../../../../nios2-elf/lib\libc.a(lib_a-fwrite.o)
                0x00807ee4                _fwrite_r
                0x00807f80                fwrite
 .text          0x00807fc0      0x128 c:/altera/13.0/nios2eds/bin/gnu/h-i686-mingw32/bin/../lib/gcc/nios2-elf/4.1.2/../../../../nios2-elf/lib\libc.a(lib_a-getc.o)
                0x00807fc0                getc
                0x00808058                _getc_r
 .text          0x008080e8        0x0 c:/altera/13.0/nios2eds/bin/gnu/h-i686-mingw32/bin/../lib/gcc/nios2-elf/4.1.2/../../../../nios2-elf/lib\libc.a(lib_a-impure.o)
 .text          0x008080e8        0x0 c:/altera/13.0/nios2eds/bin/gnu/h-i686-mingw32/bin/../lib/gcc/nios2-elf/4.1.2/../../../../nios2-elf/lib\libc.a(lib_a-int_errno.o)
 .text          0x008080e8      0x194 c:/altera/13.0/nios2eds/bin/gnu/h-i686-mingw32/bin/../lib/gcc/nios2-elf/4.1.2/../../../../nios2-elf/lib\libc.a(lib_a-makebuf.o)
                0x008080e8                __smakebuf_r
 .text          0x0080827c      0x740 c:/altera/13.0/nios2eds/bin/gnu/h-i686-mingw32/bin/../lib/gcc/nios2-elf/4.1.2/../../../../nios2-elf/lib\libc.a(lib_a-mallocr.o)
                0x0080827c                _malloc_r
 .text          0x008089bc       0xa0 c:/altera/13.0/nios2eds/bin/gnu/h-i686-mingw32/bin/../lib/gcc/nios2-elf/4.1.2/../../../../nios2-elf/lib\libc.a(lib_a-memcpy.o)
                0x008089bc                memcpy
 .text          0x00808a5c       0xe0 c:/altera/13.0/nios2eds/bin/gnu/h-i686-mingw32/bin/../lib/gcc/nios2-elf/4.1.2/../../../../nios2-elf/lib\libc.a(lib_a-memmove.o)
                0x00808a5c                memmove
 .text          0x00808b3c       0x98 c:/altera/13.0/nios2eds/bin/gnu/h-i686-mingw32/bin/../lib/gcc/nios2-elf/4.1.2/../../../../nios2-elf/lib\libc.a(lib_a-memset.o)
                0x00808b3c                memset
 .text          0x00808bd4       0x78 c:/altera/13.0/nios2eds/bin/gnu/h-i686-mingw32/bin/../lib/gcc/nios2-elf/4.1.2/../../../../nios2-elf/lib\libc.a(lib_a-openr.o)
                0x00808bd4                _open_r
 .text          0x00808c4c       0x80 c:/altera/13.0/nios2eds/bin/gnu/h-i686-mingw32/bin/../lib/gcc/nios2-elf/4.1.2/../../../../nios2-elf/lib\libc.a(lib_a-perror.o)
                0x00808c4c                _perror_r
                0x00808cb8                perror
 .text          0x00808ccc       0x78 c:/altera/13.0/nios2eds/bin/gnu/h-i686-mingw32/bin/../lib/gcc/nios2-elf/4.1.2/../../../../nios2-elf/lib\libc.a(lib_a-printf.o)
                0x00808ccc                printf
                0x00808d10                _printf_r
 .text          0x00808d44      0x1ec c:/altera/13.0/nios2eds/bin/gnu/h-i686-mingw32/bin/../lib/gcc/nios2-elf/4.1.2/../../../../nios2-elf/lib\libc.a(lib_a-putc.o)
                0x00808d44                putc
                0x00808e48                _putc_r
 .text          0x00808f30       0x24 c:/altera/13.0/nios2eds/bin/gnu/h-i686-mingw32/bin/../lib/gcc/nios2-elf/4.1.2/../../../../nios2-elf/lib\libc.a(lib_a-putchar.o)
                0x00808f30                putchar
                0x00808f4c                _putchar_r
 .text          0x00808f54       0xb4 c:/altera/13.0/nios2eds/bin/gnu/h-i686-mingw32/bin/../lib/gcc/nios2-elf/4.1.2/../../../../nios2-elf/lib\libc.a(lib_a-puts.o)
                0x00808f54                _puts_r
                0x00808ff4                puts
 .text          0x00809008      0x1e0 c:/altera/13.0/nios2eds/bin/gnu/h-i686-mingw32/bin/../lib/gcc/nios2-elf/4.1.2/../../../../nios2-elf/lib\libc.a(lib_a-refill.o)
                0x00809008                __srefill_r
 .text          0x008091e8       0x60 c:/altera/13.0/nios2eds/bin/gnu/h-i686-mingw32/bin/../lib/gcc/nios2-elf/4.1.2/../../../../nios2-elf/lib\libc.a(lib_a-rget.o)
                0x008091e8                __srget_r
                0x00809234                __srget
 .text          0x00809248       0x70 c:/altera/13.0/nios2eds/bin/gnu/h-i686-mingw32/bin/../lib/gcc/nios2-elf/4.1.2/../../../../nios2-elf/lib\libc.a(lib_a-sbrkr.o)
                0x00809248                _sbrk_r
 .text          0x008092b8       0xd4 c:/altera/13.0/nios2eds/bin/gnu/h-i686-mingw32/bin/../lib/gcc/nios2-elf/4.1.2/../../../../nios2-elf/lib\libc.a(lib_a-sprintf.o)
                0x008092b8                sprintf
                0x0080932c                _sprintf_r
 .text          0x0080938c      0x114 c:/altera/13.0/nios2eds/bin/gnu/h-i686-mingw32/bin/../lib/gcc/nios2-elf/4.1.2/../../../../nios2-elf/lib\libc.a(lib_a-sscanf.o)
                0x00809394                _sscanf_r
                0x0080941c                sscanf
 .text          0x008094a0      0x14c c:/altera/13.0/nios2eds/bin/gnu/h-i686-mingw32/bin/../lib/gcc/nios2-elf/4.1.2/../../../../nios2-elf/lib\libc.a(lib_a-stdio.o)
                0x008094a0                __sclose
                0x008094a8                __sseek
                0x00809510                __swrite
                0x0080958c                __sread
 .text          0x008095ec       0xb0 c:/altera/13.0/nios2eds/bin/gnu/h-i686-mingw32/bin/../lib/gcc/nios2-elf/4.1.2/../../../../nios2-elf/lib\libc.a(lib_a-strcasecmp.o)
                0x008095ec                strcasecmp
 .text          0x0080969c       0x90 c:/altera/13.0/nios2eds/bin/gnu/h-i686-mingw32/bin/../lib/gcc/nios2-elf/4.1.2/../../../../nios2-elf/lib\libc.a(lib_a-strcat.o)
                0x0080969c                strcat
 .text          0x0080972c       0xe0 c:/altera/13.0/nios2eds/bin/gnu/h-i686-mingw32/bin/../lib/gcc/nios2-elf/4.1.2/../../../../nios2-elf/lib\libc.a(lib_a-strchr.o)
                0x0080972c                strchr
 .text          0x0080980c       0xbc c:/altera/13.0/nios2eds/bin/gnu/h-i686-mingw32/bin/../lib/gcc/nios2-elf/4.1.2/../../../../nios2-elf/lib\libc.a(lib_a-strcmp.o)
                0x0080980c                strcmp
 .text          0x008098c8       0x8c c:/altera/13.0/nios2eds/bin/gnu/h-i686-mingw32/bin/../lib/gcc/nios2-elf/4.1.2/../../../../nios2-elf/lib\libc.a(lib_a-strcpy.o)
                0x008098c8                strcpy
 .text          0x00809954      0x674 c:/altera/13.0/nios2eds/bin/gnu/h-i686-mingw32/bin/../lib/gcc/nios2-elf/4.1.2/../../../../nios2-elf/lib\libc.a(lib_a-strerror.o)
                0x00809954                strerror
 .text          0x00809fc8       0x74 c:/altera/13.0/nios2eds/bin/gnu/h-i686-mingw32/bin/../lib/gcc/nios2-elf/4.1.2/../../../../nios2-elf/lib\libc.a(lib_a-strlen.o)
                0x00809fc8                strlen
 .text          0x0080a03c       0xf0 c:/altera/13.0/nios2eds/bin/gnu/h-i686-mingw32/bin/../lib/gcc/nios2-elf/4.1.2/../../../../nios2-elf/lib\libc.a(lib_a-strncmp.o)
                0x0080a03c                strncmp
 .text          0x0080a12c       0xbc c:/altera/13.0/nios2eds/bin/gnu/h-i686-mingw32/bin/../lib/gcc/nios2-elf/4.1.2/../../../../nios2-elf/lib\libc.a(lib_a-strncpy.o)
                0x0080a12c                strncpy
 .text          0x0080a1e8      0x794 c:/altera/13.0/nios2eds/bin/gnu/h-i686-mingw32/bin/../lib/gcc/nios2-elf/4.1.2/../../../../nios2-elf/lib\libc.a(lib_a-strstr.o)
                0x0080a31c                strstr
 .text          0x0080a97c       0x18 c:/altera/13.0/nios2eds/bin/gnu/h-i686-mingw32/bin/../lib/gcc/nios2-elf/4.1.2/../../../../nios2-elf/lib\libc.a(lib_a-strtok.o)
                0x0080a97c                strtok
 .text          0x0080a994       0xac c:/altera/13.0/nios2eds/bin/gnu/h-i686-mingw32/bin/../lib/gcc/nios2-elf/4.1.2/../../../../nios2-elf/lib\libc.a(lib_a-strtok_r.o)
                0x0080a994                __strtok_r
                0x0080aa38                strtok_r
 .text          0x0080aa40      0x268 c:/altera/13.0/nios2eds/bin/gnu/h-i686-mingw32/bin/../lib/gcc/nios2-elf/4.1.2/../../../../nios2-elf/lib\libc.a(lib_a-strtol.o)
                0x0080aa40                _strtol_r
                0x0080ac84                strtol
 .text          0x0080aca8        0x8 c:/altera/13.0/nios2eds/bin/gnu/h-i686-mingw32/bin/../lib/gcc/nios2-elf/4.1.2/../../../../nios2-elf/lib\libc.a(lib_a-u_strerr.o)
                0x0080aca8                _user_strerror
 .text          0x0080acb0     0x1f28 c:/altera/13.0/nios2eds/bin/gnu/h-i686-mingw32/bin/../lib/gcc/nios2-elf/4.1.2/../../../../nios2-elf/lib\libc.a(lib_a-vfprintf.o)
                0x0080ad08                ___vfprintf_internal_r
                0x0080cbb4                __vfprintf_internal
 .text          0x0080cbd8     0x1780 c:/altera/13.0/nios2eds/bin/gnu/h-i686-mingw32/bin/../lib/gcc/nios2-elf/4.1.2/../../../../nios2-elf/lib\libc.a(lib_a-vfscanf.o)
                0x0080cbd8                __svfscanf_r
                0x0080e258                __svfscanf
                0x0080e27c                _vfscanf_r
                0x0080e2e4                vfscanf
 .text          0x0080e358      0x14c c:/altera/13.0/nios2eds/bin/gnu/h-i686-mingw32/bin/../lib/gcc/nios2-elf/4.1.2/../../../../nios2-elf/lib\libc.a(lib_a-wbuf.o)
                0x0080e358                __swbuf_r
                0x0080e488                __swbuf
 .text          0x0080e4a4       0x78 c:/altera/13.0/nios2eds/bin/gnu/h-i686-mingw32/bin/../lib/gcc/nios2-elf/4.1.2/../../../../nios2-elf/lib\libc.a(lib_a-writer.o)
                0x0080e4a4                _write_r
 .text          0x0080e51c      0x13c c:/altera/13.0/nios2eds/bin/gnu/h-i686-mingw32/bin/../lib/gcc/nios2-elf/4.1.2/../../../../nios2-elf/lib\libc.a(lib_a-wsetup.o)
                0x0080e51c                __swsetup_r
 .text          0x0080e658       0x70 c:/altera/13.0/nios2eds/bin/gnu/h-i686-mingw32/bin/../lib/gcc/nios2-elf/4.1.2/../../../../nios2-elf/lib\libc.a(lib_a-closer.o)
                0x0080e658                _close_r
 .text          0x0080e6c8     0x17cc c:/altera/13.0/nios2eds/bin/gnu/h-i686-mingw32/bin/../lib/gcc/nios2-elf/4.1.2/../../../../nios2-elf/lib\libc.a(lib_a-dtoa.o)
                0x0080e8e0                _dtoa_r
 .text          0x0080fe94       0xa0 c:/altera/13.0/nios2eds/bin/gnu/h-i686-mingw32/bin/../lib/gcc/nios2-elf/4.1.2/../../../../nios2-elf/lib\libc.a(lib_a-flags.o)
                0x0080fe94                __sflags
 .text          0x0080ff34       0xbc c:/altera/13.0/nios2eds/bin/gnu/h-i686-mingw32/bin/../lib/gcc/nios2-elf/4.1.2/../../../../nios2-elf/lib\libc.a(lib_a-fputc.o)
                0x0080ff34                fputc
                0x0080ff98                _fputc_r
 .text          0x0080fff0       0x90 c:/altera/13.0/nios2eds/bin/gnu/h-i686-mingw32/bin/../lib/gcc/nios2-elf/4.1.2/../../../../nios2-elf/lib\libc.a(lib_a-fputs.o)
                0x0080fff0                _fputs_r
                0x00810064                fputs
 .text          0x00810080      0x49c c:/altera/13.0/nios2eds/bin/gnu/h-i686-mingw32/bin/../lib/gcc/nios2-elf/4.1.2/../../../../nios2-elf/lib\libc.a(lib_a-fvwrite.o)
                0x00810080                __sfvwrite_r
 .text          0x0081051c       0x70 c:/altera/13.0/nios2eds/bin/gnu/h-i686-mingw32/bin/../lib/gcc/nios2-elf/4.1.2/../../../../nios2-elf/lib\libc.a(lib_a-isattyr.o)
                0x0081051c                _isatty_r
 .text          0x0081058c       0x2c c:/altera/13.0/nios2eds/bin/gnu/h-i686-mingw32/bin/../lib/gcc/nios2-elf/4.1.2/../../../../nios2-elf/lib\libc.a(lib_a-iswspace.o)
                0x0081058c                iswspace
 .text          0x008105b8       0xc4 c:/altera/13.0/nios2eds/bin/gnu/h-i686-mingw32/bin/../lib/gcc/nios2-elf/4.1.2/../../../../nios2-elf/lib\libc.a(lib_a-locale.o)
                0x008105b8                __locale_charset
                0x008105c0                _localeconv_r
                0x008105cc                localeconv
                0x008105dc                _setlocale_r
                0x00810660                setlocale
 .text          0x0081067c       0x78 c:/altera/13.0/nios2eds/bin/gnu/h-i686-mingw32/bin/../lib/gcc/nios2-elf/4.1.2/../../../../nios2-elf/lib\libc.a(lib_a-lseekr.o)
                0x0081067c                _lseek_r
 .text          0x008106f4       0xc0 c:/altera/13.0/nios2eds/bin/gnu/h-i686-mingw32/bin/../lib/gcc/nios2-elf/4.1.2/../../../../nios2-elf/lib\libc.a(lib_a-mbrtowc.o)
                0x008106f4                _mbrtowc_r
                0x00810774                mbrtowc
 .text          0x008107b4       0x40 c:/altera/13.0/nios2eds/bin/gnu/h-i686-mingw32/bin/../lib/gcc/nios2-elf/4.1.2/../../../../nios2-elf/lib\libc.a(lib_a-mbtowc_r.o)
                0x008107b4                _mbtowc_r
 .text          0x008107f4       0xe4 c:/altera/13.0/nios2eds/bin/gnu/h-i686-mingw32/bin/../lib/gcc/nios2-elf/4.1.2/../../../../nios2-elf/lib\libc.a(lib_a-memchr.o)
                0x008107f4                memchr
 .text          0x008108d8       0x74 c:/altera/13.0/nios2eds/bin/gnu/h-i686-mingw32/bin/../lib/gcc/nios2-elf/4.1.2/../../../../nios2-elf/lib\libc.a(lib_a-memcmp.o)
                0x008108d8                memcmp
 .text          0x0081094c      0xff4 c:/altera/13.0/nios2eds/bin/gnu/h-i686-mingw32/bin/../lib/gcc/nios2-elf/4.1.2/../../../../nios2-elf/lib\libc.a(lib_a-mprec.o)
                0x0081094c                _Bfree
                0x00810974                __hi0bits
                0x008109e4                __lo0bits
                0x00810aa8                __mcmp
                0x00810b08                __ulp
                0x00810b88                __b2d
                0x00810ca8                __ratio
                0x00810d58                _mprec_log10
                0x00810dec                __copybits
                0x00810e44                __any_on
                0x00810ecc                _Balloc
                0x00810f88                __d2b
                0x00811104                __mdiff
                0x00811290                __lshift
                0x008113dc                __multiply
                0x008115c4                __i2b
                0x00811600                __multadd
                0x00811700                __pow5mult
                0x00811820                __s2b
 .text          0x00811940       0x78 c:/altera/13.0/nios2eds/bin/gnu/h-i686-mingw32/bin/../lib/gcc/nios2-elf/4.1.2/../../../../nios2-elf/lib\libc.a(lib_a-readr.o)
                0x00811940                _read_r
 .text          0x008119b8      0x5f4 c:/altera/13.0/nios2eds/bin/gnu/h-i686-mingw32/bin/../lib/gcc/nios2-elf/4.1.2/../../../../nios2-elf/lib\libc.a(lib_a-reallocr.o)
                0x008119b8                _realloc_r
 .text          0x00811fac       0x40 c:/altera/13.0/nios2eds/bin/gnu/h-i686-mingw32/bin/../lib/gcc/nios2-elf/4.1.2/../../../../nios2-elf/lib\libc.a(lib_a-s_isinfd.o)
                0x00811fac                __isinfd
 .text          0x00811fec       0x30 c:/altera/13.0/nios2eds/bin/gnu/h-i686-mingw32/bin/../lib/gcc/nios2-elf/4.1.2/../../../../nios2-elf/lib\libc.a(lib_a-s_isnand.o)
                0x00811fec                __isnand
 .text          0x0081201c       0xc0 c:/altera/13.0/nios2eds/bin/gnu/h-i686-mingw32/bin/../lib/gcc/nios2-elf/4.1.2/../../../../nios2-elf/lib\libc.a(lib_a-sccl.o)
                0x0081201c                __sccl
 .text          0x008120dc        0x8 c:/altera/13.0/nios2eds/bin/gnu/h-i686-mingw32/bin/../lib/gcc/nios2-elf/4.1.2/../../../../nios2-elf/lib\libc.a(lib_a-sf_nan.o)
                0x008120dc                nanf
 .text          0x008120e4     0x166c c:/altera/13.0/nios2eds/bin/gnu/h-i686-mingw32/bin/../lib/gcc/nios2-elf/4.1.2/../../../../nios2-elf/lib\libc.a(lib_a-strtod.o)
                0x0081212c                _strtod_r
                0x00813610                strtof
                0x00813734                strtod
 .text          0x00813750      0x318 c:/altera/13.0/nios2eds/bin/gnu/h-i686-mingw32/bin/../lib/gcc/nios2-elf/4.1.2/../../../../nios2-elf/lib\libc.a(lib_a-strtoll_r.o)
                0x00813750                _strtoll_r
 .text          0x00813a68      0x254 c:/altera/13.0/nios2eds/bin/gnu/h-i686-mingw32/bin/../lib/gcc/nios2-elf/4.1.2/../../../../nios2-elf/lib\libc.a(lib_a-strtoul.o)
                0x00813a68                _strtoul_r
                0x00813c98                strtoul
 .text          0x00813cbc      0x2f0 c:/altera/13.0/nios2eds/bin/gnu/h-i686-mingw32/bin/../lib/gcc/nios2-elf/4.1.2/../../../../nios2-elf/lib\libc.a(lib_a-strtoull_r.o)
                0x00813cbc                _strtoull_r
 .text          0x00813fac      0x294 c:/altera/13.0/nios2eds/bin/gnu/h-i686-mingw32/bin/../lib/gcc/nios2-elf/4.1.2/../../../../nios2-elf/lib\libc.a(lib_a-ungetc.o)
                0x00813fac                __submore
                0x00814088                _ungetc_r
                0x00814224                ungetc
 .text          0x00814240       0xb4 c:/altera/13.0/nios2eds/bin/gnu/h-i686-mingw32/bin/../lib/gcc/nios2-elf/4.1.2/../../../../nios2-elf/lib\libc.a(lib_a-callocr.o)
                0x00814240                _calloc_r
 .text          0x008142f4      0x8f4 c:/altera/13.0/nios2eds/bin/gnu/h-i686-mingw32/bin/../lib/gcc/nios2-elf/4.1.2/../../../../nios2-elf/lib\libc.a(lib_a-gdtoa-gethex.o)
                0x00814318                __hexdig_init
                0x00814430                __gethex
 .text          0x00814be8      0x294 c:/altera/13.0/nios2eds/bin/gnu/h-i686-mingw32/bin/../lib/gcc/nios2-elf/4.1.2/../../../../nios2-elf/lib\libc.a(lib_a-gdtoa-hexnan.o)
                0x00814c34                __hexnan
 .text          0x00814e7c      0x5dc c:/altera/13.0/nios2eds/bin/gnu/h-i686-mingw32/bin/../lib/gcc/nios2-elf/4.1.2\libgcc.a(_udivdi3.o)
                0x00814e7c                __udivdi3
 .text          0x00815458      0x5b0 c:/altera/13.0/nios2eds/bin/gnu/h-i686-mingw32/bin/../lib/gcc/nios2-elf/4.1.2\libgcc.a(_umoddi3.o)
                0x00815458                __umoddi3
 .text          0x00815a08       0x78 c:/altera/13.0/nios2eds/bin/gnu/h-i686-mingw32/bin/../lib/gcc/nios2-elf/4.1.2\libgcc.a(_ne_sf.o)
                0x00815a08                __nesf2
 .text          0x00815a80       0x78 c:/altera/13.0/nios2eds/bin/gnu/h-i686-mingw32/bin/../lib/gcc/nios2-elf/4.1.2\libgcc.a(_gt_sf.o)
                0x00815a80                __gtsf2
 .text          0x00815af8       0x78 c:/altera/13.0/nios2eds/bin/gnu/h-i686-mingw32/bin/../lib/gcc/nios2-elf/4.1.2\libgcc.a(_lt_sf.o)
                0x00815af8                __ltsf2
 .text          0x00815b70      0x258 c:/altera/13.0/nios2eds/bin/gnu/h-i686-mingw32/bin/../lib/gcc/nios2-elf/4.1.2\libgcc.a(_div_df.o)
                0x00815b70                __divdf3
 .text          0x00815dc8       0x88 c:/altera/13.0/nios2eds/bin/gnu/h-i686-mingw32/bin/../lib/gcc/nios2-elf/4.1.2\libgcc.a(_eq_df.o)
                0x00815dc8                __eqdf2
 .text          0x00815e50       0x88 c:/altera/13.0/nios2eds/bin/gnu/h-i686-mingw32/bin/../lib/gcc/nios2-elf/4.1.2\libgcc.a(_ne_df.o)
                0x00815e50                __nedf2
 .text          0x00815ed8       0x88 c:/altera/13.0/nios2eds/bin/gnu/h-i686-mingw32/bin/../lib/gcc/nios2-elf/4.1.2\libgcc.a(_gt_df.o)
                0x00815ed8                __gtdf2
 .text          0x00815f60       0x88 c:/altera/13.0/nios2eds/bin/gnu/h-i686-mingw32/bin/../lib/gcc/nios2-elf/4.1.2\libgcc.a(_lt_df.o)
                0x00815f60                __ltdf2
 .text          0x00815fe8       0x88 c:/altera/13.0/nios2eds/bin/gnu/h-i686-mingw32/bin/../lib/gcc/nios2-elf/4.1.2\libgcc.a(_le_df.o)
                0x00815fe8                __ledf2
 .text          0x00816070       0xf8 c:/altera/13.0/nios2eds/bin/gnu/h-i686-mingw32/bin/../lib/gcc/nios2-elf/4.1.2\libgcc.a(_si_to_df.o)
                0x00816070                __floatsidf
 .text          0x00816168       0x74 c:/altera/13.0/nios2eds/bin/gnu/h-i686-mingw32/bin/../lib/gcc/nios2-elf/4.1.2\libgcc.a(_df_to_sf.o)
                0x00816168                __truncdfsf2
 .text          0x008161dc       0xc8 c:/altera/13.0/nios2eds/bin/gnu/h-i686-mingw32/bin/../lib/gcc/nios2-elf/4.1.2\libgcc.a(_unpack_sf.o)
                0x008161dc                __unpack_f
 .text          0x008162a4       0xa8 c:/altera/13.0/nios2eds/bin/gnu/h-i686-mingw32/bin/../lib/gcc/nios2-elf/4.1.2\libgcc.a(_fpcmp_parts_sf.o)
                0x008162a4                __fpcmp_parts_f
 .text          0x0081634c       0x2c c:/altera/13.0/nios2eds/bin/gnu/h-i686-mingw32/bin/../lib/gcc/nios2-elf/4.1.2\libgcc.a(_make_sf.o)
                0x0081634c                __make_fp
 .text          0x00816378      0x160 c:/altera/13.0/nios2eds/bin/gnu/h-i686-mingw32/bin/../lib/gcc/nios2-elf/4.1.2\libgcc.a(_pack_sf.o)
                0x00816378                __pack_f
 .text          0x008164d8       0x78 ../WebServer_bsp/\libucosii_bsp.a(alt_dcache_flush.o)
                0x008164d8                alt_dcache_flush
 .text          0x00816550       0xd0 ../WebServer_bsp/\libucosii_bsp.a(alt_flash_dev.o)
                0x00816550                alt_flash_open_dev
                0x008165cc                alt_flash_close_dev
 .text          0x00816620      0x134 ../WebServer_bsp/\libucosii_bsp.a(alt_fstat.o)
                0x00816620                fstat
 .text          0x00816754      0x1c0 ../WebServer_bsp/\libucosii_bsp.a(alt_irq_register.o)
                0x00816754                alt_irq_register
 .text          0x00816914        0x0 ../WebServer_bsp/\libucosii_bsp.a(alt_irq_vars.o)
 .text          0x00816914      0x120 ../WebServer_bsp/\libucosii_bsp.a(alt_isatty.o)
                0x00816914                isatty
 .text          0x00816a34      0x150 ../WebServer_bsp/\libucosii_bsp.a(alt_lseek.o)
                0x00816a34                lseek
 .text          0x00816b84       0xc8 ../WebServer_bsp/\libucosii_bsp.a(alt_main.o)
                0x00816b84                alt_main
 .text          0x00816c4c      0x2c4 ../WebServer_bsp/\libucosii_bsp.a(alt_open.o)
                0x00816d28                open
 .text          0x00816f10       0x60 ../WebServer_bsp/\libucosii_bsp.a(alt_release_fd.o)
                0x00816f10                alt_release_fd
 .text          0x00816f70       0xbc ../WebServer_bsp/\libucosii_bsp.a(alt_sbrk.o)
                0x00816f70                sbrk
 .text          0x0081702c      0x1a8 ../WebServer_bsp/\libucosii_bsp.a(alt_tick.o)
                0x0081702c                alt_alarm_stop
                0x008170c4                alt_tick
 .text          0x008171d4      0x118 ../WebServer_bsp/\libucosii_bsp.a(alt_usleep.o)
                0x008171d4                usleep
 .text          0x008172ec      0x108 ../WebServer_bsp/\libucosii_bsp.a(alt_env_lock.o)
                0x008172ec                __env_lock
                0x00817398                __env_unlock
 .text          0x008173f4      0x1d8 ../WebServer_bsp/\libucosii_bsp.a(alt_malloc_lock.o)
                0x008173f4                __malloc_lock
                0x008174fc                __malloc_unlock
 .text          0x008175cc     0x2128 ../WebServer_bsp/\libucosii_bsp.a(os_core.o)
                0x008175cc                OSEventNameGet
                0x008176fc                OSEventNameSet
                0x00817840                OSEventPendMulti
                0x00817ef4                OSInit
                0x00817f48                OSIntEnter
                0x00817fc4                OSIntExit
                0x008180c4                OSSchedLock
                0x00818150                OSSchedUnlock
                0x00818234                OSStart
                0x008182a4                OSStatInit
                0x00818350                OSTimeTick
                0x00818590                OSVersion
                0x008185b0                OS_Dummy
                0x008185cc                OS_EventTaskRdy
                0x00818760                OS_EventTaskWait
                0x00818870                OS_EventTaskWaitMulti
                0x008189c4                OS_EventTaskRemove
                0x00818a7c                OS_EventTaskRemoveMulti
                0x00818b80                OS_EventWaitListInit
                0x00818f4c                OS_MemClr
                0x00818fa0                OS_MemCopy
                0x0081900c                OS_Sched
                0x00819150                OS_StrCopy
                0x008191d0                OS_StrLen
                0x00819228                OS_TaskIdle
                0x00819284                OS_TaskStat
                0x0081934c                OS_TaskStatStkChk
                0x00819414                OS_TCBInit
 .text          0x008196f4      0x18c ../WebServer_bsp/\libucosii_bsp.a(os_dbg.o)
                0x008196f4                OSDebugInit
 .text          0x00819880     0x193c ../WebServer_bsp/\libucosii_bsp.a(os_flag.o)
                0x00819880                OSFlagAccept
                0x00819bb4                OSFlagCreate
                0x00819cf0                OSFlagDel
                0x00819f98                OSFlagNameGet
                0x0081a0dc                OSFlagNameSet
                0x0081a230                OSFlagPend
                0x0081a874                OSFlagPendGetFlagsRdy
                0x0081a8dc                OSFlagPost
                0x0081ac84                OSFlagQuery
                0x0081af1c                OS_FlagInit
                0x0081b110                OS_FlagUnlink
 .text          0x0081b1bc      0xc8c ../WebServer_bsp/\libucosii_bsp.a(os_mbox.o)
                0x0081b1bc                OSMboxAccept
                0x0081b260                OSMboxCreate
                0x0081b374                OSMboxDel
                0x0081b614                OSMboxPend
                0x0081b8dc                OSMboxPendAbort
                0x0081ba58                OSMboxPost
                0x0081bb8c                OSMboxPostOpt
                0x0081bd18                OSMboxQuery
 .text          0x0081be48      0x808 ../WebServer_bsp/\libucosii_bsp.a(os_mem.o)
                0x0081be48                OSMemCreate
                0x0081c064                OSMemGet
                0x0081c168                OSMemNameGet
                0x0081c274                OSMemNameSet
                0x0081c394                OSMemPut
                0x0081c484                OSMemQuery
                0x0081c580                OS_MemInit
 .text          0x0081c650     0x1334 ../WebServer_bsp/\libucosii_bsp.a(os_q.o)
                0x0081c650                OSQAccept
                0x0081c7a4                OSQCreate
                0x0081c9b8                OSQDel
                0x0081ccb8                OSQFlush
                0x0081cd80                OSQPend
                0x0081d0a0                OSQPendAbort
                0x0081d21c                OSQPost
                0x0081d39c                OSQPostFront
                0x0081d524                OSQPostOpt
                0x0081d758                OSQQuery
                0x0081d8d8                OS_QInit
 .text          0x0081d984      0xbc8 ../WebServer_bsp/\libucosii_bsp.a(os_sem.o)
                0x0081d984                OSSemAccept
                0x0081da44                OSSemCreate
                0x0081db58                OSSemDel
                0x0081ddf8                OSSemPend
                0x0081e074                OSSemPendAbort
                0x0081e1f0                OSSemPost
                0x0081e318                OSSemQuery
                0x0081e448                OSSemSet
 .text          0x0081e54c     0x1a40 ../WebServer_bsp/\libucosii_bsp.a(os_task.o)
                0x0081e54c                OSTaskChangePrio
                0x0081eac0                OSTaskCreate
                0x0081ec94                OSTaskCreateExt
                0x0081ee94                OSTaskDel
                0x0081f2a0                OSTaskDelReq
                0x0081f410                OSTaskNameGet
                0x0081f5c8                OSTaskNameSet
                0x0081f78c                OSTaskResume
                0x0081f9a4                OSTaskStkChk
                0x0081fba0                OSTaskSuspend
                0x0081fdcc                OSTaskQuery
                0x0081ff10                OS_TaskStkClr
 .text          0x0081ff8c      0x670 ../WebServer_bsp/\libucosii_bsp.a(os_time.o)
                0x0081ff8c                OSTimeDly
                0x008200d8                OSTimeDlyHMSM
                0x00820324                OSTimeDlyResume
                0x00820534                OSTimeGet
                0x00820598                OSTimeSet
 .text          0x008205fc      0x138 ../WebServer_bsp/\libucosii_bsp.a(alt_sys_init.o)
                0x008205fc                alt_irq_init
                0x00820630                alt_sys_init
 .text          0x00820734      0x8c8 ../WebServer_bsp/\libucosii_bsp.a(altera_avalon_cfi_flash.o)
                0x00820734                alt_flash_cfi_init
                0x00820808                alt_flash_cfi_write
                0x00820ac8                alt_flash_cfi_get_info
                0x00820b58                alt_flash_cfi_read
                0x00820bc0                alt_write_value_to_flash
                0x00820d24                alt_flash_program_block
 .text          0x00820ffc     0x14a8 ../WebServer_bsp/\libucosii_bsp.a(altera_avalon_cfi_flash_table.o)
                0x00820ffc                alt_read_query_entry_8bit
                0x0082103c                alt_read_query_entry_16bit
                0x00821080                alt_read_query_entry_32bit
                0x008210c8                alt_write_flash_command_8bit_device_8bit_mode
                0x00821104                alt_write_flash_command_16bit_device_8bit_mode
                0x00821180                alt_write_flash_command_32bit_device_8bit_mode
                0x008211c8                alt_write_flash_command_16bit_device_16bit_mode
                0x0082120c                alt_write_flash_command_32bit_device_16bit_mode
                0x00821254                alt_write_flash_command_32bit_device_32bit_mode
                0x0082129c                alt_write_native_8bit
                0x008212d0                alt_write_native_16bit
                0x00821304                alt_write_native_32bit
                0x00821334                alt_set_flash_width_func
                0x00821514                alt_set_flash_algorithm_func
                0x0082163c                alt_read_cfi_table
                0x00821c1c                alt_read_cfi_width
                0x008223c8                alt_check_primary_table
 .text          0x008224a4      0x9e4 ../WebServer_bsp/\libucosii_bsp.a(altera_avalon_epcs_flash_controller.o)
                0x008224a4                alt_epcs_flash_init
                0x008228c0                alt_epcs_flash_write
                0x00822b40                alt_epcs_flash_get_info
                0x00822bd0                alt_epcs_flash_erase_block
                0x00822cd4                alt_epcs_flash_write_block
                0x00822df0                alt_epcs_flash_read
 .text          0x00822e88      0x148 ../WebServer_bsp/\libucosii_bsp.a(altera_avalon_jtag_uart_fd.o)
                0x00822e88                altera_avalon_jtag_uart_read_fd
                0x00822ee0                altera_avalon_jtag_uart_write_fd
                0x00822f38                altera_avalon_jtag_uart_close_fd
                0x00822f80                altera_avalon_jtag_uart_ioctl_fd
 .text          0x00822fd0      0x584 ../WebServer_bsp/\libucosii_bsp.a(altera_avalon_jtag_uart_init.o)
                0x00822fd0                altera_avalon_jtag_uart_init
                0x008234e0                altera_avalon_jtag_uart_close
 .text          0x00823554       0xf4 ../WebServer_bsp/\libucosii_bsp.a(altera_avalon_jtag_uart_ioctl.o)
                0x00823554                altera_avalon_jtag_uart_ioctl
 .text          0x00823648      0x2c0 ../WebServer_bsp/\libucosii_bsp.a(altera_avalon_jtag_uart_read.o)
                0x00823648                altera_avalon_jtag_uart_read
 .text          0x00823908      0x2dc ../WebServer_bsp/\libucosii_bsp.a(altera_avalon_jtag_uart_write.o)
                0x00823908                altera_avalon_jtag_uart_write
 .text          0x00823be4      0xf3c ../WebServer_bsp/\libucosii_bsp.a(altera_avalon_lcd_16207.o)
                0x008243b8                altera_avalon_lcd_16207_write
                0x008249bc                altera_avalon_lcd_16207_init
 .text          0x00824b20       0x58 ../WebServer_bsp/\libucosii_bsp.a(altera_avalon_lcd_16207_fd.o)
                0x00824b20                altera_avalon_lcd_16207_write_fd
 .text          0x00824b78      0x100 ../WebServer_bsp/\libucosii_bsp.a(altera_avalon_timer_sc.o)
                0x00824be8                alt_avalon_timer_sc_init
 .text          0x00824c78       0xf8 ../WebServer_bsp/\libucosii_bsp.a(altera_avalon_uart_fd.o)
                0x00824c78                altera_avalon_uart_read_fd
                0x00824cd0                altera_avalon_uart_write_fd
                0x00824d28                altera_avalon_uart_close_fd
 .text          0x00824d70      0x57c ../WebServer_bsp/\libucosii_bsp.a(altera_avalon_uart_init.o)
                0x00824d70                altera_avalon_uart_init
                0x0082528c                altera_avalon_uart_close
 .text          0x008252ec      0x310 ../WebServer_bsp/\libucosii_bsp.a(altera_avalon_uart_read.o)
                0x008252ec                altera_avalon_uart_read
 .text          0x008255fc      0x2a8 ../WebServer_bsp/\libucosii_bsp.a(altera_avalon_uart_write.o)
                0x008255fc                altera_avalon_uart_write
 .text          0x008258a4      0xb70 ../WebServer_bsp/\libucosii_bsp.a(altera_ro_zipfs.o)
                0x00825b18                check_directory_header
                0x00826070                alt_ro_zipfs_open
                0x00826108                alt_ro_zipfs_read
                0x00826204                alt_ro_zipfs_seek
                0x0082634c                alt_ro_zipfs_fstat
                0x008263bc                alt_ro_zipfs_check_valid
 .text          0x00826414      0x6d4 ../WebServer_bsp/\libucosii_bsp.a(epcs_commands.o)
                0x00826414                epcs_read_status_register
                0x00826474                epcs_sector_erase
                0x008265dc                epcs_read_buffer
                0x00826728                epcs_write_enable
                0x00826778                epcs_write_status_register
                0x008267dc                epcs_write_buffer
                0x0082694c                epcs_read_electronic_signature
                0x008269b8                epcs_read_device_id
                0x00826a38                epcs_enter_4_bytes_mode
                0x00826a90                epcs_exit_4_bytes_mode
 .text          0x00826ae8       0x54 ../WebServer_bsp/\libucosii_bsp.a(alt_iniche_close.o)
                0x00826ae8                close
 .text          0x00826b3c      0x144 ../WebServer_bsp/\libucosii_bsp.a(alt_iniche_dev.o)
                0x00826b3c                iniche_devices_init
 .text          0x00826c80       0x78 ../WebServer_bsp/\libucosii_bsp.a(alt_iniche_read.o)
                0x00826c80                read
 .text          0x00826cf8       0x70 ../WebServer_bsp/\libucosii_bsp.a(alt_iniche_write.o)
                0x00826cf8                write
 .text          0x00826d68      0xedc ../WebServer_bsp/\libucosii_bsp.a(ipnet.o)
                0x00826d68                Netinit
                0x008273b4                fixup_subnet_mask
                0x00827514                netclose
                0x008275fc                pktdemux
                0x008279d0                c_older
                0x00827aa0                ip2mac
 .text          0x00827c44      0x4b0 ../WebServer_bsp/\libucosii_bsp.a(ipstart.o)
                0x00827c44                ip_startup
                0x00827f28                exit_hook
                0x00827f94                ip_exit
                0x00828064                if_netnumber
 .text          0x008280f4     0x10e8 ../WebServer_bsp/\libucosii_bsp.a(igmp_cmn.o)
                0x008280f4                igmp_init
                0x008281e4                igmp_input
                0x008282dc                igmp_fasttimo
                0x00828510                igmp_send
                0x008287b8                igmp_joingroup
                0x00828a24                igmp_leavegroup
                0x00828aa0                igmp_validate
                0x00828dfc                igmp_print_stats
 .text          0x008291dc      0xbc8 ../WebServer_bsp/\libucosii_bsp.a(bsdsock.o)
                0x008291dc                bsd_accept
                0x00829314                bsd_getpeername
                0x00829440                bsd_getsockname
                0x0082956c                bsd_i_sockoptlen
                0x00829724                bsd_getsockopt
                0x00829844                bsd_ioctl
                0x00829948                bsd_inet_ntoa
                0x00829978                bsd_recvfrom
                0x00829ad8                bsd_select
                0x00829cb8                bsd_setsockopt
 .text          0x00829da4      0x118 ../WebServer_bsp/\libucosii_bsp.a(cksum.o)
                0x00829da4                ccksum
                0x00829e54                cksum
 .text          0x00829ebc      0xa9c ../WebServer_bsp/\libucosii_bsp.a(in_utils.o)
                0x00829ebc                do_trap
                0x00829ee8                nextarg
                0x00829f64                hexdump
                0x0082a0ac                print_ipad
                0x0082a120                print_uptime
                0x0082a24c                panic
                0x0082a290                print_eth
                0x0082a3f4                uslash
                0x0082a474                ns_printf
                0x0082a5f8                std_out
                0x0082a63c                con_page
                0x0082a72c                parse_args
 .text          0x0082a958      0x1c8 ../WebServer_bsp/\libucosii_bsp.a(netmain.o)
                0x0082a958                netmain
                0x0082aa4c                tk_netmain
                0x0082aad4                tk_nettick
 .text          0x0082ab20      0x5e8 ../WebServer_bsp/\libucosii_bsp.a(tk_crnos.o)
                0x0082ab20                TK_OSTimeDly
                0x0082ab4c                TK_OSTaskResume
                0x0082abbc                tcp_sleep
                0x0082ad5c                tcp_wakeup
                0x0082ae60                TK_OSTaskQuery
                0x0082aed4                tk_yield
                0x0082af00                tk_stats
 .text          0x0082b108     0x3294 ../WebServer_bsp/\libucosii_bsp.a(dhcpclnt.o)
                0x0082b108                dhc_get_srv_ipaddr
                0x0082b198                dhc_init
                0x0082b254                dhc_set_callback
                0x0082b298                dhc_upcall
                0x0082bac8                dhc_buildheader
                0x0082bce4                dhc_discover
                0x0082c1fc                dhc_rx_offer
                0x0082c300                dhc_request
                0x0082ce3c                dhc_setip
                0x0082d0bc                dhc_resetip
                0x0082d1a0                dhc_decline
                0x0082d384                dhc_extract_opts
                0x0082d640                dhc_second
                0x0082df30                dhc_halt
                0x0082dfb8                dhc_reclaim
                0x0082e188                dhc_state_init
                0x0082e1e8                dhc_alldone
                0x0082e278                dhc_ifacedone
                0x0082e2ec                dhc_set_state
 .text          0x0082e39c       0xcc ../WebServer_bsp/\libucosii_bsp.a(dhcputil.o)
                0x0082e39c                find_opt
 .text          0x0082e468      0x79c ../WebServer_bsp/\libucosii_bsp.a(pktalloc.o)
                0x0082e468                pk_init
                0x0082e6f8                pk_alloc
                0x0082e7d4                pk_validate
                0x0082ea8c                pk_free
                0x0082eb38                pk_get_max_intrsafe_buf_len
                0x0082eb58                dump_buf_estats
 .text          0x0082ec04      0x288 ../WebServer_bsp/\libucosii_bsp.a(q.o)
                0x0082ec04                getq
                0x0082eccc                putq
                0x0082ed7c                qdel
 .text          0x0082ee8c      0x31c ../WebServer_bsp/\libucosii_bsp.a(udp_open.o)
                0x0082ee8c                udp_open
                0x0082f0c4                udp_close
 .text          0x0082f1a8      0x194 ../WebServer_bsp/\libucosii_bsp.a(asm_cksum.o)
                0x0082f1a8                asm_cksum
 .text          0x0082f33c      0x2e4 ../WebServer_bsp/\libucosii_bsp.a(brdutils.o)
                0x0082f33c                dtrap
                0x0082f36c                kbhit
                0x0082f418                getch
                0x0082f478                clock_init
                0x0082f4b4                clock_c
                0x0082f4d0                cticks_hook
                0x0082f580                irq_Mask
                0x0082f5dc                irq_Unmask
 .text          0x0082f620      0x488 ../WebServer_bsp/\libucosii_bsp.a(osportco.o)
                0x0082f620                LOCK_NET_RESOURCE
                0x0082f6e0                UNLOCK_NET_RESOURCE
                0x0082f768                TK_NEWTASK
                0x0082f97c                wait_app_sem
                0x0082fa30                post_app_sem
 .text          0x0082faa8      0x568 ../WebServer_bsp/\libucosii_bsp.a(targnios.o)
                0x0082faa8                alt_iniche_init
                0x0082fcc4                pre_task_setup
                0x0082fd38                post_task_setup
                0x0082fd58                prep_armintcp
                0x0082fd90                calloc2
                0x0082fdc4                npalloc
                0x0082feb8                npfree
                0x0082ff70                ncpalloc
                0x0082ffc4                ncpfree
 .text          0x00830010     0x19b8 ../WebServer_bsp/\libucosii_bsp.a(nptcp.o)
                0x00830010                pffindtype
                0x008300b0                pffindproto
                0x00830180                m_getnbuf
                0x00830328                m_free
                0x0083045c                m_freem
                0x008304a0                m_copy
                0x008307c4                m_adj
                0x00830994                mbuf_len
                0x008309ec                dtom
                0x00830a94                remque
                0x00830b04                insque
                0x00830b80                nptcp_init
                0x00830ca4                tcp_rcv
                0x00830e90                ip_output
                0x00831488                in_broadcast
                0x008314c8                np_stripoptions
                0x008315b0                so_icmpdu
                0x00831908                tcp_tick
 .text          0x008319c8      0xa2c ../WebServer_bsp/\libucosii_bsp.a(rawsock.o)
                0x008319c8                rawip_lookup
                0x00831a38                rawip_soinput
                0x00831c0c                rawip_usrreq
 .text          0x008323f4     0x17fc ../WebServer_bsp/\libucosii_bsp.a(sockcall.o)
                0x008323f4                DOMAIN_CHECK
                0x00832440                t_socket
                0x008324d0                t_bind
                0x0083264c                t_listen
                0x00832730                t_accept
                0x008329c8                t_connect
                0x00832c70                t_getpeername
                0x00832cb4                t_getsockname
                0x00832ef4                t_setsockopt
                0x008330d0                t_getsockopt
                0x00833274                t_recv
                0x00833364                t_recvfrom
                0x008334b4                t_sendto
                0x008336e0                t_send
                0x00833908                t_shutdown
                0x008339ec                t_socketclose
                0x00833b54                t_errno
 .text          0x00833bf0     0x23ec ../WebServer_bsp/\libucosii_bsp.a(socket.o)
                0x00833bf0                socreate
                0x00833dbc                sobind
                0x00833e18                solisten
                0x00833f08                sofree
                0x00834038                soclose
                0x008343a4                soabort
                0x008343f4                soaccept
                0x00834490                soconnect
                0x00834564                sodisconnect
                0x00834604                sosend
                0x00834c0c                soreceive
                0x008353f0                soshutdown
                0x00835498                sorflush
                0x00835598                sosetopt
                0x00835a58                sogetopt
                0x00835f98                sohasoutofband
 .text          0x00835fdc     0x12f8 ../WebServer_bsp/\libucosii_bsp.a(socket2.o)
                0x00835fdc                soisconnecting
                0x00836048                soisconnected
                0x00836144                soisdisconnecting
                0x008361d0                soisdisconnected
                0x0083628c                sonewconn
                0x008364a8                soqinsque
                0x00836554                soqremque
                0x00836674                socantsendmore
                0x008366c4                socantrcvmore
                0x00836714                sbselqueue
                0x0083674c                sbwait
                0x008367b4                sbwakeup
                0x00836850                soreserve
                0x008368d0                sbreserve
                0x00836930                sbrelease
                0x00836978                sbappend
                0x00836a20                sbappendrecord
                0x00836b00                sbappendaddr
                0x00836ce8                sbcompress
                0x00836ed0                sbflush
                0x00836f60                sbdrop
                0x00837130                sbdropend
                0x00837240                sbdroprecord
 .text          0x008372d4      0x914 ../WebServer_bsp/\libucosii_bsp.a(soselect.o)
                0x008372d4                t_select
                0x008374f4                sock_selscan
                0x0083764c                sock_select
                0x00837860                in_pcbnotify
                0x0083792c                tcp_notify
                0x00837994                ifd_clr
                0x00837a84                ifd_set
                0x00837af8                ifd_isset
                0x00837b78                ifd_get
 .text          0x00837be8     0x3020 ../WebServer_bsp/\libucosii_bsp.a(tcp_in.o)
                0x00837be8                tcp_reass
                0x00837ff0                tcp_input
                0x0083a544                tcp_dooptions
                0x0083a6d4                tcp_pulloutofband
                0x0083a800                tcp_xmit_timer
                0x0083aaa4                ip4_tcpmss
                0x0083aaec                tcp_mss
 .text          0x0083ac08     0x1360 ../WebServer_bsp/\libucosii_bsp.a(tcp_out.o)
                0x0083ac08                tcp_output
                0x0083bd84                tcp_setpersist
 .text          0x0083bf68      0x9e8 ../WebServer_bsp/\libucosii_bsp.a(tcp_subr.o)
                0x0083bf68                tcp_init
                0x0083bfc0                tcp_template
                0x0083c0d8                tcp_respond
                0x0083c560                tcp_newtcpcb
                0x0083c678                tcp_drop
                0x0083c724                tcp_close
                0x0083c80c                tcp_quench
                0x0083c858                tcp_putseq
                0x0083c8d8                tcp_getseq
 .text          0x0083c950      0x798 ../WebServer_bsp/\libucosii_bsp.a(tcp_timr.o)
                0x0083c950                tcp_slowtimo
                0x0083cbf0                tcp_canceltimers
                0x0083cc4c                tcp_timers
 .text          0x0083d0e8      0x9ec ../WebServer_bsp/\libucosii_bsp.a(tcp_usr.o)
                0x0083d0e8                tcp_usrreq
                0x0083d7ec                tcp_attach
                0x0083d920                tcp_disconnect
                0x0083d9f4                tcp_usrclosed
 .text          0x0083dad4       0x4c ../WebServer_bsp/\libucosii_bsp.a(tcpport.o)
                0x0083dad4                tcpinit
 .text          0x0083db20      0xd20 ../WebServer_bsp/\libucosii_bsp.a(udpsock.o)
                0x0083db20                udp_lookup
                0x0083db90                udp_soinput
                0x0083dd48                udp_usrreq
                0x0083dfcc                udp4_sockbind
                0x0083e308                udp4_socksend
                0x0083e6e4                udp4_sockaddr
 .text          0x0083e840      0x154 ../WebServer_bsp/\libucosii_bsp.a(alt_alarm_start.o)
                0x0083e840                alt_alarm_start
 .text          0x0083e994      0x14c ../WebServer_bsp/\libucosii_bsp.a(alt_busy_sleep.o)
                0x0083e994                alt_busy_sleep
 .text          0x0083eae0      0x15c ../WebServer_bsp/\libucosii_bsp.a(alt_close.o)
                0x0083eae0                alt_close
 .text          0x0083ec3c       0x2c ../WebServer_bsp/\libucosii_bsp.a(alt_dev.o)
 .text          0x0083ec68      0x114 ../WebServer_bsp/\libucosii_bsp.a(alt_dev_llist_insert.o)
                0x0083ec68                alt_dev_llist_insert
 .text          0x0083ed7c       0x64 ../WebServer_bsp/\libucosii_bsp.a(alt_do_ctors.o)
                0x0083ed7c                _do_ctors
 .text          0x0083ede0       0x64 ../WebServer_bsp/\libucosii_bsp.a(alt_do_dtors.o)
                0x0083ede0                _do_dtors
 .text          0x0083ee44        0x0 ../WebServer_bsp/\libucosii_bsp.a(alt_errno.o)
 .text          0x0083ee44       0x94 ../WebServer_bsp/\libucosii_bsp.a(alt_find_dev.o)
                0x0083ee44                alt_find_dev
 .text          0x0083eed8      0x120 ../WebServer_bsp/\libucosii_bsp.a(alt_find_file.o)
                0x0083eed8                alt_find_file
 .text          0x0083eff8       0x90 ../WebServer_bsp/\libucosii_bsp.a(alt_fs_reg.o)
                0x0083eff8                alt_fs_reg
 .text          0x0083f088       0xf4 ../WebServer_bsp/\libucosii_bsp.a(alt_get_fd.o)
                0x0083f088                alt_get_fd
 .text          0x0083f17c      0x1d4 ../WebServer_bsp/\libucosii_bsp.a(alt_iic.o)
                0x0083f17c                alt_ic_isr_register
                0x0083f1cc                alt_ic_irq_enable
                0x0083f268                alt_ic_irq_disable
                0x0083f308                alt_ic_irq_enabled
 .text          0x0083f350       0xf8 ../WebServer_bsp/\libucosii_bsp.a(alt_iic_isr_register.o)
                0x0083f350                alt_iic_isr_register
 .text          0x0083f448      0x13c ../WebServer_bsp/\libucosii_bsp.a(alt_io_redirect.o)
                0x0083f50c                alt_io_redirect
 .text          0x0083f584        0x0 ../WebServer_bsp/\libucosii_bsp.a(alt_irq_entry.o)
 .text          0x0083f584        0x0 ../WebServer_bsp/\libucosii_bsp.a(alt_irq_handler.o)
 .text          0x0083f584      0x180 ../WebServer_bsp/\libucosii_bsp.a(alt_read.o)
                0x0083f584                alt_read
 .text          0x0083f704       0x38 ../WebServer_bsp/\libucosii_bsp.a(alt_remap_cached.o)
                0x0083f704                alt_remap_cached
 .text          0x0083f73c       0x40 ../WebServer_bsp/\libucosii_bsp.a(alt_remap_uncached.o)
                0x0083f73c                alt_remap_uncached
 .text          0x0083f77c      0x180 ../WebServer_bsp/\libucosii_bsp.a(alt_write.o)
                0x0083f77c                alt_write
 .text          0x0083f8fc       0x20 ../WebServer_bsp/\libucosii_bsp.a(altera_nios2_qsys_irq.o)
                0x0083f8fc                altera_nios2_qsys_irq_init
 .text          0x0083f91c       0xd0 ../WebServer_bsp/\libucosii_bsp.a(os_cpu_a.o)
                0x0083f91c                OSCtxSw
                0x0083f91c                OSIntCtxSw
                0x0083f9a8                OSStartHighRdy
                0x0083f9c8                OSStartTsk
 .text          0x0083f9ec      0x424 ../WebServer_bsp/\libucosii_bsp.a(os_cpu_c.o)
                0x0083f9ec                OSTaskStkInit
                0x0083fcfc                OSTaskCreateHook
                0x0083fd1c                OSTaskDelHook
                0x0083fd3c                OSTaskSwHook
                0x0083fd58                OSTaskStatHook
                0x0083fd74                OSTimeTickHook
                0x0083fd9c                OSInitHookBegin
                0x0083fdb8                OSInitHookEnd
                0x0083fdd4                OSTaskIdleHook
                0x0083fdf0                OSTCBInitHook
 .text          0x0083fe10      0x460 ../WebServer_bsp/\libucosii_bsp.a(altera_avalon_cfi_flash_amd.o)
                0x0083fe10                alt_program_amd
                0x0083fe78                alt_erase_block_amd
 .text          0x00840270      0x460 ../WebServer_bsp/\libucosii_bsp.a(altera_avalon_cfi_flash_intel.o)
                0x00840270                alt_program_intel
                0x008402f4                alt_erase_block_intel
 .text          0x008406d0      0x238 ../WebServer_bsp/\libucosii_bsp.a(altera_avalon_spi.o)
                0x008406d0                alt_avalon_spi_command
 .text          0x00840908      0x444 ../WebServer_bsp/\libucosii_bsp.a(allports.o)
                0x00840908                netmain_init
                0x00840a04                icmp_port_du
                0x00840a8c                station_state
                0x00840bf0                sysuptime
                0x00840c84                packet_check
                0x00840cd0                mcastlist
                0x00840cf4                prep_modules
 .text          0x00840d4c      0x580 ../WebServer_bsp/\libucosii_bsp.a(timeouts.o)
                0x00840d4c                inet_timer
                0x0084104c                in_timerset
                0x00841224                in_timerkill
 .text          0x008412cc       0xa4 ../WebServer_bsp/\libucosii_bsp.a(tk_misc.o)
                0x008412cc                create_apptasks
                0x008412f0                task_stats
 .text          0x00841370       0xb0 ../WebServer_bsp/\libucosii_bsp.a(alt_iniche_fcntl.o)
                0x00841370                fcntl
 .text          0x00841420     0x15b0 ../WebServer_bsp/\libucosii_bsp.a(et_arp.o)
                0x00841420                etainit
                0x00841474                et_send
                0x008415f0                arp_free_pending
                0x00841678                arp_send_pending
                0x008416ec                send_arp
                0x00841b84                find_oldest_arp
                0x00841d80                make_arp_entry
                0x00841e94                arpReply
                0x00842128                arprcv
                0x00842388                send_via_arp
                0x00842558                cb_arpent_tmo
                0x00842704                grat_arp
 .text          0x008429d0      0x298 ../WebServer_bsp/\libucosii_bsp.a(iface.o)
                0x008429d0                if_getbynum
                0x00842a54                isbcast
                0x00842b34                reg_type
                0x00842bd0                if_killsocks
 .text          0x00842c68     0x22a4 ../WebServer_bsp/\libucosii_bsp.a(ip.o)
                0x00842c68                ip_init
                0x00842d64                ip_bldhead
                0x00842f08                ip_write_internal
                0x00843688                ip_write
                0x008438d0                ip_write2
                0x00843c80                ip_raw_write
                0x00843d58                ip_fragment_lc
                0x008441e0                ip_fragment
                0x00844804                ip_mymach
                0x008448b0                ip_dump
                0x00844b68                iproute
                0x00844dd4                ip_copypkt
 .text          0x00844f0c     0x1e08 ../WebServer_bsp/\libucosii_bsp.a(ip_reasm.o)
                0x00844f0c                ip_reasm_match_frag_with_ire
                0x00844fdc                ip_reasm_determine_type_of_frag
                0x008450c8                ip_reasm_check_mem_useage
                0x00845160                ip_reasm_incr_mem_useage
                0x00845208                ip_reasm_decr_mem_useage
                0x008452a8                ip_reasm_process_first_fragment
                0x00845588                ip_reassm
                0x00845628                ip_reasm_compute_overlap
                0x00845bb8                ip_reasm_process_subsequent_fragments
                0x0084614c                ip_reasm_find_ire
                0x008461b0                ip_reasm_copy_queued_fragments_into_reassy_buffer
                0x0084650c                ip_reasm_process_timer_tick
                0x0084662c                ip_reasm_delete_ire
                0x008467f4                ip_reasm_mark_compact_rfq
                0x0084693c                ipr_stats
                0x00846cc0                ip_reasm_send_icmp_timex
 .text          0x00846d14      0xe3c ../WebServer_bsp/\libucosii_bsp.a(ipdemux.o)
                0x00846d14                ip_rcv
                0x00847114                ip_rcv_phase2
                0x00847720                ip_demux
 .text          0x00847b50      0x2f0 ../WebServer_bsp/\libucosii_bsp.a(ipmc.o)
                0x00847b50                in_addmulti
                0x00847cb8                in_delmulti
                0x00847dd0                lookup_mcast
 .text          0x00847e40       0xe4 ../WebServer_bsp/\libucosii_bsp.a(ipport.o)
                0x00847e40                prep_ifaces
                0x00847ed4                netexit
                0x00847efc                evtmap_setup
 .text          0x00847f24      0x550 ../WebServer_bsp/\libucosii_bsp.a(ipraw.o)
                0x00847f24                ip_raw_open
                0x00848014                ip_raw_close
                0x008480d4                ip_raw_input
                0x0084830c                ip_raw_alloc
                0x008483d8                ip_raw_free
                0x00848418                ip_raw_maxalloc
 .text          0x00848474      0x6f0 ../WebServer_bsp/\libucosii_bsp.a(iproute.o)
                0x00848474                rt_lookup
                0x008485f8                add_route
                0x00848a20                del_route
 .text          0x00848b64      0xe3c ../WebServer_bsp/\libucosii_bsp.a(udp.o)
                0x00848b64                udpdemux
                0x008493bc                udp_send
                0x00849674                udpswap
                0x008497a4                udp_socket
                0x00849874                udp_alloc
                0x00849934                udp_maxalloc
                0x00849960                udp_free
 .text          0x008499a0      0x2e8 ../WebServer_bsp/\libucosii_bsp.a(igmp.o)
                0x008499a0                igmpv1_input
 .text          0x00849c88      0x7c0 ../WebServer_bsp/\libucosii_bsp.a(igmp2.o)
                0x00849c88                igmpv2_input
                0x00849de8                igmpv2_process_report
                0x00849f34                igmpv2_process_query
                0x0084a180                igmpv2_chk_set_timer
                0x0084a2d8                igmpv2_chk4_rtr_alert_opt
 .text          0x0084a448      0x8fc ../WebServer_bsp/\libucosii_bsp.a(ipopt.o)
                0x0084a448                IPADDR_TO_NETP
                0x0084a590                ip_setmoptions
                0x0084ab80                ip_getmoptions
                0x0084acc0                ip_freemoptions
 .text          0x0084ad44      0x6e8 ../WebServer_bsp/\libucosii_bsp.a(u_mctest.o)
                0x0084ad44                u_mctest_init
                0x0084ad74                u_mctest_run
 .text          0x0084b42c      0x3d0 ../WebServer_bsp/\libucosii_bsp.a(dhcsetup.o)
                0x0084b42c                dhc_setup
                0x0084b6f8                dhc_main_ipset
 .text          0x0084b7fc      0x40c ../WebServer_bsp/\libucosii_bsp.a(memdev.o)
                0x0084b7fc                init_memdev
                0x0084b874                md_fopen
                0x0084b89c                md_fclose
                0x0084b8bc                md_fread
                0x0084ba3c                md_fwrite
                0x0084babc                md_fseek
                0x0084bae8                md_ftell
                0x0084bb0c                md_fgetc
                0x0084bbe4                md_unlink
 .text          0x0084bc08      0x810 ../WebServer_bsp/\libucosii_bsp.a(parseip.o)
                0x0084bc08                parse_ipad
                0x0084bf24                inet_addr
                0x0084bf8c                hextoa
                0x0084bffc                inet_pton
                0x0084c0a8                inet_ntop
                0x0084c134                print46_addr
                0x0084c194                inet46_addr
                0x0084c258                inet_setport
                0x0084c2cc                convert_ip
 .text          0x0084c418      0x1cc ../WebServer_bsp/\libucosii_bsp.a(tcpcksum.o)
                0x0084c418                tcp_cksum
 .text          0x0084c5e4      0x900 ../WebServer_bsp/\libucosii_bsp.a(in_pcb.o)
                0x0084c5e4                in_pcballoc
                0x0084c678                in_pcbdetach
                0x0084c6cc                in_pcbbind
                0x0084c920                in_pcbconnect
                0x0084cb30                in_pcbdisconnect
                0x0084cb90                in_setsockaddr
                0x0084cc0c                in_setpeeraddr
                0x0084cc88                in_pcblookup
 .text          0x0084cee4     0x1a74 ../WebServer_bsp/\libucosii_bsp.a(vfsfiles.o)
                0x0084cee4                set_vfopen_error
                0x0084cf0c                get_vfopen_error
                0x0084cf2c                vf_alloc_and_link_vop
                0x0084cfa8                vf_alloc_buffer
                0x0084d080                vf_free_buffer
                0x0084d0d0                vfopen_locked
                0x0084d438                vfopen
                0x0084d488                vfclose_locked
                0x0084d630                vfclose
                0x0084d670                vfflush
                0x0084d6b8                vfgets
                0x0084d79c                vfeof
                0x0084d7f4                vunlink_flag_open_files
                0x0084d850                vunlink
                0x0084da70                vfread
                0x0084dc1c                vfwrite_locked
                0x0084e004                vfwrite
                0x0084e064                vfseek
                0x0084e1e0                vftell
                0x0084e314                vgetc_locked
                0x0084e434                vgetc
                0x0084e47c                vfslookup_locked
                0x0084e5b4                vfslookup
                0x0084e5fc                strippath
                0x0084e7e4                isvfile_locked
                0x0084e848                isvfile
                0x0084e890                vferror
                0x0084e8fc                vclearerr
 .text          0x0084e958       0x24 ../WebServer_bsp/\libucosii_bsp.a(vfsport.o)
                0x0084e958                prep_vfs
 .text          0x0084e97c        0x0 ../WebServer_bsp/\libucosii_bsp.a(alt_exception_entry.o)
 .text          0x0084e97c      0x1b4 ../WebServer_bsp/\libucosii_bsp.a(alt_fcntl.o)
                0x0084e97c                alt_fcntl
 .text          0x0084eb30     0x130c ../WebServer_bsp/\libucosii_bsp.a(icmp.o)
                0x0084eb30                icmprcv
                0x0084f764                icmp_destun
                0x0084fab4                icmp_timex
                0x0084fde8                icmp_du
 .text          0x0084fe3c       0x14 c:/altera/13.0/nios2eds/bin/gnu/h-i686-mingw32/bin/../lib/gcc/nios2-elf/4.1.2/../../../../nios2-elf/lib\libc.a(lib_a-atexit.o)
                0x0084fe3c                atexit
 .text          0x0084fe50       0x1c c:/altera/13.0/nios2eds/bin/gnu/h-i686-mingw32/bin/../lib/gcc/nios2-elf/4.1.2/../../../../nios2-elf/lib\libc.a(lib_a-calloc.o)
                0x0084fe50                calloc
 .text          0x0084fe6c       0x38 c:/altera/13.0/nios2eds/bin/gnu/h-i686-mingw32/bin/../lib/gcc/nios2-elf/4.1.2/../../../../nios2-elf/lib\libc.a(lib_a-exit.o)
                0x0084fe6c                exit
 .text          0x0084fea4       0x28 c:/altera/13.0/nios2eds/bin/gnu/h-i686-mingw32/bin/../lib/gcc/nios2-elf/4.1.2/../../../../nios2-elf/lib\libc.a(lib_a-malloc.o)
                0x0084fea4                free
                0x0084feb8                malloc
 .text          0x0084fecc       0x34 c:/altera/13.0/nios2eds/bin/gnu/h-i686-mingw32/bin/../lib/gcc/nios2-elf/4.1.2/../../../../nios2-elf/lib\libc.a(lib_a-vprintf.o)
                0x0084fecc                _vprintf_r
                0x0084fee0                vprintf
 .text          0x0084ff00       0x74 c:/altera/13.0/nios2eds/bin/gnu/h-i686-mingw32/bin/../lib/gcc/nios2-elf/4.1.2/../../../../nios2-elf/lib\libc.a(lib_a-vsprintf.o)
                0x0084ff00                _vsprintf_r
                0x0084ff50                vsprintf
 .text          0x0084ff74      0x134 c:/altera/13.0/nios2eds/bin/gnu/h-i686-mingw32/bin/../lib/gcc/nios2-elf/4.1.2/../../../../nios2-elf/lib\libc.a(lib_a-__atexit.o)
                0x0084ff74                __register_exitproc
 .text          0x008500a8      0x1b4 c:/altera/13.0/nios2eds/bin/gnu/h-i686-mingw32/bin/../lib/gcc/nios2-elf/4.1.2/../../../../nios2-elf/lib\libc.a(lib_a-__call_atexit.o)
                0x008500ac                __call_exitprocs
 .text          0x0085025c       0x6c ../WebServer_bsp/\libucosii_bsp.a(alt_exit.o)
                0x0085029c                _exit
 *(.gnu.warning.*)
 *(.fini)
                0x008502c8                PROVIDE (__etext, ABSOLUTE (.))
                0x008502c8                PROVIDE (_etext, ABSOLUTE (.))
                0x008502c8                PROVIDE (etext, ABSOLUTE (.))
 *(.eh_frame_hdr)
                0x008502c8                . = ALIGN (0x4)
                0x008502c8                PROVIDE (__preinit_array_start, ABSOLUTE (.))
 *(.preinit_array)
                0x008502c8                PROVIDE (__preinit_array_end, ABSOLUTE (.))
                0x008502c8                PROVIDE (__init_array_start, ABSOLUTE (.))
 *(.init_array)
                0x008502c8                PROVIDE (__init_array_end, ABSOLUTE (.))
                0x008502c8                PROVIDE (__fini_array_start, ABSOLUTE (.))
 *(.fini_array)
                0x008502c8                PROVIDE (__fini_array_end, ABSOLUTE (.))
 *(.eh_frame)
 *(.gcc_except_table)
 *(.dynamic)
                0x008502c8                PROVIDE (__CTOR_LIST__, ABSOLUTE (.))
 *(.ctors)
 *(SORT(.ctors.*))
 .ctors.65535   0x008502c8        0x4 c:/altera/13.0/nios2eds/bin/gnu/h-i686-mingw32/bin/../lib/gcc/nios2-elf/4.1.2/../../../../nios2-elf/lib\libc.a(lib_a-__call_atexit.o)
                0x008502cc                PROVIDE (__CTOR_END__, ABSOLUTE (.))
                0x008502cc                PROVIDE (__DTOR_LIST__, ABSOLUTE (.))
 *(.dtors)
 *(SORT(.dtors.*))
                0x008502cc                PROVIDE (__DTOR_END__, ABSOLUTE (.))
 *(.jcr)
                0x008502cc                . = ALIGN (0x4)

.rodata         0x008502cc     0x42dc
                0x008502cc                PROVIDE (__ram_rodata_start, ABSOLUTE (.))
                0x008502cc                . = ALIGN (0x4)
 *(.rodata .rodata.* .gnu.linkonce.r.*)
 .rodata        0x008502cc      0x654 obj/default/alt_error_handler.o
 .rodata        0x00850920       0x64 obj/default/dm9000a.o
 .rodata        0x00850984      0x838 obj/default/http.o
 .rodata        0x008511bc      0x23c obj/default/network_utilities.o
 .rodata        0x008513f8      0x1ac obj/default/srec_flash.o
 .rodata        0x008515a4       0x7c obj/default/web_server.o
 .rodata        0x00851620       0x14 c:/altera/13.0/nios2eds/bin/gnu/h-i686-mingw32/bin/../lib/gcc/nios2-elf/4.1.2\libgcc.a(_thenan_df.o)
                0x00851620                __thenan_df
 .rodata        0x00851634      0x100 c:/altera/13.0/nios2eds/bin/gnu/h-i686-mingw32/bin/../lib/gcc/nios2-elf/4.1.2\libgcc.a(_clz.o)
                0x00851634                __clz_tab
 .rodata        0x00851734      0x284 c:/altera/13.0/nios2eds/bin/gnu/h-i686-mingw32/bin/../lib/gcc/nios2-elf/4.1.2/../../../../nios2-elf/lib\libc.a(lib_a-ctype_.o)
                0x00851734                _ctype_
 .rodata.str1.4
                0x008519b8        0x2 c:/altera/13.0/nios2eds/bin/gnu/h-i686-mingw32/bin/../lib/gcc/nios2-elf/4.1.2/../../../../nios2-elf/lib\libc.a(lib_a-impure.o)
                                  0x4 (size before relaxing)
 *fill*         0x008519ba        0x2 00
 .rodata.str1.4
                0x008519bc        0x3 c:/altera/13.0/nios2eds/bin/gnu/h-i686-mingw32/bin/../lib/gcc/nios2-elf/4.1.2/../../../../nios2-elf/lib\libc.a(lib_a-perror.o)
                                  0x4 (size before relaxing)
 *fill*         0x008519bf        0x1 00
 .rodata.str1.4
                0x008519c0        0x2 c:/altera/13.0/nios2eds/bin/gnu/h-i686-mingw32/bin/../lib/gcc/nios2-elf/4.1.2/../../../../nios2-elf/lib\libc.a(lib_a-puts.o)
                                  0x4 (size before relaxing)
 *fill*         0x008519c2        0x2 00
 .rodata.str1.4
                0x008519c4      0x7a2 c:/altera/13.0/nios2eds/bin/gnu/h-i686-mingw32/bin/../lib/gcc/nios2-elf/4.1.2/../../../../nios2-elf/lib\libc.a(lib_a-strerror.o)
                                0x7a8 (size before relaxing)
 *fill*         0x00852166        0x2 00
 .rodata.str1.4
                0x00852168       0x5e c:/altera/13.0/nios2eds/bin/gnu/h-i686-mingw32/bin/../lib/gcc/nios2-elf/4.1.2/../../../../nios2-elf/lib\libc.a(lib_a-vfprintf.o)
                                 0x60 (size before relaxing)
 *fill*         0x008521c6        0x2 00
 .rodata        0x008521c8       0x20 c:/altera/13.0/nios2eds/bin/gnu/h-i686-mingw32/bin/../lib/gcc/nios2-elf/4.1.2/../../../../nios2-elf/lib\libc.a(lib_a-vfprintf.o)
 .rodata.str1.4
                0x008521e8        0x5 c:/altera/13.0/nios2eds/bin/gnu/h-i686-mingw32/bin/../lib/gcc/nios2-elf/4.1.2/../../../../nios2-elf/lib\libc.a(lib_a-vfscanf.o)
                                  0x8 (size before relaxing)
 *fill*         0x008521ed        0x3 00
 .rodata        0x008521f0       0x24 c:/altera/13.0/nios2eds/bin/gnu/h-i686-mingw32/bin/../lib/gcc/nios2-elf/4.1.2/../../../../nios2-elf/lib\libc.a(lib_a-vfscanf.o)
 .rodata.str1.4
                0x00852214       0x10 c:/altera/13.0/nios2eds/bin/gnu/h-i686-mingw32/bin/../lib/gcc/nios2-elf/4.1.2/../../../../nios2-elf/lib\libc.a(lib_a-dtoa.o)
                                 0x14 (size before relaxing)
 .rodata.str1.4
                0x00852224        0xf c:/altera/13.0/nios2eds/bin/gnu/h-i686-mingw32/bin/../lib/gcc/nios2-elf/4.1.2/../../../../nios2-elf/lib\libc.a(lib_a-locale.o)
                                 0x18 (size before relaxing)
 *fill*         0x00852233        0x1 00
 .rodata        0x00852234       0x30 c:/altera/13.0/nios2eds/bin/gnu/h-i686-mingw32/bin/../lib/gcc/nios2-elf/4.1.2/../../../../nios2-elf/lib\libc.a(lib_a-locale.o)
 .rodata.str1.4
                0x00000000        0x4 c:/altera/13.0/nios2eds/bin/gnu/h-i686-mingw32/bin/../lib/gcc/nios2-elf/4.1.2/../../../../nios2-elf/lib\libc.a(lib_a-mbrtowc.o)
 .rodata        0x00852264      0x124 c:/altera/13.0/nios2eds/bin/gnu/h-i686-mingw32/bin/../lib/gcc/nios2-elf/4.1.2/../../../../nios2-elf/lib\libc.a(lib_a-mprec.o)
                0x00852264                __mprec_tens
                0x0085232c                __mprec_bigtens
                0x00852354                __mprec_tinytens
 .rodata.str1.4
                0x00852388        0xf c:/altera/13.0/nios2eds/bin/gnu/h-i686-mingw32/bin/../lib/gcc/nios2-elf/4.1.2/../../../../nios2-elf/lib\libc.a(lib_a-strtod.o)
                                 0x10 (size before relaxing)
 *fill*         0x00852397        0x1 00
 .rodata        0x00852398       0x28 c:/altera/13.0/nios2eds/bin/gnu/h-i686-mingw32/bin/../lib/gcc/nios2-elf/4.1.2/../../../../nios2-elf/lib\libc.a(lib_a-strtod.o)
 .rodata.str1.4
                0x008523c0       0x1c c:/altera/13.0/nios2eds/bin/gnu/h-i686-mingw32/bin/../lib/gcc/nios2-elf/4.1.2/../../../../nios2-elf/lib\libc.a(lib_a-gdtoa-gethex.o)
 .rodata        0x008523dc       0x14 ../WebServer_bsp/\libucosii_bsp.a(alt_main.o)
 .rodata        0x008523f0      0x120 ../WebServer_bsp/\libucosii_bsp.a(os_core.o)
                0x008523f0                OSUnMapTbl
 .rodata        0x00852510       0x70 ../WebServer_bsp/\libucosii_bsp.a(alt_sys_init.o)
 .rodata        0x00852580       0xd8 ../WebServer_bsp/\libucosii_bsp.a(ipnet.o)
 .rodata        0x00852658       0xec ../WebServer_bsp/\libucosii_bsp.a(ipstart.o)
 .rodata        0x00852744      0x54c ../WebServer_bsp/\libucosii_bsp.a(igmp_cmn.o)
 .rodata        0x00852c90       0xb8 ../WebServer_bsp/\libucosii_bsp.a(in_utils.o)
 .rodata        0x00852d48       0x34 ../WebServer_bsp/\libucosii_bsp.a(netmain.o)
 .rodata        0x00852d7c      0x1a8 ../WebServer_bsp/\libucosii_bsp.a(tk_crnos.o)
 .rodata        0x00852f24        0x8 ../WebServer_bsp/\libucosii_bsp.a(dhcpclnt.o)
 .rodata        0x00852f2c      0x118 ../WebServer_bsp/\libucosii_bsp.a(pktalloc.o)
 .rodata        0x00853044       0x84 ../WebServer_bsp/\libucosii_bsp.a(udp_open.o)
 .rodata        0x008530c8       0x2c ../WebServer_bsp/\libucosii_bsp.a(brdutils.o)
 .rodata        0x008530f4      0x26c ../WebServer_bsp/\libucosii_bsp.a(osportco.o)
 .rodata        0x00853360       0xa0 ../WebServer_bsp/\libucosii_bsp.a(targnios.o)
 .rodata        0x00853400       0x90 ../WebServer_bsp/\libucosii_bsp.a(nptcp.o)
 .rodata        0x00853490        0x8 ../WebServer_bsp/\libucosii_bsp.a(sockcall.o)
 .rodata        0x00853498       0x50 ../WebServer_bsp/\libucosii_bsp.a(socket.o)
 .rodata        0x008534e8       0x40 ../WebServer_bsp/\libucosii_bsp.a(socket2.o)
 .rodata        0x00853528       0x20 ../WebServer_bsp/\libucosii_bsp.a(tcp_in.o)
 .rodata        0x00853548       0x40 ../WebServer_bsp/\libucosii_bsp.a(tcp_out.o)
 .rodata        0x00853588       0x24 ../WebServer_bsp/\libucosii_bsp.a(tcp_subr.o)
 .rodata        0x008535ac       0x2c ../WebServer_bsp/\libucosii_bsp.a(tcp_usr.o)
 .rodata        0x008535d8        0xc ../WebServer_bsp/\libucosii_bsp.a(alt_dev.o)
 .rodata        0x008535e4        0x4 ../WebServer_bsp/\libucosii_bsp.a(os_cpu_c.o)
 .rodata        0x008535e8      0x1d4 ../WebServer_bsp/\libucosii_bsp.a(allports.o)
 .rodata        0x008537bc       0x34 ../WebServer_bsp/\libucosii_bsp.a(tk_misc.o)
 .rodata        0x008537f0       0x44 ../WebServer_bsp/\libucosii_bsp.a(et_arp.o)
 .rodata        0x00853834      0x1dc ../WebServer_bsp/\libucosii_bsp.a(ip.o)
 .rodata        0x00853a10      0x158 ../WebServer_bsp/\libucosii_bsp.a(ip_reasm.o)
 .rodata        0x00853b68      0x120 ../WebServer_bsp/\libucosii_bsp.a(ipdemux.o)
 .rodata        0x00853c88       0x34 ../WebServer_bsp/\libucosii_bsp.a(ipport.o)
 .rodata        0x00853cbc       0x24 ../WebServer_bsp/\libucosii_bsp.a(ipraw.o)
 .rodata        0x00853ce0       0x38 ../WebServer_bsp/\libucosii_bsp.a(iproute.o)
 .rodata        0x00853d18       0xe8 ../WebServer_bsp/\libucosii_bsp.a(udp.o)
 .rodata        0x00853e00      0x2d0 ../WebServer_bsp/\libucosii_bsp.a(u_mctest.o)
 .rodata        0x008540d0       0xf8 ../WebServer_bsp/\libucosii_bsp.a(dhcsetup.o)
 .rodata        0x008541c8       0x94 ../WebServer_bsp/\libucosii_bsp.a(parseip.o)
 .rodata        0x0085425c       0x34 ../WebServer_bsp/\libucosii_bsp.a(vfsfiles.o)
 .rodata        0x00854290      0x318 ../WebServer_bsp/\libucosii_bsp.a(icmp.o)
 *(.rodata1)
                0x008545a8                . = ALIGN (0x4)
                0x008545a8                PROVIDE (__ram_rodata_end, ABSOLUTE (.))
                0x008502cc                PROVIDE (__flash_rodata_start, LOADADDR (.rodata))

.rwdata         0x008545a8     0x21c0
                0x008545a8                PROVIDE (__ram_rwdata_start, ABSOLUTE (.))
                0x008545a8                . = ALIGN (0x4)
 *(.got.plt)
 *(.got)
 *(.data1)
 *(.data .data.* .gnu.linkonce.d.*)
 .data          0x008545a8        0x0 ../WebServer_bsp//obj/HAL/src/crt0.o
 .data          0x008545a8        0x0 obj/default/alt_error_handler.o
 .data          0x008545a8        0x0 obj/default/dm9000a.o
 .data          0x008545a8        0x0 obj/default/http.o
 .data          0x008545a8        0x0 obj/default/network_utilities.o
 .data          0x008545a8        0x0 obj/default/srec_flash.o
 .data          0x008545a8       0x18 obj/default/web_server.o
                0x008545a8                wstask
 .data          0x008545c0        0x0 c:/altera/13.0/nios2eds/bin/gnu/h-i686-mingw32/bin/../lib/gcc/nios2-elf/4.1.2\libgcc.a(_fixunsdfsi.o)
 .data          0x008545c0        0x0 c:/altera/13.0/nios2eds/bin/gnu/h-i686-mingw32/bin/../lib/gcc/nios2-elf/4.1.2\libgcc.a(_addsub_df.o)
 .data          0x008545c0        0x0 c:/altera/13.0/nios2eds/bin/gnu/h-i686-mingw32/bin/../lib/gcc/nios2-elf/4.1.2\libgcc.a(_mul_df.o)
 .data          0x008545c0        0x0 c:/altera/13.0/nios2eds/bin/gnu/h-i686-mingw32/bin/../lib/gcc/nios2-elf/4.1.2\libgcc.a(_ge_df.o)
 .data          0x008545c0        0x0 c:/altera/13.0/nios2eds/bin/gnu/h-i686-mingw32/bin/../lib/gcc/nios2-elf/4.1.2\libgcc.a(_df_to_si.o)
 .data          0x008545c0        0x0 c:/altera/13.0/nios2eds/bin/gnu/h-i686-mingw32/bin/../lib/gcc/nios2-elf/4.1.2\libgcc.a(_thenan_df.o)
 .data          0x008545c0        0x0 c:/altera/13.0/nios2eds/bin/gnu/h-i686-mingw32/bin/../lib/gcc/nios2-elf/4.1.2\libgcc.a(_usi_to_df.o)
 .data          0x008545c0        0x0 c:/altera/13.0/nios2eds/bin/gnu/h-i686-mingw32/bin/../lib/gcc/nios2-elf/4.1.2\libgcc.a(lib2-divmod.o)
 .data          0x008545c0        0x0 c:/altera/13.0/nios2eds/bin/gnu/h-i686-mingw32/bin/../lib/gcc/nios2-elf/4.1.2\libgcc.a(_muldi3.o)
 .data          0x008545c0        0x0 c:/altera/13.0/nios2eds/bin/gnu/h-i686-mingw32/bin/../lib/gcc/nios2-elf/4.1.2\libgcc.a(_clzsi2.o)
 .data          0x008545c0        0x0 c:/altera/13.0/nios2eds/bin/gnu/h-i686-mingw32/bin/../lib/gcc/nios2-elf/4.1.2\libgcc.a(_pack_df.o)
 .data          0x008545c0        0x0 c:/altera/13.0/nios2eds/bin/gnu/h-i686-mingw32/bin/../lib/gcc/nios2-elf/4.1.2\libgcc.a(_unpack_df.o)
 .data          0x008545c0        0x0 c:/altera/13.0/nios2eds/bin/gnu/h-i686-mingw32/bin/../lib/gcc/nios2-elf/4.1.2\libgcc.a(_fpcmp_parts_df.o)
 .data          0x008545c0        0x0 c:/altera/13.0/nios2eds/bin/gnu/h-i686-mingw32/bin/../lib/gcc/nios2-elf/4.1.2\libgcc.a(_clz.o)
 .data          0x008545c0        0x0 c:/altera/13.0/nios2eds/bin/gnu/h-i686-mingw32/bin/../lib/gcc/nios2-elf/4.1.2/../../../../nios2-elf/lib\libc.a(lib_a-atoi.o)
 .data          0x008545c0        0x0 c:/altera/13.0/nios2eds/bin/gnu/h-i686-mingw32/bin/../lib/gcc/nios2-elf/4.1.2/../../../../nios2-elf/lib\libc.a(lib_a-ctype_.o)
 .data          0x008545c0        0x0 c:/altera/13.0/nios2eds/bin/gnu/h-i686-mingw32/bin/../lib/gcc/nios2-elf/4.1.2/../../../../nios2-elf/lib\libc.a(lib_a-fclose.o)
 .data          0x008545c0        0x0 c:/altera/13.0/nios2eds/bin/gnu/h-i686-mingw32/bin/../lib/gcc/nios2-elf/4.1.2/../../../../nios2-elf/lib\libc.a(lib_a-fflush.o)
 .data          0x008545c0        0x0 c:/altera/13.0/nios2eds/bin/gnu/h-i686-mingw32/bin/../lib/gcc/nios2-elf/4.1.2/../../../../nios2-elf/lib\libc.a(lib_a-fgetpos.o)
 .data          0x008545c0        0x0 c:/altera/13.0/nios2eds/bin/gnu/h-i686-mingw32/bin/../lib/gcc/nios2-elf/4.1.2/../../../../nios2-elf/lib\libc.a(lib_a-findfp.o)
 .data          0x008545c0        0x0 c:/altera/13.0/nios2eds/bin/gnu/h-i686-mingw32/bin/../lib/gcc/nios2-elf/4.1.2/../../../../nios2-elf/lib\libc.a(lib_a-fopen.o)
 .data          0x008545c0        0x0 c:/altera/13.0/nios2eds/bin/gnu/h-i686-mingw32/bin/../lib/gcc/nios2-elf/4.1.2/../../../../nios2-elf/lib\libc.a(lib_a-fprintf.o)
 .data          0x008545c0        0x0 c:/altera/13.0/nios2eds/bin/gnu/h-i686-mingw32/bin/../lib/gcc/nios2-elf/4.1.2/../../../../nios2-elf/lib\libc.a(lib_a-fread.o)
 .data          0x008545c0        0x0 c:/altera/13.0/nios2eds/bin/gnu/h-i686-mingw32/bin/../lib/gcc/nios2-elf/4.1.2/../../../../nios2-elf/lib\libc.a(lib_a-freer.o)
 .data          0x008545c0        0x0 c:/altera/13.0/nios2eds/bin/gnu/h-i686-mingw32/bin/../lib/gcc/nios2-elf/4.1.2/../../../../nios2-elf/lib\libc.a(lib_a-fseek.o)
 .data          0x008545c0        0x0 c:/altera/13.0/nios2eds/bin/gnu/h-i686-mingw32/bin/../lib/gcc/nios2-elf/4.1.2/../../../../nios2-elf/lib\libc.a(lib_a-fstatr.o)
 .data          0x008545c0        0x0 c:/altera/13.0/nios2eds/bin/gnu/h-i686-mingw32/bin/../lib/gcc/nios2-elf/4.1.2/../../../../nios2-elf/lib\libc.a(lib_a-ftell.o)
 .data          0x008545c0        0x0 c:/altera/13.0/nios2eds/bin/gnu/h-i686-mingw32/bin/../lib/gcc/nios2-elf/4.1.2/../../../../nios2-elf/lib\libc.a(lib_a-fwalk.o)
 .data          0x008545c0        0x0 c:/altera/13.0/nios2eds/bin/gnu/h-i686-mingw32/bin/../lib/gcc/nios2-elf/4.1.2/../../../../nios2-elf/lib\libc.a(lib_a-fwrite.o)
 .data          0x008545c0        0x0 c:/altera/13.0/nios2eds/bin/gnu/h-i686-mingw32/bin/../lib/gcc/nios2-elf/4.1.2/../../../../nios2-elf/lib\libc.a(lib_a-getc.o)
 .data          0x008545c0      0x400 c:/altera/13.0/nios2eds/bin/gnu/h-i686-mingw32/bin/../lib/gcc/nios2-elf/4.1.2/../../../../nios2-elf/lib\libc.a(lib_a-impure.o)
 .data          0x008549c0        0x0 c:/altera/13.0/nios2eds/bin/gnu/h-i686-mingw32/bin/../lib/gcc/nios2-elf/4.1.2/../../../../nios2-elf/lib\libc.a(lib_a-int_errno.o)
 .data          0x008549c0        0x0 c:/altera/13.0/nios2eds/bin/gnu/h-i686-mingw32/bin/../lib/gcc/nios2-elf/4.1.2/../../../../nios2-elf/lib\libc.a(lib_a-makebuf.o)
 .data          0x008549c0      0x408 c:/altera/13.0/nios2eds/bin/gnu/h-i686-mingw32/bin/../lib/gcc/nios2-elf/4.1.2/../../../../nios2-elf/lib\libc.a(lib_a-mallocr.o)
                0x008549c0                __malloc_av_
 .data          0x00854dc8        0x0 c:/altera/13.0/nios2eds/bin/gnu/h-i686-mingw32/bin/../lib/gcc/nios2-elf/4.1.2/../../../../nios2-elf/lib\libc.a(lib_a-memcpy.o)
 .data          0x00854dc8        0x0 c:/altera/13.0/nios2eds/bin/gnu/h-i686-mingw32/bin/../lib/gcc/nios2-elf/4.1.2/../../../../nios2-elf/lib\libc.a(lib_a-memmove.o)
 .data          0x00854dc8        0x0 c:/altera/13.0/nios2eds/bin/gnu/h-i686-mingw32/bin/../lib/gcc/nios2-elf/4.1.2/../../../../nios2-elf/lib\libc.a(lib_a-memset.o)
 .data          0x00854dc8        0x0 c:/altera/13.0/nios2eds/bin/gnu/h-i686-mingw32/bin/../lib/gcc/nios2-elf/4.1.2/../../../../nios2-elf/lib\libc.a(lib_a-openr.o)
 .data          0x00854dc8        0x0 c:/altera/13.0/nios2eds/bin/gnu/h-i686-mingw32/bin/../lib/gcc/nios2-elf/4.1.2/../../../../nios2-elf/lib\libc.a(lib_a-perror.o)
 .data          0x00854dc8        0x0 c:/altera/13.0/nios2eds/bin/gnu/h-i686-mingw32/bin/../lib/gcc/nios2-elf/4.1.2/../../../../nios2-elf/lib\libc.a(lib_a-printf.o)
 .data          0x00854dc8        0x0 c:/altera/13.0/nios2eds/bin/gnu/h-i686-mingw32/bin/../lib/gcc/nios2-elf/4.1.2/../../../../nios2-elf/lib\libc.a(lib_a-putc.o)
 .data          0x00854dc8        0x0 c:/altera/13.0/nios2eds/bin/gnu/h-i686-mingw32/bin/../lib/gcc/nios2-elf/4.1.2/../../../../nios2-elf/lib\libc.a(lib_a-putchar.o)
 .data          0x00854dc8        0x0 c:/altera/13.0/nios2eds/bin/gnu/h-i686-mingw32/bin/../lib/gcc/nios2-elf/4.1.2/../../../../nios2-elf/lib\libc.a(lib_a-puts.o)
 .data          0x00854dc8        0x0 c:/altera/13.0/nios2eds/bin/gnu/h-i686-mingw32/bin/../lib/gcc/nios2-elf/4.1.2/../../../../nios2-elf/lib\libc.a(lib_a-refill.o)
 .data          0x00854dc8        0x0 c:/altera/13.0/nios2eds/bin/gnu/h-i686-mingw32/bin/../lib/gcc/nios2-elf/4.1.2/../../../../nios2-elf/lib\libc.a(lib_a-rget.o)
 .data          0x00854dc8        0x0 c:/altera/13.0/nios2eds/bin/gnu/h-i686-mingw32/bin/../lib/gcc/nios2-elf/4.1.2/../../../../nios2-elf/lib\libc.a(lib_a-sbrkr.o)
 .data          0x00854dc8        0x0 c:/altera/13.0/nios2eds/bin/gnu/h-i686-mingw32/bin/../lib/gcc/nios2-elf/4.1.2/../../../../nios2-elf/lib\libc.a(lib_a-sprintf.o)
 .data          0x00854dc8        0x0 c:/altera/13.0/nios2eds/bin/gnu/h-i686-mingw32/bin/../lib/gcc/nios2-elf/4.1.2/../../../../nios2-elf/lib\libc.a(lib_a-sscanf.o)
 .data          0x00854dc8        0x0 c:/altera/13.0/nios2eds/bin/gnu/h-i686-mingw32/bin/../lib/gcc/nios2-elf/4.1.2/../../../../nios2-elf/lib\libc.a(lib_a-stdio.o)
 .data          0x00854dc8        0x0 c:/altera/13.0/nios2eds/bin/gnu/h-i686-mingw32/bin/../lib/gcc/nios2-elf/4.1.2/../../../../nios2-elf/lib\libc.a(lib_a-strcasecmp.o)
 .data          0x00854dc8        0x0 c:/altera/13.0/nios2eds/bin/gnu/h-i686-mingw32/bin/../lib/gcc/nios2-elf/4.1.2/../../../../nios2-elf/lib\libc.a(lib_a-strcat.o)
 .data          0x00854dc8        0x0 c:/altera/13.0/nios2eds/bin/gnu/h-i686-mingw32/bin/../lib/gcc/nios2-elf/4.1.2/../../../../nios2-elf/lib\libc.a(lib_a-strchr.o)
 .data          0x00854dc8        0x0 c:/altera/13.0/nios2eds/bin/gnu/h-i686-mingw32/bin/../lib/gcc/nios2-elf/4.1.2/../../../../nios2-elf/lib\libc.a(lib_a-strcmp.o)
 .data          0x00854dc8        0x0 c:/altera/13.0/nios2eds/bin/gnu/h-i686-mingw32/bin/../lib/gcc/nios2-elf/4.1.2/../../../../nios2-elf/lib\libc.a(lib_a-strcpy.o)
 .data          0x00854dc8        0x0 c:/altera/13.0/nios2eds/bin/gnu/h-i686-mingw32/bin/../lib/gcc/nios2-elf/4.1.2/../../../../nios2-elf/lib\libc.a(lib_a-strerror.o)
 .data          0x00854dc8        0x0 c:/altera/13.0/nios2eds/bin/gnu/h-i686-mingw32/bin/../lib/gcc/nios2-elf/4.1.2/../../../../nios2-elf/lib\libc.a(lib_a-strlen.o)
 .data          0x00854dc8        0x0 c:/altera/13.0/nios2eds/bin/gnu/h-i686-mingw32/bin/../lib/gcc/nios2-elf/4.1.2/../../../../nios2-elf/lib\libc.a(lib_a-strncmp.o)
 .data          0x00854dc8        0x0 c:/altera/13.0/nios2eds/bin/gnu/h-i686-mingw32/bin/../lib/gcc/nios2-elf/4.1.2/../../../../nios2-elf/lib\libc.a(lib_a-strncpy.o)
 .data          0x00854dc8        0x0 c:/altera/13.0/nios2eds/bin/gnu/h-i686-mingw32/bin/../lib/gcc/nios2-elf/4.1.2/../../../../nios2-elf/lib\libc.a(lib_a-strstr.o)
 .data          0x00854dc8        0x0 c:/altera/13.0/nios2eds/bin/gnu/h-i686-mingw32/bin/../lib/gcc/nios2-elf/4.1.2/../../../../nios2-elf/lib\libc.a(lib_a-strtok.o)
 .data          0x00854dc8        0x0 c:/altera/13.0/nios2eds/bin/gnu/h-i686-mingw32/bin/../lib/gcc/nios2-elf/4.1.2/../../../../nios2-elf/lib\libc.a(lib_a-strtok_r.o)
 .data          0x00854dc8        0x0 c:/altera/13.0/nios2eds/bin/gnu/h-i686-mingw32/bin/../lib/gcc/nios2-elf/4.1.2/../../../../nios2-elf/lib\libc.a(lib_a-strtol.o)
 .data          0x00854dc8        0x0 c:/altera/13.0/nios2eds/bin/gnu/h-i686-mingw32/bin/../lib/gcc/nios2-elf/4.1.2/../../../../nios2-elf/lib\libc.a(lib_a-u_strerr.o)
 .data          0x00854dc8        0x0 c:/altera/13.0/nios2eds/bin/gnu/h-i686-mingw32/bin/../lib/gcc/nios2-elf/4.1.2/../../../../nios2-elf/lib\libc.a(lib_a-vfprintf.o)
 .data          0x00854dc8        0x0 c:/altera/13.0/nios2eds/bin/gnu/h-i686-mingw32/bin/../lib/gcc/nios2-elf/4.1.2/../../../../nios2-elf/lib\libc.a(lib_a-vfscanf.o)
 .data          0x00854dc8        0x0 c:/altera/13.0/nios2eds/bin/gnu/h-i686-mingw32/bin/../lib/gcc/nios2-elf/4.1.2/../../../../nios2-elf/lib\libc.a(lib_a-wbuf.o)
 .data          0x00854dc8        0x0 c:/altera/13.0/nios2eds/bin/gnu/h-i686-mingw32/bin/../lib/gcc/nios2-elf/4.1.2/../../../../nios2-elf/lib\libc.a(lib_a-writer.o)
 .data          0x00854dc8        0x0 c:/altera/13.0/nios2eds/bin/gnu/h-i686-mingw32/bin/../lib/gcc/nios2-elf/4.1.2/../../../../nios2-elf/lib\libc.a(lib_a-wsetup.o)
 .data          0x00854dc8        0x0 c:/altera/13.0/nios2eds/bin/gnu/h-i686-mingw32/bin/../lib/gcc/nios2-elf/4.1.2/../../../../nios2-elf/lib\libc.a(lib_a-closer.o)
 .data          0x00854dc8        0x0 c:/altera/13.0/nios2eds/bin/gnu/h-i686-mingw32/bin/../lib/gcc/nios2-elf/4.1.2/../../../../nios2-elf/lib\libc.a(lib_a-dtoa.o)
 .data          0x00854dc8        0x0 c:/altera/13.0/nios2eds/bin/gnu/h-i686-mingw32/bin/../lib/gcc/nios2-elf/4.1.2/../../../../nios2-elf/lib\libc.a(lib_a-flags.o)
 .data          0x00854dc8        0x0 c:/altera/13.0/nios2eds/bin/gnu/h-i686-mingw32/bin/../lib/gcc/nios2-elf/4.1.2/../../../../nios2-elf/lib\libc.a(lib_a-fputc.o)
 .data          0x00854dc8        0x0 c:/altera/13.0/nios2eds/bin/gnu/h-i686-mingw32/bin/../lib/gcc/nios2-elf/4.1.2/../../../../nios2-elf/lib\libc.a(lib_a-fputs.o)
 .data          0x00854dc8        0x0 c:/altera/13.0/nios2eds/bin/gnu/h-i686-mingw32/bin/../lib/gcc/nios2-elf/4.1.2/../../../../nios2-elf/lib\libc.a(lib_a-fvwrite.o)
 .data          0x00854dc8        0x0 c:/altera/13.0/nios2eds/bin/gnu/h-i686-mingw32/bin/../lib/gcc/nios2-elf/4.1.2/../../../../nios2-elf/lib\libc.a(lib_a-isattyr.o)
 .data          0x00854dc8        0x0 c:/altera/13.0/nios2eds/bin/gnu/h-i686-mingw32/bin/../lib/gcc/nios2-elf/4.1.2/../../../../nios2-elf/lib\libc.a(lib_a-iswspace.o)
 .data          0x00854dc8        0xc c:/altera/13.0/nios2eds/bin/gnu/h-i686-mingw32/bin/../lib/gcc/nios2-elf/4.1.2/../../../../nios2-elf/lib\libc.a(lib_a-locale.o)
                0x00854dc8                __lc_ctype
 .data          0x00854dd4        0x0 c:/altera/13.0/nios2eds/bin/gnu/h-i686-mingw32/bin/../lib/gcc/nios2-elf/4.1.2/../../../../nios2-elf/lib\libc.a(lib_a-lseekr.o)
 .data          0x00854dd4        0x0 c:/altera/13.0/nios2eds/bin/gnu/h-i686-mingw32/bin/../lib/gcc/nios2-elf/4.1.2/../../../../nios2-elf/lib\libc.a(lib_a-mbrtowc.o)
 .data          0x00854dd4        0x0 c:/altera/13.0/nios2eds/bin/gnu/h-i686-mingw32/bin/../lib/gcc/nios2-elf/4.1.2/../../../../nios2-elf/lib\libc.a(lib_a-mbtowc_r.o)
 .data          0x00854dd4        0x0 c:/altera/13.0/nios2eds/bin/gnu/h-i686-mingw32/bin/../lib/gcc/nios2-elf/4.1.2/../../../../nios2-elf/lib\libc.a(lib_a-memchr.o)
 .data          0x00854dd4        0x0 c:/altera/13.0/nios2eds/bin/gnu/h-i686-mingw32/bin/../lib/gcc/nios2-elf/4.1.2/../../../../nios2-elf/lib\libc.a(lib_a-memcmp.o)
 .data          0x00854dd4        0x0 c:/altera/13.0/nios2eds/bin/gnu/h-i686-mingw32/bin/../lib/gcc/nios2-elf/4.1.2/../../../../nios2-elf/lib\libc.a(lib_a-mprec.o)
 .data          0x00854dd4        0x0 c:/altera/13.0/nios2eds/bin/gnu/h-i686-mingw32/bin/../lib/gcc/nios2-elf/4.1.2/../../../../nios2-elf/lib\libc.a(lib_a-readr.o)
 .data          0x00854dd4        0x0 c:/altera/13.0/nios2eds/bin/gnu/h-i686-mingw32/bin/../lib/gcc/nios2-elf/4.1.2/../../../../nios2-elf/lib\libc.a(lib_a-reallocr.o)
 .data          0x00854dd4        0x0 c:/altera/13.0/nios2eds/bin/gnu/h-i686-mingw32/bin/../lib/gcc/nios2-elf/4.1.2/../../../../nios2-elf/lib\libc.a(lib_a-s_isinfd.o)
 .data          0x00854dd4        0x0 c:/altera/13.0/nios2eds/bin/gnu/h-i686-mingw32/bin/../lib/gcc/nios2-elf/4.1.2/../../../../nios2-elf/lib\libc.a(lib_a-s_isnand.o)
 .data          0x00854dd4        0x0 c:/altera/13.0/nios2eds/bin/gnu/h-i686-mingw32/bin/../lib/gcc/nios2-elf/4.1.2/../../../../nios2-elf/lib\libc.a(lib_a-sccl.o)
 .data          0x00854dd4        0x0 c:/altera/13.0/nios2eds/bin/gnu/h-i686-mingw32/bin/../lib/gcc/nios2-elf/4.1.2/../../../../nios2-elf/lib\libc.a(lib_a-sf_nan.o)
 .data          0x00854dd4       0x28 c:/altera/13.0/nios2eds/bin/gnu/h-i686-mingw32/bin/../lib/gcc/nios2-elf/4.1.2/../../../../nios2-elf/lib\libc.a(lib_a-strtod.o)
 .data          0x00854dfc        0x0 c:/altera/13.0/nios2eds/bin/gnu/h-i686-mingw32/bin/../lib/gcc/nios2-elf/4.1.2/../../../../nios2-elf/lib\libc.a(lib_a-strtoll_r.o)
 .data          0x00854dfc        0x0 c:/altera/13.0/nios2eds/bin/gnu/h-i686-mingw32/bin/../lib/gcc/nios2-elf/4.1.2/../../../../nios2-elf/lib\libc.a(lib_a-strtoul.o)
 .data          0x00854dfc        0x0 c:/altera/13.0/nios2eds/bin/gnu/h-i686-mingw32/bin/../lib/gcc/nios2-elf/4.1.2/../../../../nios2-elf/lib\libc.a(lib_a-strtoull_r.o)
 .data          0x00854dfc        0x0 c:/altera/13.0/nios2eds/bin/gnu/h-i686-mingw32/bin/../lib/gcc/nios2-elf/4.1.2/../../../../nios2-elf/lib\libc.a(lib_a-ungetc.o)
 .data          0x00854dfc        0x0 c:/altera/13.0/nios2eds/bin/gnu/h-i686-mingw32/bin/../lib/gcc/nios2-elf/4.1.2/../../../../nios2-elf/lib\libc.a(lib_a-callocr.o)
 .data          0x00854dfc        0x0 c:/altera/13.0/nios2eds/bin/gnu/h-i686-mingw32/bin/../lib/gcc/nios2-elf/4.1.2/../../../../nios2-elf/lib\libc.a(lib_a-gdtoa-gethex.o)
 .data          0x00854dfc        0x0 c:/altera/13.0/nios2eds/bin/gnu/h-i686-mingw32/bin/../lib/gcc/nios2-elf/4.1.2/../../../../nios2-elf/lib\libc.a(lib_a-gdtoa-hexnan.o)
 .data          0x00854dfc        0x0 c:/altera/13.0/nios2eds/bin/gnu/h-i686-mingw32/bin/../lib/gcc/nios2-elf/4.1.2\libgcc.a(_udivdi3.o)
 .data          0x00854dfc        0x0 c:/altera/13.0/nios2eds/bin/gnu/h-i686-mingw32/bin/../lib/gcc/nios2-elf/4.1.2\libgcc.a(_umoddi3.o)
 .data          0x00854dfc        0x0 c:/altera/13.0/nios2eds/bin/gnu/h-i686-mingw32/bin/../lib/gcc/nios2-elf/4.1.2\libgcc.a(_ne_sf.o)
 .data          0x00854dfc        0x0 c:/altera/13.0/nios2eds/bin/gnu/h-i686-mingw32/bin/../lib/gcc/nios2-elf/4.1.2\libgcc.a(_gt_sf.o)
 .data          0x00854dfc        0x0 c:/altera/13.0/nios2eds/bin/gnu/h-i686-mingw32/bin/../lib/gcc/nios2-elf/4.1.2\libgcc.a(_lt_sf.o)
 .data          0x00854dfc        0x0 c:/altera/13.0/nios2eds/bin/gnu/h-i686-mingw32/bin/../lib/gcc/nios2-elf/4.1.2\libgcc.a(_div_df.o)
 .data          0x00854dfc        0x0 c:/altera/13.0/nios2eds/bin/gnu/h-i686-mingw32/bin/../lib/gcc/nios2-elf/4.1.2\libgcc.a(_eq_df.o)
 .data          0x00854dfc        0x0 c:/altera/13.0/nios2eds/bin/gnu/h-i686-mingw32/bin/../lib/gcc/nios2-elf/4.1.2\libgcc.a(_ne_df.o)
 .data          0x00854dfc        0x0 c:/altera/13.0/nios2eds/bin/gnu/h-i686-mingw32/bin/../lib/gcc/nios2-elf/4.1.2\libgcc.a(_gt_df.o)
 .data          0x00854dfc        0x0 c:/altera/13.0/nios2eds/bin/gnu/h-i686-mingw32/bin/../lib/gcc/nios2-elf/4.1.2\libgcc.a(_lt_df.o)
 .data          0x00854dfc        0x0 c:/altera/13.0/nios2eds/bin/gnu/h-i686-mingw32/bin/../lib/gcc/nios2-elf/4.1.2\libgcc.a(_le_df.o)
 .data          0x00854dfc        0x0 c:/altera/13.0/nios2eds/bin/gnu/h-i686-mingw32/bin/../lib/gcc/nios2-elf/4.1.2\libgcc.a(_si_to_df.o)
 .data          0x00854dfc        0x0 c:/altera/13.0/nios2eds/bin/gnu/h-i686-mingw32/bin/../lib/gcc/nios2-elf/4.1.2\libgcc.a(_df_to_sf.o)
 .data          0x00854dfc        0x0 c:/altera/13.0/nios2eds/bin/gnu/h-i686-mingw32/bin/../lib/gcc/nios2-elf/4.1.2\libgcc.a(_unpack_sf.o)
 .data          0x00854dfc        0x0 c:/altera/13.0/nios2eds/bin/gnu/h-i686-mingw32/bin/../lib/gcc/nios2-elf/4.1.2\libgcc.a(_fpcmp_parts_sf.o)
 .data          0x00854dfc        0x0 c:/altera/13.0/nios2eds/bin/gnu/h-i686-mingw32/bin/../lib/gcc/nios2-elf/4.1.2\libgcc.a(_make_sf.o)
 .data          0x00854dfc        0x0 c:/altera/13.0/nios2eds/bin/gnu/h-i686-mingw32/bin/../lib/gcc/nios2-elf/4.1.2\libgcc.a(_pack_sf.o)
 .data          0x00854dfc        0x0 ../WebServer_bsp/\libucosii_bsp.a(alt_dcache_flush.o)
 .data          0x00854dfc        0x0 ../WebServer_bsp/\libucosii_bsp.a(alt_flash_dev.o)
 .data          0x00854dfc        0x0 ../WebServer_bsp/\libucosii_bsp.a(alt_fstat.o)
 .data          0x00854dfc        0x0 ../WebServer_bsp/\libucosii_bsp.a(alt_irq_register.o)
 .data          0x00854dfc        0x0 ../WebServer_bsp/\libucosii_bsp.a(alt_irq_vars.o)
 .data          0x00854dfc        0x0 ../WebServer_bsp/\libucosii_bsp.a(alt_isatty.o)
 .data          0x00854dfc        0x0 ../WebServer_bsp/\libucosii_bsp.a(alt_lseek.o)
 .data          0x00854dfc        0x0 ../WebServer_bsp/\libucosii_bsp.a(alt_main.o)
 .data          0x00854dfc        0x0 ../WebServer_bsp/\libucosii_bsp.a(alt_open.o)
 .data          0x00854dfc        0x0 ../WebServer_bsp/\libucosii_bsp.a(alt_release_fd.o)
 .data          0x00854dfc        0x0 ../WebServer_bsp/\libucosii_bsp.a(alt_sbrk.o)
 .data          0x00854dfc        0x0 ../WebServer_bsp/\libucosii_bsp.a(alt_tick.o)
 .data          0x00854dfc        0x0 ../WebServer_bsp/\libucosii_bsp.a(alt_usleep.o)
 .data          0x00854dfc        0x0 ../WebServer_bsp/\libucosii_bsp.a(alt_env_lock.o)
 .data          0x00854dfc        0x0 ../WebServer_bsp/\libucosii_bsp.a(alt_malloc_lock.o)
 .data          0x00854dfc        0x0 ../WebServer_bsp/\libucosii_bsp.a(os_core.o)
 .data          0x00854dfc        0x0 ../WebServer_bsp/\libucosii_bsp.a(os_dbg.o)
 .data          0x00854dfc        0x0 ../WebServer_bsp/\libucosii_bsp.a(os_flag.o)
 .data          0x00854dfc        0x0 ../WebServer_bsp/\libucosii_bsp.a(os_mbox.o)
 .data          0x00854dfc        0x0 ../WebServer_bsp/\libucosii_bsp.a(os_mem.o)
 .data          0x00854dfc        0x0 ../WebServer_bsp/\libucosii_bsp.a(os_q.o)
 .data          0x00854dfc        0x0 ../WebServer_bsp/\libucosii_bsp.a(os_sem.o)
 .data          0x00854dfc        0x0 ../WebServer_bsp/\libucosii_bsp.a(os_task.o)
 .data          0x00854dfc        0x0 ../WebServer_bsp/\libucosii_bsp.a(os_time.o)
 .data          0x00854dfc     0x1430 ../WebServer_bsp/\libucosii_bsp.a(alt_sys_init.o)
 .data          0x0085622c        0x0 ../WebServer_bsp/\libucosii_bsp.a(altera_avalon_cfi_flash.o)
 .data          0x0085622c        0x0 ../WebServer_bsp/\libucosii_bsp.a(altera_avalon_cfi_flash_table.o)
 .data          0x0085622c        0x0 ../WebServer_bsp/\libucosii_bsp.a(altera_avalon_epcs_flash_controller.o)
 .data          0x0085622c        0x0 ../WebServer_bsp/\libucosii_bsp.a(altera_avalon_jtag_uart_fd.o)
 .data          0x0085622c        0x0 ../WebServer_bsp/\libucosii_bsp.a(altera_avalon_jtag_uart_init.o)
 .data          0x0085622c        0x0 ../WebServer_bsp/\libucosii_bsp.a(altera_avalon_jtag_uart_ioctl.o)
 .data          0x0085622c        0x0 ../WebServer_bsp/\libucosii_bsp.a(altera_avalon_jtag_uart_read.o)
 .data          0x0085622c        0x0 ../WebServer_bsp/\libucosii_bsp.a(altera_avalon_jtag_uart_write.o)
 .data          0x0085622c        0x0 ../WebServer_bsp/\libucosii_bsp.a(altera_avalon_lcd_16207.o)
 .data          0x0085622c        0x0 ../WebServer_bsp/\libucosii_bsp.a(altera_avalon_lcd_16207_fd.o)
 .data          0x0085622c        0x0 ../WebServer_bsp/\libucosii_bsp.a(altera_avalon_timer_sc.o)
 .data          0x0085622c        0x0 ../WebServer_bsp/\libucosii_bsp.a(altera_avalon_uart_fd.o)
 .data          0x0085622c        0x0 ../WebServer_bsp/\libucosii_bsp.a(altera_avalon_uart_init.o)
 .data          0x0085622c        0x0 ../WebServer_bsp/\libucosii_bsp.a(altera_avalon_uart_read.o)
 .data          0x0085622c        0x0 ../WebServer_bsp/\libucosii_bsp.a(altera_avalon_uart_write.o)
 .data          0x0085622c        0x0 ../WebServer_bsp/\libucosii_bsp.a(altera_ro_zipfs.o)
 .data          0x0085622c        0x0 ../WebServer_bsp/\libucosii_bsp.a(epcs_commands.o)
 .data          0x0085622c        0x0 ../WebServer_bsp/\libucosii_bsp.a(alt_iniche_close.o)
 .data          0x0085622c        0x0 ../WebServer_bsp/\libucosii_bsp.a(alt_iniche_dev.o)
 .data          0x0085622c        0x0 ../WebServer_bsp/\libucosii_bsp.a(alt_iniche_read.o)
 .data          0x0085622c        0x0 ../WebServer_bsp/\libucosii_bsp.a(alt_iniche_write.o)
 .data          0x0085622c        0x0 ../WebServer_bsp/\libucosii_bsp.a(ipnet.o)
 .data          0x0085622c        0x0 ../WebServer_bsp/\libucosii_bsp.a(ipstart.o)
 .data          0x0085622c        0x0 ../WebServer_bsp/\libucosii_bsp.a(igmp_cmn.o)
 .data          0x0085622c        0x0 ../WebServer_bsp/\libucosii_bsp.a(bsdsock.o)
 .data          0x0085622c        0x0 ../WebServer_bsp/\libucosii_bsp.a(cksum.o)
 .data          0x0085622c        0x0 ../WebServer_bsp/\libucosii_bsp.a(in_utils.o)
 .data          0x0085622c       0x30 ../WebServer_bsp/\libucosii_bsp.a(netmain.o)
                0x0085622c                nettasks
 .data          0x0085625c        0x0 ../WebServer_bsp/\libucosii_bsp.a(tk_crnos.o)
 .data          0x0085625c        0x0 ../WebServer_bsp/\libucosii_bsp.a(dhcpclnt.o)
 .data          0x0085625c        0x0 ../WebServer_bsp/\libucosii_bsp.a(dhcputil.o)
 .data          0x0085625c        0x0 ../WebServer_bsp/\libucosii_bsp.a(pktalloc.o)
 .data          0x0085625c        0x0 ../WebServer_bsp/\libucosii_bsp.a(q.o)
 .data          0x0085625c        0x0 ../WebServer_bsp/\libucosii_bsp.a(udp_open.o)
 .data          0x0085625c        0x0 ../WebServer_bsp/\libucosii_bsp.a(asm_cksum.o)
 .data          0x0085625c        0x0 ../WebServer_bsp/\libucosii_bsp.a(brdutils.o)
 .data          0x0085625c        0x0 ../WebServer_bsp/\libucosii_bsp.a(osportco.o)
 .data          0x0085625c        0x0 ../WebServer_bsp/\libucosii_bsp.a(targnios.o)
 .data          0x0085625c       0x48 ../WebServer_bsp/\libucosii_bsp.a(nptcp.o)
                0x0085625c                tcp_protosw
                0x00856274                udp_protosw
                0x0085628c                rawip_protosw
 .data          0x008562a4        0x0 ../WebServer_bsp/\libucosii_bsp.a(rawsock.o)
 .data          0x008562a4        0x0 ../WebServer_bsp/\libucosii_bsp.a(sockcall.o)
 .data          0x008562a4        0x0 ../WebServer_bsp/\libucosii_bsp.a(socket.o)
 .data          0x008562a4        0x0 ../WebServer_bsp/\libucosii_bsp.a(socket2.o)
 .data          0x008562a4        0x0 ../WebServer_bsp/\libucosii_bsp.a(soselect.o)
 .data          0x008562a4        0x0 ../WebServer_bsp/\libucosii_bsp.a(tcp_in.o)
 .data          0x008562a4        0xc ../WebServer_bsp/\libucosii_bsp.a(tcp_out.o)
                0x008562a4                tcp_outflags
 .data          0x008562b0        0x0 ../WebServer_bsp/\libucosii_bsp.a(tcp_subr.o)
 .data          0x008562b0       0x10 ../WebServer_bsp/\libucosii_bsp.a(tcp_timr.o)
                0x008562b0                tcp_backoff
 .data          0x008562c0        0x0 ../WebServer_bsp/\libucosii_bsp.a(tcp_usr.o)
 .data          0x008562c0        0x0 ../WebServer_bsp/\libucosii_bsp.a(tcpport.o)
 .data          0x008562c0        0x0 ../WebServer_bsp/\libucosii_bsp.a(udpsock.o)
 .data          0x008562c0        0x0 ../WebServer_bsp/\libucosii_bsp.a(alt_alarm_start.o)
 .data          0x008562c0        0x0 ../WebServer_bsp/\libucosii_bsp.a(alt_busy_sleep.o)
 .data          0x008562c0        0x0 ../WebServer_bsp/\libucosii_bsp.a(alt_close.o)
 .data          0x008562c0      0x1a8 ../WebServer_bsp/\libucosii_bsp.a(alt_dev.o)
                0x008562c0                alt_dev_null
                0x008562e8                alt_fd_list
 .data          0x00856468        0x0 ../WebServer_bsp/\libucosii_bsp.a(alt_dev_llist_insert.o)
 .data          0x00856468        0x0 ../WebServer_bsp/\libucosii_bsp.a(alt_do_ctors.o)
 .data          0x00856468        0x0 ../WebServer_bsp/\libucosii_bsp.a(alt_do_dtors.o)
 .data          0x00856468        0x0 ../WebServer_bsp/\libucosii_bsp.a(alt_errno.o)
 .data          0x00856468        0x0 ../WebServer_bsp/\libucosii_bsp.a(alt_find_dev.o)
 .data          0x00856468        0x0 ../WebServer_bsp/\libucosii_bsp.a(alt_find_file.o)
 .data          0x00856468        0x0 ../WebServer_bsp/\libucosii_bsp.a(alt_fs_reg.o)
 .data          0x00856468        0x0 ../WebServer_bsp/\libucosii_bsp.a(alt_get_fd.o)
 .data          0x00856468        0x0 ../WebServer_bsp/\libucosii_bsp.a(alt_iic.o)
 .data          0x00856468        0x0 ../WebServer_bsp/\libucosii_bsp.a(alt_iic_isr_register.o)
 .data          0x00856468        0x0 ../WebServer_bsp/\libucosii_bsp.a(alt_io_redirect.o)
 .data          0x00856468        0x0 ../WebServer_bsp/\libucosii_bsp.a(alt_irq_entry.o)
 .data          0x00856468        0x0 ../WebServer_bsp/\libucosii_bsp.a(alt_irq_handler.o)
 .data          0x00856468        0x0 ../WebServer_bsp/\libucosii_bsp.a(alt_read.o)
 .data          0x00856468        0x0 ../WebServer_bsp/\libucosii_bsp.a(alt_remap_cached.o)
 .data          0x00856468        0x0 ../WebServer_bsp/\libucosii_bsp.a(alt_remap_uncached.o)
 .data          0x00856468        0x0 ../WebServer_bsp/\libucosii_bsp.a(alt_write.o)
 .data          0x00856468        0x0 ../WebServer_bsp/\libucosii_bsp.a(altera_nios2_qsys_irq.o)
 .data          0x00856468        0x0 ../WebServer_bsp/\libucosii_bsp.a(os_cpu_a.o)
 .data          0x00856468        0x0 ../WebServer_bsp/\libucosii_bsp.a(os_cpu_c.o)
 .data          0x00856468        0x0 ../WebServer_bsp/\libucosii_bsp.a(altera_avalon_cfi_flash_amd.o)
 .data          0x00856468        0x0 ../WebServer_bsp/\libucosii_bsp.a(altera_avalon_cfi_flash_intel.o)
 .data          0x00856468        0x0 ../WebServer_bsp/\libucosii_bsp.a(altera_avalon_spi.o)
 .data          0x00856468       0x18 ../WebServer_bsp/\libucosii_bsp.a(allports.o)
                0x00856468                icmpdu_types
 .data          0x00856480        0x0 ../WebServer_bsp/\libucosii_bsp.a(timeouts.o)
 .data          0x00856480        0x0 ../WebServer_bsp/\libucosii_bsp.a(tk_misc.o)
 .data          0x00856480        0x0 ../WebServer_bsp/\libucosii_bsp.a(alt_iniche_fcntl.o)
 .data          0x00856480        0x0 ../WebServer_bsp/\libucosii_bsp.a(et_arp.o)
 .data          0x00856480        0x0 ../WebServer_bsp/\libucosii_bsp.a(iface.o)
 .data          0x00856480        0x0 ../WebServer_bsp/\libucosii_bsp.a(ip.o)
 .data          0x00856480        0x0 ../WebServer_bsp/\libucosii_bsp.a(ip_reasm.o)
 .data          0x00856480        0x0 ../WebServer_bsp/\libucosii_bsp.a(ipdemux.o)
 .data          0x00856480        0x0 ../WebServer_bsp/\libucosii_bsp.a(ipmc.o)
 .data          0x00856480        0x0 ../WebServer_bsp/\libucosii_bsp.a(ipport.o)
 .data          0x00856480        0x0 ../WebServer_bsp/\libucosii_bsp.a(ipraw.o)
 .data          0x00856480        0xc ../WebServer_bsp/\libucosii_bsp.a(iproute.o)
                0x00856480                rtp_priority
 .data          0x0085648c        0x0 ../WebServer_bsp/\libucosii_bsp.a(udp.o)
 .data          0x0085648c        0x0 ../WebServer_bsp/\libucosii_bsp.a(igmp.o)
 .data          0x0085648c        0x0 ../WebServer_bsp/\libucosii_bsp.a(igmp2.o)
 .data          0x0085648c        0x0 ../WebServer_bsp/\libucosii_bsp.a(ipopt.o)
 .data          0x0085648c        0x0 ../WebServer_bsp/\libucosii_bsp.a(u_mctest.o)
 .data          0x0085648c        0x0 ../WebServer_bsp/\libucosii_bsp.a(dhcsetup.o)
 .data          0x0085648c       0xd4 ../WebServer_bsp/\libucosii_bsp.a(memdev.o)
                0x0085648c                mdio
                0x008564b0                mdlist
 .data          0x00856560        0x0 ../WebServer_bsp/\libucosii_bsp.a(parseip.o)
 .data          0x00856560        0x0 ../WebServer_bsp/\libucosii_bsp.a(tcpcksum.o)
 .data          0x00856560        0x0 ../WebServer_bsp/\libucosii_bsp.a(in_pcb.o)
 .data          0x00856560       0x80 ../WebServer_bsp/\libucosii_bsp.a(vfsfiles.o)
                0x00856560                vfs_root_path
 .data          0x008565e0        0x0 ../WebServer_bsp/\libucosii_bsp.a(vfsport.o)
 .data          0x008565e0        0x0 ../WebServer_bsp/\libucosii_bsp.a(alt_exception_entry.o)
 .data          0x008565e0        0x0 ../WebServer_bsp/\libucosii_bsp.a(alt_fcntl.o)
 .data          0x008565e0       0x18 ../WebServer_bsp/\libucosii_bsp.a(icmp.o)
 .data          0x008565f8        0x0 c:/altera/13.0/nios2eds/bin/gnu/h-i686-mingw32/bin/../lib/gcc/nios2-elf/4.1.2/../../../../nios2-elf/lib\libc.a(lib_a-atexit.o)
 .data          0x008565f8        0x0 c:/altera/13.0/nios2eds/bin/gnu/h-i686-mingw32/bin/../lib/gcc/nios2-elf/4.1.2/../../../../nios2-elf/lib\libc.a(lib_a-calloc.o)
 .data          0x008565f8        0x0 c:/altera/13.0/nios2eds/bin/gnu/h-i686-mingw32/bin/../lib/gcc/nios2-elf/4.1.2/../../../../nios2-elf/lib\libc.a(lib_a-exit.o)
 .data          0x008565f8        0x0 c:/altera/13.0/nios2eds/bin/gnu/h-i686-mingw32/bin/../lib/gcc/nios2-elf/4.1.2/../../../../nios2-elf/lib\libc.a(lib_a-malloc.o)
 .data          0x008565f8        0x0 c:/altera/13.0/nios2eds/bin/gnu/h-i686-mingw32/bin/../lib/gcc/nios2-elf/4.1.2/../../../../nios2-elf/lib\libc.a(lib_a-vprintf.o)
 .data          0x008565f8        0x0 c:/altera/13.0/nios2eds/bin/gnu/h-i686-mingw32/bin/../lib/gcc/nios2-elf/4.1.2/../../../../nios2-elf/lib\libc.a(lib_a-vsprintf.o)
 .data          0x008565f8        0x0 c:/altera/13.0/nios2eds/bin/gnu/h-i686-mingw32/bin/../lib/gcc/nios2-elf/4.1.2/../../../../nios2-elf/lib\libc.a(lib_a-__atexit.o)
 .data          0x008565f8        0x0 c:/altera/13.0/nios2eds/bin/gnu/h-i686-mingw32/bin/../lib/gcc/nios2-elf/4.1.2/../../../../nios2-elf/lib\libc.a(lib_a-__call_atexit.o)
 .data          0x008565f8        0x0 ../WebServer_bsp/\libucosii_bsp.a(alt_exit.o)
                0x0085e5f8                _gp = ABSOLUTE ((. + 0x8000))
                0x0085e5f8                PROVIDE (gp, _gp)
 *(.rwdata .rwdata.*)
 *(.sdata .sdata.* .gnu.linkonce.s.*)
 .sdata         0x008565f8       0x28 obj/default/http.o
                0x008565f8                mapping
                0x00856600                sweep_field
                0x00856608                lcd_field
                0x00856610                upload_field
                0x00856618                flash_field
 .sdata         0x00856620        0x4 c:/altera/13.0/nios2eds/bin/gnu/h-i686-mingw32/bin/../lib/gcc/nios2-elf/4.1.2/../../../../nios2-elf/lib\libc.a(lib_a-ctype_.o)
                0x00856620                __ctype_ptr
 .sdata         0x00856624        0x8 c:/altera/13.0/nios2eds/bin/gnu/h-i686-mingw32/bin/../lib/gcc/nios2-elf/4.1.2/../../../../nios2-elf/lib\libc.a(lib_a-impure.o)
                0x00856624                _impure_ptr
                0x00856628                _global_impure_ptr
 .sdata         0x0085662c        0x8 c:/altera/13.0/nios2eds/bin/gnu/h-i686-mingw32/bin/../lib/gcc/nios2-elf/4.1.2/../../../../nios2-elf/lib\libc.a(lib_a-mallocr.o)
                0x0085662c                __malloc_trim_threshold
                0x00856630                __malloc_sbrk_base
 .sdata         0x00856634        0x8 c:/altera/13.0/nios2eds/bin/gnu/h-i686-mingw32/bin/../lib/gcc/nios2-elf/4.1.2/../../../../nios2-elf/lib\libc.a(lib_a-locale.o)
                0x00856634                __mb_cur_max
 .sdata         0x0085663c        0x8 ../WebServer_bsp/\libucosii_bsp.a(alt_flash_dev.o)
                0x0085663c                alt_flash_dev_list
 .sdata         0x00856644        0x4 ../WebServer_bsp/\libucosii_bsp.a(alt_irq_vars.o)
                0x00856644                alt_priority_mask
 .sdata         0x00856648        0x4 ../WebServer_bsp/\libucosii_bsp.a(alt_sbrk.o)
 .sdata         0x0085664c        0x8 ../WebServer_bsp/\libucosii_bsp.a(alt_tick.o)
                0x0085664c                alt_alarm_list
 .sdata         0x00856654        0x4 ../WebServer_bsp/\libucosii_bsp.a(alt_env_lock.o)
 .sdata         0x00856658        0x4 ../WebServer_bsp/\libucosii_bsp.a(alt_malloc_lock.o)
 .sdata         0x0085665c       0x74 ../WebServer_bsp/\libucosii_bsp.a(os_dbg.o)
                0x0085665c                OSDebugEn
                0x00856660                OSEndiannessTest
                0x00856664                OSEventEn
                0x00856666                OSEventMax
                0x00856668                OSEventNameSize
                0x0085666a                OSEventSize
                0x0085666c                OSEventTblSize
                0x0085666e                OSEventMultiEn
                0x00856670                OSFlagEn
                0x00856672                OSFlagGrpSize
                0x00856674                OSFlagNodeSize
                0x00856676                OSFlagWidth
                0x00856678                OSFlagMax
                0x0085667a                OSFlagNameSize
                0x0085667c                OSLowestPrio
                0x0085667e                OSMboxEn
                0x00856680                OSMemEn
                0x00856682                OSMemMax
                0x00856684                OSMemNameSize
                0x00856686                OSMemSize
                0x00856688                OSMemTblSize
                0x0085668a                OSMutexEn
                0x0085668c                OSPtrSize
                0x0085668e                OSQEn
                0x00856690                OSQMax
                0x00856692                OSQSize
                0x00856694                OSRdyTblSize
                0x00856696                OSSemEn
                0x00856698                OSStkWidth
                0x0085669a                OSTaskCreateEn
                0x0085669c                OSTaskCreateExtEn
                0x0085669e                OSTaskDelEn
                0x008566a0                OSTaskIdleStkSize
                0x008566a2                OSTaskProfileEn
                0x008566a4                OSTaskMax
                0x008566a6                OSTaskNameSize
                0x008566a8                OSTaskStatEn
                0x008566aa                OSTaskStatStkSize
                0x008566ac                OSTaskStatStkChkEn
                0x008566ae                OSTaskSwHookEn
                0x008566b0                OSTCBPrioTblMax
                0x008566b2                OSTCBSize
                0x008566b4                OSTicksPerSec
                0x008566b6                OSTimeTickHookEn
                0x008566b8                OSVersionNbr
                0x008566ba                OSTmrEn
                0x008566bc                OSTmrCfgMax
                0x008566be                OSTmrCfgNameSize
                0x008566c0                OSTmrCfgWheelSize
                0x008566c2                OSTmrCfgTicksPerSec
                0x008566c4                OSTmrSize
                0x008566c6                OSTmrTblSize
                0x008566c8                OSTmrWheelSize
                0x008566ca                OSTmrWheelTblSize
                0x008566cc                OSDataSize
 .sdata         0x008566d0        0x4 ../WebServer_bsp/\libucosii_bsp.a(altera_avalon_lcd_16207.o)
 .sdata         0x008566d4        0x8 ../WebServer_bsp/\libucosii_bsp.a(alt_iniche_dev.o)
                0x008566d4                alt_iniche_dev_list
 .sdata         0x008566dc        0x4 ../WebServer_bsp/\libucosii_bsp.a(ipstart.o)
                0x008566dc                ipmcfail_str
 .sdata         0x008566e0        0x4 ../WebServer_bsp/\libucosii_bsp.a(cksum.o)
 .sdata         0x008566e4        0x4 ../WebServer_bsp/\libucosii_bsp.a(netmain.o)
                0x008566e4                num_net_tasks
 .sdata         0x008566e8        0xc ../WebServer_bsp/\libucosii_bsp.a(dhcpclnt.o)
                0x008566e8                xids
                0x008566ec                reqlist
                0x008566f0                reqlist_len
 .sdata         0x008566f4       0x10 ../WebServer_bsp/\libucosii_bsp.a(pktalloc.o)
                0x008566f4                lilbufs
                0x008566f8                lilbufsiz
                0x008566fc                bigbufs
                0x00856700                bigbufsiz
 .sdata         0x00856704        0x4 ../WebServer_bsp/\libucosii_bsp.a(brdutils.o)
                0x00856704                kb_last
 .sdata         0x00856708        0x4 ../WebServer_bsp/\libucosii_bsp.a(nptcp.o)
                0x00856708                TCPTV_MSL
 .sdata         0x0085670c        0x2 ../WebServer_bsp/\libucosii_bsp.a(socket.o)
                0x0085670c                socket_defaults
 .sdata         0x0085670e        0x1 ../WebServer_bsp/\libucosii_bsp.a(tcp_in.o)
                0x0085670e                tcprexmtthresh
 *fill*         0x0085670f        0x1 00
 .sdata         0x00856710        0x4 ../WebServer_bsp/\libucosii_bsp.a(tcp_subr.o)
                0x00856710                tcp_ttl
 .sdata         0x00856714        0x8 ../WebServer_bsp/\libucosii_bsp.a(tcp_timr.o)
                0x00856714                tcp_keepidle
                0x00856718                tcp_keepintvl
 .sdata         0x0085671c        0x8 ../WebServer_bsp/\libucosii_bsp.a(tcp_usr.o)
                0x0085671c                tcp_sendspace
                0x00856720                tcp_recvspace
 .sdata         0x00856724       0x14 ../WebServer_bsp/\libucosii_bsp.a(alt_dev.o)
                0x00856724                alt_fs_list
                0x0085672c                alt_dev_list
                0x00856734                alt_max_fd
 .sdata         0x00856738        0x4 ../WebServer_bsp/\libucosii_bsp.a(alt_errno.o)
                0x00856738                alt_errno
 .sdata         0x0085673c       0x10 ../WebServer_bsp/\libucosii_bsp.a(allports.o)
                0x0085673c                name
                0x00856740                prompt
                0x00856744                pingdelay
                0x00856748                deflength
 .sdata         0x0085674c        0x4 ../WebServer_bsp/\libucosii_bsp.a(et_arp.o)
                0x0085674c                arp_ageout
 .sdata         0x00856750        0x8 ../WebServer_bsp/\libucosii_bsp.a(ip.o)
                0x00856754                ipRoutes
 .sdata         0x00856758        0x4 ../WebServer_bsp/\libucosii_bsp.a(u_mctest.o)
 .sdata         0x0085675c        0x4 ../WebServer_bsp/\libucosii_bsp.a(memdev.o)
                0x0085675c                mdlist_size
 .sdata         0x00856760        0x4 ../WebServer_bsp/\libucosii_bsp.a(parseip.o)
                0x00856760                pton_error
 .sdata         0x00856764        0x4 ../WebServer_bsp/\libucosii_bsp.a(vfsfiles.o)
                0x00856764                http_root_path
 *(.sdata2 .sdata2.* .gnu.linkonce.s2.*)
                0x00856768                . = ALIGN (0x4)
                0x00856768                _edata = ABSOLUTE (.)
                0x00856768                PROVIDE (edata, ABSOLUTE (.))
                0x00856768                PROVIDE (__ram_rwdata_end, ABSOLUTE (.))
                0x008545a8                PROVIDE (__flash_rwdata_start, LOADADDR (.rwdata))

.bss            0x00856768   0x5e9ebc
                0x00856768                __bss_start = ABSOLUTE (.)
                0x00856768                PROVIDE (__sbss_start, ABSOLUTE (.))
                0x00856768                PROVIDE (___sbss_start, ABSOLUTE (.))
 *(.dynsbss)
 *(.sbss .sbss.* .gnu.linkonce.sb.*)
 .sbss          0x00856768        0x8 obj/default/dm9000a.o
                0x00856768                autoReset
                0x0085676c                netisrs
 .sbss          0x00856770        0x8 obj/default/network_utilities.o
                0x00856770                last_flash_sector_offset
                0x00856774                last_flash_sector
 .sbss          0x00856778        0x8 obj/default/srec_flash.o
                0x00856778                line_count
                0x0085677c                current_flash_block
 .sbss          0x00856780        0x9 obj/default/web_server.o
                0x00856780                lcdDevice
                0x00856784                board_control_mbox
                0x00856788                to_wstask
 *fill*         0x00856789        0x3 00
 .sbss          0x0085678c        0x4 c:/altera/13.0/nios2eds/bin/gnu/h-i686-mingw32/bin/../lib/gcc/nios2-elf/4.1.2/../../../../nios2-elf/lib\libc.a(lib_a-int_errno.o)
                0x0085678c                errno
 .sbss          0x00856790        0xc c:/altera/13.0/nios2eds/bin/gnu/h-i686-mingw32/bin/../lib/gcc/nios2-elf/4.1.2/../../../../nios2-elf/lib\libc.a(lib_a-mallocr.o)
                0x00856790                __malloc_top_pad
                0x00856794                __malloc_max_sbrked_mem
                0x00856798                __malloc_max_total_mem
 .sbss          0x0085679c        0xc c:/altera/13.0/nios2eds/bin/gnu/h-i686-mingw32/bin/../lib/gcc/nios2-elf/4.1.2/../../../../nios2-elf/lib\libc.a(lib_a-locale.o)
                0x0085679c                __nlocale_changed
                0x008567a0                __mlocale_changed
                0x008567a4                _PathLocale
 .sbss          0x008567a8        0x4 ../WebServer_bsp/\libucosii_bsp.a(alt_irq_vars.o)
                0x008567a8                alt_irq_active
 .sbss          0x008567ac        0xc ../WebServer_bsp/\libucosii_bsp.a(alt_main.o)
                0x008567ac                alt_argc
                0x008567b0                alt_argv
                0x008567b4                alt_envp
 .sbss          0x008567b8        0x8 ../WebServer_bsp/\libucosii_bsp.a(alt_tick.o)
                0x008567b8                _alt_tick_rate
                0x008567bc                _alt_nticks
 .sbss          0x008567c0        0x8 ../WebServer_bsp/\libucosii_bsp.a(alt_env_lock.o)
                0x008567c4                alt_envsem
 .sbss          0x008567c8        0x8 ../WebServer_bsp/\libucosii_bsp.a(alt_malloc_lock.o)
                0x008567cc                alt_heapsem
 .sbss          0x008567d0       0x54 ../WebServer_bsp/\libucosii_bsp.a(os_core.o)
                0x008567d0                OSLockNesting
                0x008567d1                OSRunning
                0x008567d4                OSIdleCtr
                0x008567d8                OSPrioHighRdy
                0x008567d9                OSPrioCur
                0x008567dc                OSTCBList
                0x008567e0                OSTickStepState
                0x008567e4                OSCtxSwCtr
                0x008567e8                OSIdleCtrMax
                0x008567ec                OSTCBFreeList
                0x008567f0                OSCPUUsage
                0x008567f1                OSTaskCtr
                0x008567f4                OSMemFreeList
                0x008567f8                OSTCBHighRdy
                0x008567fc                OSQFreeList
                0x00856800                OSRdyGrp
                0x00856804                OSRdyTbl
                0x00856808                OSEventFreeList
                0x0085680c                OSIntNesting
                0x00856810                OSTCBCur
                0x00856814                OSTime
                0x00856818                OSFlagFreeList
                0x0085681c                OSStatRdy
                0x00856820                OSIdleCtrRun
 .sbss          0x00856824        0xc ../WebServer_bsp/\libucosii_bsp.a(ipnet.o)
                0x00856824                MaxLnh
                0x00856828                MaxMtu
                0x0085682c                NDEBUG
 .sbss          0x00856830        0x8 ../WebServer_bsp/\libucosii_bsp.a(ipstart.o)
                0x00856830                ifNumber
 .sbss          0x00856838       0x10 ../WebServer_bsp/\libucosii_bsp.a(igmp_cmn.o)
                0x00856838                igmp_timers_are_running
                0x0085683c                igmp_cticks
                0x00856840                igmp_all_hosts_group
                0x00856844                igmp_all_rtrs_group
 .sbss          0x00856848        0xe ../WebServer_bsp/\libucosii_bsp.a(netmain.o)
                0x00856848                netmain_wakes
                0x0085684c                nettick_wakes
                0x00856850                iniche_net_ready
                0x00856854                to_netmain
                0x00856855                to_nettick
 *fill*         0x00856856        0x2 00
 .sbss          0x00856858        0x4 ../WebServer_bsp/\libucosii_bsp.a(tk_crnos.o)
                0x00856858                tcp_sleep_timeout
 .sbss          0x0085685c       0x34 ../WebServer_bsp/\libucosii_bsp.a(dhcpclnt.o)
                0x0085685c                dhc_conn
                0x00856860                dsc_errors
                0x00856864                dsc_discovers
                0x00856868                dsc_offers
                0x0085686c                dsc_requests
                0x00856870                dsc_acks
                0x00856874                dsc_bpreplys
                0x00856878                dsc_declines
                0x0085687c                dsc_releases
                0x00856880                dsc_naks
                0x00856884                dsc_renew
                0x00856888                dsc_rebind
                0x0085688c                dsc_rlyerrs
 .sbss          0x00856890        0x4 ../WebServer_bsp/\libucosii_bsp.a(udp_open.o)
                0x00856890                firstudp
 .sbss          0x00856894       0x18 ../WebServer_bsp/\libucosii_bsp.a(brdutils.o)
                0x00856898                cticks_initialized
                0x0085689c                irq_level
                0x008568a4                cticks_factor
                0x008568a8                OS_TPS
 .sbss          0x008568ac       0x18 ../WebServer_bsp/\libucosii_bsp.a(osportco.o)
                0x008568ac                tcp_sleep_count
                0x008568b0                tcp_wakeup_count
                0x008568b4                netq_intmask
                0x008568b8                old_mode
                0x008568bc                global_TCPwakeup_setIndx
                0x008568c0                cticks
 .sbss          0x008568c4        0xc ../WebServer_bsp/\libucosii_bsp.a(targnios.o)
                0x008568c4                memtrapsize
                0x008568c8                mheap_sem_ptr
                0x008568cc                rcvdq_sem_ptr
 .sbss          0x008568d0       0x12 ../WebServer_bsp/\libucosii_bsp.a(nptcp.o)
                0x008568d0                nextslow
                0x008568d8                mbstat
                0x008568e0                select_wait
 *fill*         0x008568e2        0x2 00
 .sbss          0x008568e4        0x8 ../WebServer_bsp/\libucosii_bsp.a(tcp_in.o)
                0x008568e4                tcpprintfs
                0x008568e8                dropline
 .sbss          0x008568ec        0x4 ../WebServer_bsp/\libucosii_bsp.a(tcp_out.o)
                0x008568ec                tcp_optionbuf
 .sbss          0x008568f0        0x8 ../WebServer_bsp/\libucosii_bsp.a(tcp_timr.o)
                0x008568f0                tcp_maxidle
                0x008568f4                tcp_iss
 .sbss          0x008568f8        0x4 ../WebServer_bsp/\libucosii_bsp.a(alt_dev.o)
                0x008568f8                alt_fd_list_lock
 .sbss          0x008568fc        0x8 ../WebServer_bsp/\libucosii_bsp.a(allports.o)
                0x008568fc                activehost
 .sbss          0x00856904        0xc ../WebServer_bsp/\libucosii_bsp.a(timeouts.o)
                0x00856904                nextppp
                0x00856908                port_1s_callout
 .sbss          0x00856910       0x1c ../WebServer_bsp/\libucosii_bsp.a(et_arp.o)
                0x00856914                arpcache
                0x00856918                arpReqsIn
                0x0085691c                arpReqsOut
                0x00856920                arpRepsIn
                0x00856924                arpRepsOut
 .sbss          0x0085692c        0x4 ../WebServer_bsp/\libucosii_bsp.a(ip.o)
                0x0085692c                rt_mib
 .sbss          0x00856930        0xc ../WebServer_bsp/\libucosii_bsp.a(ip_reasm.o)
                0x00856930                ipr_curr_mem
                0x00856934                h_ireq
                0x00856938                ire_cticks
 .sbss          0x0085693c       0x11 ../WebServer_bsp/\libucosii_bsp.a(ipport.o)
                0x0085693c                port_prep
                0x00856940                net_system_exit
                0x00856944                so_evtmap_create
                0x00856948                so_evtmap_delete
                0x0085694c                so_evtmap
 *fill*         0x0085694d        0x3 00
 .sbss          0x00856950        0x4 ../WebServer_bsp/\libucosii_bsp.a(ipraw.o)
                0x00856950                ipraw_eps
 .sbss          0x00856954        0x4 ../WebServer_bsp/\libucosii_bsp.a(iproute.o)
                0x00856954                cachedRoute
 .sbss          0x00856958        0x2 ../WebServer_bsp/\libucosii_bsp.a(udp.o)
 *fill*         0x0085695a        0x2 00
 .sbss          0x0085695c        0x8 ../WebServer_bsp/\libucosii_bsp.a(in_pcb.o)
                0x0085695c                inpcb_cachehits
                0x00856960                inpcb_cachemiss
 .sbss          0x00856964       0x20 ../WebServer_bsp/\libucosii_bsp.a(vfsfiles.o)
                0x00856964                vfsystems
                0x00856968                vfiles
                0x0085696c                vfsfiles
                0x00856970                vfopen_error
                0x00856974                vfs_dir_stale
                0x00856978                vfs_open_files
                0x0085697c                vfs_total_rw_space
                0x00856980                vfs_total_dyna_files
 .sbss          0x00856984        0x4 ../WebServer_bsp/\libucosii_bsp.a(icmp.o)
                0x00856984                icmpdu_hook
 *(.sbss2 .sbss2.* .gnu.linkonce.sb2.*)
 *(.scommon)
                0x00856988                PROVIDE (__sbss_end, ABSOLUTE (.))
                0x00856988                PROVIDE (___sbss_end, ABSOLUTE (.))
 *(.dynbss)
 *(.bss .bss.* .gnu.linkonce.b.*)
 .bss           0x00856988        0x0 ../WebServer_bsp//obj/HAL/src/crt0.o
 .bss           0x00856988        0x0 obj/default/alt_error_handler.o
 .bss           0x00856988        0x0 obj/default/dm9000a.o
 .bss           0x00856988     0xcb10 obj/default/http.o
 .bss           0x00863498        0x0 obj/default/network_utilities.o
 .bss           0x00863498        0x0 obj/default/srec_flash.o
 .bss           0x00863498        0x0 obj/default/web_server.o
 .bss           0x00863498        0x0 c:/altera/13.0/nios2eds/bin/gnu/h-i686-mingw32/bin/../lib/gcc/nios2-elf/4.1.2\libgcc.a(_fixunsdfsi.o)
 .bss           0x00863498        0x0 c:/altera/13.0/nios2eds/bin/gnu/h-i686-mingw32/bin/../lib/gcc/nios2-elf/4.1.2\libgcc.a(_addsub_df.o)
 .bss           0x00863498        0x0 c:/altera/13.0/nios2eds/bin/gnu/h-i686-mingw32/bin/../lib/gcc/nios2-elf/4.1.2\libgcc.a(_mul_df.o)
 .bss           0x00863498        0x0 c:/altera/13.0/nios2eds/bin/gnu/h-i686-mingw32/bin/../lib/gcc/nios2-elf/4.1.2\libgcc.a(_ge_df.o)
 .bss           0x00863498        0x0 c:/altera/13.0/nios2eds/bin/gnu/h-i686-mingw32/bin/../lib/gcc/nios2-elf/4.1.2\libgcc.a(_df_to_si.o)
 .bss           0x00863498        0x0 c:/altera/13.0/nios2eds/bin/gnu/h-i686-mingw32/bin/../lib/gcc/nios2-elf/4.1.2\libgcc.a(_thenan_df.o)
 .bss           0x00863498        0x0 c:/altera/13.0/nios2eds/bin/gnu/h-i686-mingw32/bin/../lib/gcc/nios2-elf/4.1.2\libgcc.a(_usi_to_df.o)
 .bss           0x00863498        0x0 c:/altera/13.0/nios2eds/bin/gnu/h-i686-mingw32/bin/../lib/gcc/nios2-elf/4.1.2\libgcc.a(lib2-divmod.o)
 .bss           0x00863498        0x0 c:/altera/13.0/nios2eds/bin/gnu/h-i686-mingw32/bin/../lib/gcc/nios2-elf/4.1.2\libgcc.a(_muldi3.o)
 .bss           0x00863498        0x0 c:/altera/13.0/nios2eds/bin/gnu/h-i686-mingw32/bin/../lib/gcc/nios2-elf/4.1.2\libgcc.a(_clzsi2.o)
 .bss           0x00863498        0x0 c:/altera/13.0/nios2eds/bin/gnu/h-i686-mingw32/bin/../lib/gcc/nios2-elf/4.1.2\libgcc.a(_pack_df.o)
 .bss           0x00863498        0x0 c:/altera/13.0/nios2eds/bin/gnu/h-i686-mingw32/bin/../lib/gcc/nios2-elf/4.1.2\libgcc.a(_unpack_df.o)
 .bss           0x00863498        0x0 c:/altera/13.0/nios2eds/bin/gnu/h-i686-mingw32/bin/../lib/gcc/nios2-elf/4.1.2\libgcc.a(_fpcmp_parts_df.o)
 .bss           0x00863498        0x0 c:/altera/13.0/nios2eds/bin/gnu/h-i686-mingw32/bin/../lib/gcc/nios2-elf/4.1.2\libgcc.a(_clz.o)
 .bss           0x00863498        0x0 c:/altera/13.0/nios2eds/bin/gnu/h-i686-mingw32/bin/../lib/gcc/nios2-elf/4.1.2/../../../../nios2-elf/lib\libc.a(lib_a-atoi.o)
 .bss           0x00863498        0x0 c:/altera/13.0/nios2eds/bin/gnu/h-i686-mingw32/bin/../lib/gcc/nios2-elf/4.1.2/../../../../nios2-elf/lib\libc.a(lib_a-ctype_.o)
 .bss           0x00863498        0x0 c:/altera/13.0/nios2eds/bin/gnu/h-i686-mingw32/bin/../lib/gcc/nios2-elf/4.1.2/../../../../nios2-elf/lib\libc.a(lib_a-fclose.o)
 .bss           0x00863498        0x0 c:/altera/13.0/nios2eds/bin/gnu/h-i686-mingw32/bin/../lib/gcc/nios2-elf/4.1.2/../../../../nios2-elf/lib\libc.a(lib_a-fflush.o)
 .bss           0x00863498        0x0 c:/altera/13.0/nios2eds/bin/gnu/h-i686-mingw32/bin/../lib/gcc/nios2-elf/4.1.2/../../../../nios2-elf/lib\libc.a(lib_a-fgetpos.o)
 .bss           0x00863498        0x0 c:/altera/13.0/nios2eds/bin/gnu/h-i686-mingw32/bin/../lib/gcc/nios2-elf/4.1.2/../../../../nios2-elf/lib\libc.a(lib_a-findfp.o)
 .bss           0x00863498        0x0 c:/altera/13.0/nios2eds/bin/gnu/h-i686-mingw32/bin/../lib/gcc/nios2-elf/4.1.2/../../../../nios2-elf/lib\libc.a(lib_a-fopen.o)
 .bss           0x00863498        0x0 c:/altera/13.0/nios2eds/bin/gnu/h-i686-mingw32/bin/../lib/gcc/nios2-elf/4.1.2/../../../../nios2-elf/lib\libc.a(lib_a-fprintf.o)
 .bss           0x00863498        0x0 c:/altera/13.0/nios2eds/bin/gnu/h-i686-mingw32/bin/../lib/gcc/nios2-elf/4.1.2/../../../../nios2-elf/lib\libc.a(lib_a-fread.o)
 .bss           0x00863498        0x0 c:/altera/13.0/nios2eds/bin/gnu/h-i686-mingw32/bin/../lib/gcc/nios2-elf/4.1.2/../../../../nios2-elf/lib\libc.a(lib_a-freer.o)
 .bss           0x00863498        0x0 c:/altera/13.0/nios2eds/bin/gnu/h-i686-mingw32/bin/../lib/gcc/nios2-elf/4.1.2/../../../../nios2-elf/lib\libc.a(lib_a-fseek.o)
 .bss           0x00863498        0x0 c:/altera/13.0/nios2eds/bin/gnu/h-i686-mingw32/bin/../lib/gcc/nios2-elf/4.1.2/../../../../nios2-elf/lib\libc.a(lib_a-fstatr.o)
 .bss           0x00863498        0x0 c:/altera/13.0/nios2eds/bin/gnu/h-i686-mingw32/bin/../lib/gcc/nios2-elf/4.1.2/../../../../nios2-elf/lib\libc.a(lib_a-ftell.o)
 .bss           0x00863498        0x0 c:/altera/13.0/nios2eds/bin/gnu/h-i686-mingw32/bin/../lib/gcc/nios2-elf/4.1.2/../../../../nios2-elf/lib\libc.a(lib_a-fwalk.o)
 .bss           0x00863498        0x0 c:/altera/13.0/nios2eds/bin/gnu/h-i686-mingw32/bin/../lib/gcc/nios2-elf/4.1.2/../../../../nios2-elf/lib\libc.a(lib_a-fwrite.o)
 .bss           0x00863498        0x0 c:/altera/13.0/nios2eds/bin/gnu/h-i686-mingw32/bin/../lib/gcc/nios2-elf/4.1.2/../../../../nios2-elf/lib\libc.a(lib_a-getc.o)
 .bss           0x00863498        0x0 c:/altera/13.0/nios2eds/bin/gnu/h-i686-mingw32/bin/../lib/gcc/nios2-elf/4.1.2/../../../../nios2-elf/lib\libc.a(lib_a-impure.o)
 .bss           0x00863498        0x0 c:/altera/13.0/nios2eds/bin/gnu/h-i686-mingw32/bin/../lib/gcc/nios2-elf/4.1.2/../../../../nios2-elf/lib\libc.a(lib_a-int_errno.o)
 .bss           0x00863498        0x0 c:/altera/13.0/nios2eds/bin/gnu/h-i686-mingw32/bin/../lib/gcc/nios2-elf/4.1.2/../../../../nios2-elf/lib\libc.a(lib_a-makebuf.o)
 .bss           0x00863498       0x28 c:/altera/13.0/nios2eds/bin/gnu/h-i686-mingw32/bin/../lib/gcc/nios2-elf/4.1.2/../../../../nios2-elf/lib\libc.a(lib_a-mallocr.o)
                0x00863498                __malloc_current_mallinfo
 .bss           0x008634c0        0x0 c:/altera/13.0/nios2eds/bin/gnu/h-i686-mingw32/bin/../lib/gcc/nios2-elf/4.1.2/../../../../nios2-elf/lib\libc.a(lib_a-memcpy.o)
 .bss           0x008634c0        0x0 c:/altera/13.0/nios2eds/bin/gnu/h-i686-mingw32/bin/../lib/gcc/nios2-elf/4.1.2/../../../../nios2-elf/lib\libc.a(lib_a-memmove.o)
 .bss           0x008634c0        0x0 c:/altera/13.0/nios2eds/bin/gnu/h-i686-mingw32/bin/../lib/gcc/nios2-elf/4.1.2/../../../../nios2-elf/lib\libc.a(lib_a-memset.o)
 .bss           0x008634c0        0x0 c:/altera/13.0/nios2eds/bin/gnu/h-i686-mingw32/bin/../lib/gcc/nios2-elf/4.1.2/../../../../nios2-elf/lib\libc.a(lib_a-openr.o)
 .bss           0x008634c0        0x0 c:/altera/13.0/nios2eds/bin/gnu/h-i686-mingw32/bin/../lib/gcc/nios2-elf/4.1.2/../../../../nios2-elf/lib\libc.a(lib_a-perror.o)
 .bss           0x008634c0        0x0 c:/altera/13.0/nios2eds/bin/gnu/h-i686-mingw32/bin/../lib/gcc/nios2-elf/4.1.2/../../../../nios2-elf/lib\libc.a(lib_a-printf.o)
 .bss           0x008634c0        0x0 c:/altera/13.0/nios2eds/bin/gnu/h-i686-mingw32/bin/../lib/gcc/nios2-elf/4.1.2/../../../../nios2-elf/lib\libc.a(lib_a-putc.o)
 .bss           0x008634c0        0x0 c:/altera/13.0/nios2eds/bin/gnu/h-i686-mingw32/bin/../lib/gcc/nios2-elf/4.1.2/../../../../nios2-elf/lib\libc.a(lib_a-putchar.o)
 .bss           0x008634c0        0x0 c:/altera/13.0/nios2eds/bin/gnu/h-i686-mingw32/bin/../lib/gcc/nios2-elf/4.1.2/../../../../nios2-elf/lib\libc.a(lib_a-puts.o)
 .bss           0x008634c0        0x0 c:/altera/13.0/nios2eds/bin/gnu/h-i686-mingw32/bin/../lib/gcc/nios2-elf/4.1.2/../../../../nios2-elf/lib\libc.a(lib_a-refill.o)
 .bss           0x008634c0        0x0 c:/altera/13.0/nios2eds/bin/gnu/h-i686-mingw32/bin/../lib/gcc/nios2-elf/4.1.2/../../../../nios2-elf/lib\libc.a(lib_a-rget.o)
 .bss           0x008634c0        0x0 c:/altera/13.0/nios2eds/bin/gnu/h-i686-mingw32/bin/../lib/gcc/nios2-elf/4.1.2/../../../../nios2-elf/lib\libc.a(lib_a-sbrkr.o)
 .bss           0x008634c0        0x0 c:/altera/13.0/nios2eds/bin/gnu/h-i686-mingw32/bin/../lib/gcc/nios2-elf/4.1.2/../../../../nios2-elf/lib\libc.a(lib_a-sprintf.o)
 .bss           0x008634c0        0x0 c:/altera/13.0/nios2eds/bin/gnu/h-i686-mingw32/bin/../lib/gcc/nios2-elf/4.1.2/../../../../nios2-elf/lib\libc.a(lib_a-sscanf.o)
 .bss           0x008634c0        0x0 c:/altera/13.0/nios2eds/bin/gnu/h-i686-mingw32/bin/../lib/gcc/nios2-elf/4.1.2/../../../../nios2-elf/lib\libc.a(lib_a-stdio.o)
 .bss           0x008634c0        0x0 c:/altera/13.0/nios2eds/bin/gnu/h-i686-mingw32/bin/../lib/gcc/nios2-elf/4.1.2/../../../../nios2-elf/lib\libc.a(lib_a-strcasecmp.o)
 .bss           0x008634c0        0x0 c:/altera/13.0/nios2eds/bin/gnu/h-i686-mingw32/bin/../lib/gcc/nios2-elf/4.1.2/../../../../nios2-elf/lib\libc.a(lib_a-strcat.o)
 .bss           0x008634c0        0x0 c:/altera/13.0/nios2eds/bin/gnu/h-i686-mingw32/bin/../lib/gcc/nios2-elf/4.1.2/../../../../nios2-elf/lib\libc.a(lib_a-strchr.o)
 .bss           0x008634c0        0x0 c:/altera/13.0/nios2eds/bin/gnu/h-i686-mingw32/bin/../lib/gcc/nios2-elf/4.1.2/../../../../nios2-elf/lib\libc.a(lib_a-strcmp.o)
 .bss           0x008634c0        0x0 c:/altera/13.0/nios2eds/bin/gnu/h-i686-mingw32/bin/../lib/gcc/nios2-elf/4.1.2/../../../../nios2-elf/lib\libc.a(lib_a-strcpy.o)
 .bss           0x008634c0        0x0 c:/altera/13.0/nios2eds/bin/gnu/h-i686-mingw32/bin/../lib/gcc/nios2-elf/4.1.2/../../../../nios2-elf/lib\libc.a(lib_a-strerror.o)
 .bss           0x008634c0        0x0 c:/altera/13.0/nios2eds/bin/gnu/h-i686-mingw32/bin/../lib/gcc/nios2-elf/4.1.2/../../../../nios2-elf/lib\libc.a(lib_a-strlen.o)
 .bss           0x008634c0        0x0 c:/altera/13.0/nios2eds/bin/gnu/h-i686-mingw32/bin/../lib/gcc/nios2-elf/4.1.2/../../../../nios2-elf/lib\libc.a(lib_a-strncmp.o)
 .bss           0x008634c0        0x0 c:/altera/13.0/nios2eds/bin/gnu/h-i686-mingw32/bin/../lib/gcc/nios2-elf/4.1.2/../../../../nios2-elf/lib\libc.a(lib_a-strncpy.o)
 .bss           0x008634c0        0x0 c:/altera/13.0/nios2eds/bin/gnu/h-i686-mingw32/bin/../lib/gcc/nios2-elf/4.1.2/../../../../nios2-elf/lib\libc.a(lib_a-strstr.o)
 .bss           0x008634c0        0x0 c:/altera/13.0/nios2eds/bin/gnu/h-i686-mingw32/bin/../lib/gcc/nios2-elf/4.1.2/../../../../nios2-elf/lib\libc.a(lib_a-strtok.o)
 .bss           0x008634c0        0x0 c:/altera/13.0/nios2eds/bin/gnu/h-i686-mingw32/bin/../lib/gcc/nios2-elf/4.1.2/../../../../nios2-elf/lib\libc.a(lib_a-strtok_r.o)
 .bss           0x008634c0        0x0 c:/altera/13.0/nios2eds/bin/gnu/h-i686-mingw32/bin/../lib/gcc/nios2-elf/4.1.2/../../../../nios2-elf/lib\libc.a(lib_a-strtol.o)
 .bss           0x008634c0        0x0 c:/altera/13.0/nios2eds/bin/gnu/h-i686-mingw32/bin/../lib/gcc/nios2-elf/4.1.2/../../../../nios2-elf/lib\libc.a(lib_a-u_strerr.o)
 .bss           0x008634c0        0x0 c:/altera/13.0/nios2eds/bin/gnu/h-i686-mingw32/bin/../lib/gcc/nios2-elf/4.1.2/../../../../nios2-elf/lib\libc.a(lib_a-vfprintf.o)
 .bss           0x008634c0        0x0 c:/altera/13.0/nios2eds/bin/gnu/h-i686-mingw32/bin/../lib/gcc/nios2-elf/4.1.2/../../../../nios2-elf/lib\libc.a(lib_a-vfscanf.o)
 .bss           0x008634c0        0x0 c:/altera/13.0/nios2eds/bin/gnu/h-i686-mingw32/bin/../lib/gcc/nios2-elf/4.1.2/../../../../nios2-elf/lib\libc.a(lib_a-wbuf.o)
 .bss           0x008634c0        0x0 c:/altera/13.0/nios2eds/bin/gnu/h-i686-mingw32/bin/../lib/gcc/nios2-elf/4.1.2/../../../../nios2-elf/lib\libc.a(lib_a-writer.o)
 .bss           0x008634c0        0x0 c:/altera/13.0/nios2eds/bin/gnu/h-i686-mingw32/bin/../lib/gcc/nios2-elf/4.1.2/../../../../nios2-elf/lib\libc.a(lib_a-wsetup.o)
 .bss           0x008634c0        0x0 c:/altera/13.0/nios2eds/bin/gnu/h-i686-mingw32/bin/../lib/gcc/nios2-elf/4.1.2/../../../../nios2-elf/lib\libc.a(lib_a-closer.o)
 .bss           0x008634c0        0x0 c:/altera/13.0/nios2eds/bin/gnu/h-i686-mingw32/bin/../lib/gcc/nios2-elf/4.1.2/../../../../nios2-elf/lib\libc.a(lib_a-dtoa.o)
 .bss           0x008634c0        0x0 c:/altera/13.0/nios2eds/bin/gnu/h-i686-mingw32/bin/../lib/gcc/nios2-elf/4.1.2/../../../../nios2-elf/lib\libc.a(lib_a-flags.o)
 .bss           0x008634c0        0x0 c:/altera/13.0/nios2eds/bin/gnu/h-i686-mingw32/bin/../lib/gcc/nios2-elf/4.1.2/../../../../nios2-elf/lib\libc.a(lib_a-fputc.o)
 .bss           0x008634c0        0x0 c:/altera/13.0/nios2eds/bin/gnu/h-i686-mingw32/bin/../lib/gcc/nios2-elf/4.1.2/../../../../nios2-elf/lib\libc.a(lib_a-fputs.o)
 .bss           0x008634c0        0x0 c:/altera/13.0/nios2eds/bin/gnu/h-i686-mingw32/bin/../lib/gcc/nios2-elf/4.1.2/../../../../nios2-elf/lib\libc.a(lib_a-fvwrite.o)
 .bss           0x008634c0        0x0 c:/altera/13.0/nios2eds/bin/gnu/h-i686-mingw32/bin/../lib/gcc/nios2-elf/4.1.2/../../../../nios2-elf/lib\libc.a(lib_a-isattyr.o)
 .bss           0x008634c0        0x0 c:/altera/13.0/nios2eds/bin/gnu/h-i686-mingw32/bin/../lib/gcc/nios2-elf/4.1.2/../../../../nios2-elf/lib\libc.a(lib_a-iswspace.o)
 .bss           0x008634c0        0x0 c:/altera/13.0/nios2eds/bin/gnu/h-i686-mingw32/bin/../lib/gcc/nios2-elf/4.1.2/../../../../nios2-elf/lib\libc.a(lib_a-locale.o)
 .bss           0x008634c0        0x0 c:/altera/13.0/nios2eds/bin/gnu/h-i686-mingw32/bin/../lib/gcc/nios2-elf/4.1.2/../../../../nios2-elf/lib\libc.a(lib_a-lseekr.o)
 .bss           0x008634c0        0x0 c:/altera/13.0/nios2eds/bin/gnu/h-i686-mingw32/bin/../lib/gcc/nios2-elf/4.1.2/../../../../nios2-elf/lib\libc.a(lib_a-mbrtowc.o)
 .bss           0x008634c0        0x0 c:/altera/13.0/nios2eds/bin/gnu/h-i686-mingw32/bin/../lib/gcc/nios2-elf/4.1.2/../../../../nios2-elf/lib\libc.a(lib_a-mbtowc_r.o)
 .bss           0x008634c0        0x0 c:/altera/13.0/nios2eds/bin/gnu/h-i686-mingw32/bin/../lib/gcc/nios2-elf/4.1.2/../../../../nios2-elf/lib\libc.a(lib_a-memchr.o)
 .bss           0x008634c0        0x0 c:/altera/13.0/nios2eds/bin/gnu/h-i686-mingw32/bin/../lib/gcc/nios2-elf/4.1.2/../../../../nios2-elf/lib\libc.a(lib_a-memcmp.o)
 .bss           0x008634c0        0x0 c:/altera/13.0/nios2eds/bin/gnu/h-i686-mingw32/bin/../lib/gcc/nios2-elf/4.1.2/../../../../nios2-elf/lib\libc.a(lib_a-mprec.o)
 .bss           0x008634c0        0x0 c:/altera/13.0/nios2eds/bin/gnu/h-i686-mingw32/bin/../lib/gcc/nios2-elf/4.1.2/../../../../nios2-elf/lib\libc.a(lib_a-readr.o)
 .bss           0x008634c0        0x0 c:/altera/13.0/nios2eds/bin/gnu/h-i686-mingw32/bin/../lib/gcc/nios2-elf/4.1.2/../../../../nios2-elf/lib\libc.a(lib_a-reallocr.o)
 .bss           0x008634c0        0x0 c:/altera/13.0/nios2eds/bin/gnu/h-i686-mingw32/bin/../lib/gcc/nios2-elf/4.1.2/../../../../nios2-elf/lib\libc.a(lib_a-s_isinfd.o)
 .bss           0x008634c0        0x0 c:/altera/13.0/nios2eds/bin/gnu/h-i686-mingw32/bin/../lib/gcc/nios2-elf/4.1.2/../../../../nios2-elf/lib\libc.a(lib_a-s_isnand.o)
 .bss           0x008634c0        0x0 c:/altera/13.0/nios2eds/bin/gnu/h-i686-mingw32/bin/../lib/gcc/nios2-elf/4.1.2/../../../../nios2-elf/lib\libc.a(lib_a-sccl.o)
 .bss           0x008634c0        0x0 c:/altera/13.0/nios2eds/bin/gnu/h-i686-mingw32/bin/../lib/gcc/nios2-elf/4.1.2/../../../../nios2-elf/lib\libc.a(lib_a-sf_nan.o)
 .bss           0x008634c0        0x0 c:/altera/13.0/nios2eds/bin/gnu/h-i686-mingw32/bin/../lib/gcc/nios2-elf/4.1.2/../../../../nios2-elf/lib\libc.a(lib_a-strtod.o)
 .bss           0x008634c0        0x0 c:/altera/13.0/nios2eds/bin/gnu/h-i686-mingw32/bin/../lib/gcc/nios2-elf/4.1.2/../../../../nios2-elf/lib\libc.a(lib_a-strtoll_r.o)
 .bss           0x008634c0        0x0 c:/altera/13.0/nios2eds/bin/gnu/h-i686-mingw32/bin/../lib/gcc/nios2-elf/4.1.2/../../../../nios2-elf/lib\libc.a(lib_a-strtoul.o)
 .bss           0x008634c0        0x0 c:/altera/13.0/nios2eds/bin/gnu/h-i686-mingw32/bin/../lib/gcc/nios2-elf/4.1.2/../../../../nios2-elf/lib\libc.a(lib_a-strtoull_r.o)
 .bss           0x008634c0        0x0 c:/altera/13.0/nios2eds/bin/gnu/h-i686-mingw32/bin/../lib/gcc/nios2-elf/4.1.2/../../../../nios2-elf/lib\libc.a(lib_a-ungetc.o)
 .bss           0x008634c0        0x0 c:/altera/13.0/nios2eds/bin/gnu/h-i686-mingw32/bin/../lib/gcc/nios2-elf/4.1.2/../../../../nios2-elf/lib\libc.a(lib_a-callocr.o)
 .bss           0x008634c0        0x0 c:/altera/13.0/nios2eds/bin/gnu/h-i686-mingw32/bin/../lib/gcc/nios2-elf/4.1.2/../../../../nios2-elf/lib\libc.a(lib_a-gdtoa-gethex.o)
 .bss           0x008634c0        0x0 c:/altera/13.0/nios2eds/bin/gnu/h-i686-mingw32/bin/../lib/gcc/nios2-elf/4.1.2/../../../../nios2-elf/lib\libc.a(lib_a-gdtoa-hexnan.o)
 .bss           0x008634c0        0x0 c:/altera/13.0/nios2eds/bin/gnu/h-i686-mingw32/bin/../lib/gcc/nios2-elf/4.1.2\libgcc.a(_udivdi3.o)
 .bss           0x008634c0        0x0 c:/altera/13.0/nios2eds/bin/gnu/h-i686-mingw32/bin/../lib/gcc/nios2-elf/4.1.2\libgcc.a(_umoddi3.o)
 .bss           0x008634c0        0x0 c:/altera/13.0/nios2eds/bin/gnu/h-i686-mingw32/bin/../lib/gcc/nios2-elf/4.1.2\libgcc.a(_ne_sf.o)
 .bss           0x008634c0        0x0 c:/altera/13.0/nios2eds/bin/gnu/h-i686-mingw32/bin/../lib/gcc/nios2-elf/4.1.2\libgcc.a(_gt_sf.o)
 .bss           0x008634c0        0x0 c:/altera/13.0/nios2eds/bin/gnu/h-i686-mingw32/bin/../lib/gcc/nios2-elf/4.1.2\libgcc.a(_lt_sf.o)
 .bss           0x008634c0        0x0 c:/altera/13.0/nios2eds/bin/gnu/h-i686-mingw32/bin/../lib/gcc/nios2-elf/4.1.2\libgcc.a(_div_df.o)
 .bss           0x008634c0        0x0 c:/altera/13.0/nios2eds/bin/gnu/h-i686-mingw32/bin/../lib/gcc/nios2-elf/4.1.2\libgcc.a(_eq_df.o)
 .bss           0x008634c0        0x0 c:/altera/13.0/nios2eds/bin/gnu/h-i686-mingw32/bin/../lib/gcc/nios2-elf/4.1.2\libgcc.a(_ne_df.o)
 .bss           0x008634c0        0x0 c:/altera/13.0/nios2eds/bin/gnu/h-i686-mingw32/bin/../lib/gcc/nios2-elf/4.1.2\libgcc.a(_gt_df.o)
 .bss           0x008634c0        0x0 c:/altera/13.0/nios2eds/bin/gnu/h-i686-mingw32/bin/../lib/gcc/nios2-elf/4.1.2\libgcc.a(_lt_df.o)
 .bss           0x008634c0        0x0 c:/altera/13.0/nios2eds/bin/gnu/h-i686-mingw32/bin/../lib/gcc/nios2-elf/4.1.2\libgcc.a(_le_df.o)
 .bss           0x008634c0        0x0 c:/altera/13.0/nios2eds/bin/gnu/h-i686-mingw32/bin/../lib/gcc/nios2-elf/4.1.2\libgcc.a(_si_to_df.o)
 .bss           0x008634c0        0x0 c:/altera/13.0/nios2eds/bin/gnu/h-i686-mingw32/bin/../lib/gcc/nios2-elf/4.1.2\libgcc.a(_df_to_sf.o)
 .bss           0x008634c0        0x0 c:/altera/13.0/nios2eds/bin/gnu/h-i686-mingw32/bin/../lib/gcc/nios2-elf/4.1.2\libgcc.a(_unpack_sf.o)
 .bss           0x008634c0        0x0 c:/altera/13.0/nios2eds/bin/gnu/h-i686-mingw32/bin/../lib/gcc/nios2-elf/4.1.2\libgcc.a(_fpcmp_parts_sf.o)
 .bss           0x008634c0        0x0 c:/altera/13.0/nios2eds/bin/gnu/h-i686-mingw32/bin/../lib/gcc/nios2-elf/4.1.2\libgcc.a(_make_sf.o)
 .bss           0x008634c0        0x0 c:/altera/13.0/nios2eds/bin/gnu/h-i686-mingw32/bin/../lib/gcc/nios2-elf/4.1.2\libgcc.a(_pack_sf.o)
 .bss           0x008634c0        0x0 ../WebServer_bsp/\libucosii_bsp.a(alt_dcache_flush.o)
 .bss           0x008634c0        0x0 ../WebServer_bsp/\libucosii_bsp.a(alt_flash_dev.o)
 .bss           0x008634c0        0x0 ../WebServer_bsp/\libucosii_bsp.a(alt_fstat.o)
 .bss           0x008634c0        0x0 ../WebServer_bsp/\libucosii_bsp.a(alt_irq_register.o)
 .bss           0x008634c0        0x0 ../WebServer_bsp/\libucosii_bsp.a(alt_irq_vars.o)
 .bss           0x008634c0        0x0 ../WebServer_bsp/\libucosii_bsp.a(alt_isatty.o)
 .bss           0x008634c0        0x0 ../WebServer_bsp/\libucosii_bsp.a(alt_lseek.o)
 .bss           0x008634c0        0x0 ../WebServer_bsp/\libucosii_bsp.a(alt_main.o)
 .bss           0x008634c0        0x0 ../WebServer_bsp/\libucosii_bsp.a(alt_open.o)
 .bss           0x008634c0        0x0 ../WebServer_bsp/\libucosii_bsp.a(alt_release_fd.o)
 .bss           0x008634c0        0x0 ../WebServer_bsp/\libucosii_bsp.a(alt_sbrk.o)
 .bss           0x008634c0        0x0 ../WebServer_bsp/\libucosii_bsp.a(alt_tick.o)
 .bss           0x008634c0        0x0 ../WebServer_bsp/\libucosii_bsp.a(alt_usleep.o)
 .bss           0x008634c0        0x0 ../WebServer_bsp/\libucosii_bsp.a(alt_env_lock.o)
 .bss           0x008634c0        0x0 ../WebServer_bsp/\libucosii_bsp.a(alt_malloc_lock.o)
 .bss           0x008634c0        0x0 ../WebServer_bsp/\libucosii_bsp.a(os_core.o)
 .bss           0x008634c0        0x0 ../WebServer_bsp/\libucosii_bsp.a(os_dbg.o)
 .bss           0x008634c0        0x0 ../WebServer_bsp/\libucosii_bsp.a(os_flag.o)
 .bss           0x008634c0        0x0 ../WebServer_bsp/\libucosii_bsp.a(os_mbox.o)
 .bss           0x008634c0        0x0 ../WebServer_bsp/\libucosii_bsp.a(os_mem.o)
 .bss           0x008634c0        0x0 ../WebServer_bsp/\libucosii_bsp.a(os_q.o)
 .bss           0x008634c0        0x0 ../WebServer_bsp/\libucosii_bsp.a(os_sem.o)
 .bss           0x008634c0        0x0 ../WebServer_bsp/\libucosii_bsp.a(os_task.o)
 .bss           0x008634c0        0x0 ../WebServer_bsp/\libucosii_bsp.a(os_time.o)
 .bss           0x008634c0        0x0 ../WebServer_bsp/\libucosii_bsp.a(alt_sys_init.o)
 .bss           0x008634c0        0x0 ../WebServer_bsp/\libucosii_bsp.a(altera_avalon_cfi_flash.o)
 .bss           0x008634c0        0x0 ../WebServer_bsp/\libucosii_bsp.a(altera_avalon_cfi_flash_table.o)
 .bss           0x008634c0        0x0 ../WebServer_bsp/\libucosii_bsp.a(altera_avalon_epcs_flash_controller.o)
 .bss           0x008634c0        0x0 ../WebServer_bsp/\libucosii_bsp.a(altera_avalon_jtag_uart_fd.o)
 .bss           0x008634c0        0x0 ../WebServer_bsp/\libucosii_bsp.a(altera_avalon_jtag_uart_init.o)
 .bss           0x008634c0        0x0 ../WebServer_bsp/\libucosii_bsp.a(altera_avalon_jtag_uart_ioctl.o)
 .bss           0x008634c0        0x0 ../WebServer_bsp/\libucosii_bsp.a(altera_avalon_jtag_uart_read.o)
 .bss           0x008634c0        0x0 ../WebServer_bsp/\libucosii_bsp.a(altera_avalon_jtag_uart_write.o)
 .bss           0x008634c0        0x0 ../WebServer_bsp/\libucosii_bsp.a(altera_avalon_lcd_16207.o)
 .bss           0x008634c0        0x0 ../WebServer_bsp/\libucosii_bsp.a(altera_avalon_lcd_16207_fd.o)
 .bss           0x008634c0        0x0 ../WebServer_bsp/\libucosii_bsp.a(altera_avalon_timer_sc.o)
 .bss           0x008634c0        0x0 ../WebServer_bsp/\libucosii_bsp.a(altera_avalon_uart_fd.o)
 .bss           0x008634c0        0x0 ../WebServer_bsp/\libucosii_bsp.a(altera_avalon_uart_init.o)
 .bss           0x008634c0        0x0 ../WebServer_bsp/\libucosii_bsp.a(altera_avalon_uart_read.o)
 .bss           0x008634c0        0x0 ../WebServer_bsp/\libucosii_bsp.a(altera_avalon_uart_write.o)
 .bss           0x008634c0        0x0 ../WebServer_bsp/\libucosii_bsp.a(altera_ro_zipfs.o)
 .bss           0x008634c0        0x0 ../WebServer_bsp/\libucosii_bsp.a(epcs_commands.o)
 .bss           0x008634c0        0x0 ../WebServer_bsp/\libucosii_bsp.a(alt_iniche_close.o)
 .bss           0x008634c0        0x0 ../WebServer_bsp/\libucosii_bsp.a(alt_iniche_dev.o)
 .bss           0x008634c0        0x0 ../WebServer_bsp/\libucosii_bsp.a(alt_iniche_read.o)
 .bss           0x008634c0        0x0 ../WebServer_bsp/\libucosii_bsp.a(alt_iniche_write.o)
 .bss           0x008634c0        0x0 ../WebServer_bsp/\libucosii_bsp.a(ipnet.o)
 .bss           0x008634c0       0x3c ../WebServer_bsp/\libucosii_bsp.a(ipstart.o)
 .bss           0x008634fc        0x0 ../WebServer_bsp/\libucosii_bsp.a(igmp_cmn.o)
 .bss           0x008634fc        0x0 ../WebServer_bsp/\libucosii_bsp.a(bsdsock.o)
 .bss           0x008634fc        0x0 ../WebServer_bsp/\libucosii_bsp.a(cksum.o)
 .bss           0x008634fc       0x18 ../WebServer_bsp/\libucosii_bsp.a(in_utils.o)
 .bss           0x00863514        0x0 ../WebServer_bsp/\libucosii_bsp.a(netmain.o)
 .bss           0x00863514        0x0 ../WebServer_bsp/\libucosii_bsp.a(tk_crnos.o)
 .bss           0x00863514        0x0 ../WebServer_bsp/\libucosii_bsp.a(dhcpclnt.o)
 .bss           0x00863514        0x0 ../WebServer_bsp/\libucosii_bsp.a(dhcputil.o)
 .bss           0x00863514        0x0 ../WebServer_bsp/\libucosii_bsp.a(pktalloc.o)
 .bss           0x00863514        0x0 ../WebServer_bsp/\libucosii_bsp.a(q.o)
 .bss           0x00863514        0x0 ../WebServer_bsp/\libucosii_bsp.a(udp_open.o)
 .bss           0x00863514        0x0 ../WebServer_bsp/\libucosii_bsp.a(asm_cksum.o)
 .bss           0x00863514        0x0 ../WebServer_bsp/\libucosii_bsp.a(brdutils.o)
 .bss           0x00863514        0x0 ../WebServer_bsp/\libucosii_bsp.a(osportco.o)
 .bss           0x00863514        0x0 ../WebServer_bsp/\libucosii_bsp.a(targnios.o)
 .bss           0x00863514        0x0 ../WebServer_bsp/\libucosii_bsp.a(nptcp.o)
 .bss           0x00863514        0x0 ../WebServer_bsp/\libucosii_bsp.a(rawsock.o)
 .bss           0x00863514        0x0 ../WebServer_bsp/\libucosii_bsp.a(sockcall.o)
 .bss           0x00863514        0x0 ../WebServer_bsp/\libucosii_bsp.a(socket.o)
 .bss           0x00863514        0x0 ../WebServer_bsp/\libucosii_bsp.a(socket2.o)
 .bss           0x00863514        0x0 ../WebServer_bsp/\libucosii_bsp.a(soselect.o)
 .bss           0x00863514        0x0 ../WebServer_bsp/\libucosii_bsp.a(tcp_in.o)
 .bss           0x00863514        0x0 ../WebServer_bsp/\libucosii_bsp.a(tcp_out.o)
 .bss           0x00863514        0x0 ../WebServer_bsp/\libucosii_bsp.a(tcp_subr.o)
 .bss           0x00863514        0x0 ../WebServer_bsp/\libucosii_bsp.a(tcp_timr.o)
 .bss           0x00863514        0x0 ../WebServer_bsp/\libucosii_bsp.a(tcp_usr.o)
 .bss           0x00863514        0x0 ../WebServer_bsp/\libucosii_bsp.a(tcpport.o)
 .bss           0x00863514        0x0 ../WebServer_bsp/\libucosii_bsp.a(udpsock.o)
 .bss           0x00863514        0x0 ../WebServer_bsp/\libucosii_bsp.a(alt_alarm_start.o)
 .bss           0x00863514        0x0 ../WebServer_bsp/\libucosii_bsp.a(alt_busy_sleep.o)
 .bss           0x00863514        0x0 ../WebServer_bsp/\libucosii_bsp.a(alt_close.o)
 .bss           0x00863514        0x0 ../WebServer_bsp/\libucosii_bsp.a(alt_dev.o)
 .bss           0x00863514        0x0 ../WebServer_bsp/\libucosii_bsp.a(alt_dev_llist_insert.o)
 .bss           0x00863514        0x0 ../WebServer_bsp/\libucosii_bsp.a(alt_do_ctors.o)
 .bss           0x00863514        0x0 ../WebServer_bsp/\libucosii_bsp.a(alt_do_dtors.o)
 .bss           0x00863514        0x0 ../WebServer_bsp/\libucosii_bsp.a(alt_errno.o)
 .bss           0x00863514        0x0 ../WebServer_bsp/\libucosii_bsp.a(alt_find_dev.o)
 .bss           0x00863514        0x0 ../WebServer_bsp/\libucosii_bsp.a(alt_find_file.o)
 .bss           0x00863514        0x0 ../WebServer_bsp/\libucosii_bsp.a(alt_fs_reg.o)
 .bss           0x00863514        0x0 ../WebServer_bsp/\libucosii_bsp.a(alt_get_fd.o)
 .bss           0x00863514        0x0 ../WebServer_bsp/\libucosii_bsp.a(alt_iic.o)
 .bss           0x00863514        0x0 ../WebServer_bsp/\libucosii_bsp.a(alt_iic_isr_register.o)
 .bss           0x00863514        0x0 ../WebServer_bsp/\libucosii_bsp.a(alt_io_redirect.o)
 .bss           0x00863514        0x0 ../WebServer_bsp/\libucosii_bsp.a(alt_irq_entry.o)
 .bss           0x00863514        0x0 ../WebServer_bsp/\libucosii_bsp.a(alt_irq_handler.o)
 .bss           0x00863514        0x0 ../WebServer_bsp/\libucosii_bsp.a(alt_read.o)
 .bss           0x00863514        0x0 ../WebServer_bsp/\libucosii_bsp.a(alt_remap_cached.o)
 .bss           0x00863514        0x0 ../WebServer_bsp/\libucosii_bsp.a(alt_remap_uncached.o)
 .bss           0x00863514        0x0 ../WebServer_bsp/\libucosii_bsp.a(alt_write.o)
 .bss           0x00863514        0x0 ../WebServer_bsp/\libucosii_bsp.a(altera_nios2_qsys_irq.o)
 .bss           0x00863514        0x0 ../WebServer_bsp/\libucosii_bsp.a(os_cpu_a.o)
 .bss           0x00863514        0x0 ../WebServer_bsp/\libucosii_bsp.a(os_cpu_c.o)
 .bss           0x00863514        0x0 ../WebServer_bsp/\libucosii_bsp.a(altera_avalon_cfi_flash_amd.o)
 .bss           0x00863514        0x0 ../WebServer_bsp/\libucosii_bsp.a(altera_avalon_cfi_flash_intel.o)
 .bss           0x00863514        0x0 ../WebServer_bsp/\libucosii_bsp.a(altera_avalon_spi.o)
 .bss           0x00863514        0x0 ../WebServer_bsp/\libucosii_bsp.a(allports.o)
 .bss           0x00863514        0x0 ../WebServer_bsp/\libucosii_bsp.a(timeouts.o)
 .bss           0x00863514        0x0 ../WebServer_bsp/\libucosii_bsp.a(tk_misc.o)
 .bss           0x00863514        0x0 ../WebServer_bsp/\libucosii_bsp.a(alt_iniche_fcntl.o)
 .bss           0x00863514        0x0 ../WebServer_bsp/\libucosii_bsp.a(et_arp.o)
 .bss           0x00863514        0x0 ../WebServer_bsp/\libucosii_bsp.a(iface.o)
 .bss           0x00863514        0x0 ../WebServer_bsp/\libucosii_bsp.a(ip.o)
 .bss           0x00863514        0x0 ../WebServer_bsp/\libucosii_bsp.a(ip_reasm.o)
 .bss           0x00863514        0x0 ../WebServer_bsp/\libucosii_bsp.a(ipdemux.o)
 .bss           0x00863514        0x0 ../WebServer_bsp/\libucosii_bsp.a(ipmc.o)
 .bss           0x00863514        0x0 ../WebServer_bsp/\libucosii_bsp.a(ipport.o)
 .bss           0x00863514        0x0 ../WebServer_bsp/\libucosii_bsp.a(ipraw.o)
 .bss           0x00863514        0x0 ../WebServer_bsp/\libucosii_bsp.a(iproute.o)
 .bss           0x00863514        0x0 ../WebServer_bsp/\libucosii_bsp.a(udp.o)
 .bss           0x00863514        0x0 ../WebServer_bsp/\libucosii_bsp.a(igmp.o)
 .bss           0x00863514        0x0 ../WebServer_bsp/\libucosii_bsp.a(igmp2.o)
 .bss           0x00863514        0x0 ../WebServer_bsp/\libucosii_bsp.a(ipopt.o)
 .bss           0x00863514        0x0 ../WebServer_bsp/\libucosii_bsp.a(u_mctest.o)
 .bss           0x00863514        0x0 ../WebServer_bsp/\libucosii_bsp.a(dhcsetup.o)
 .bss           0x00863514        0x0 ../WebServer_bsp/\libucosii_bsp.a(memdev.o)
 .bss           0x00863514       0x20 ../WebServer_bsp/\libucosii_bsp.a(parseip.o)
 .bss           0x00863534        0x0 ../WebServer_bsp/\libucosii_bsp.a(tcpcksum.o)
 .bss           0x00863534        0x0 ../WebServer_bsp/\libucosii_bsp.a(in_pcb.o)
 .bss           0x00863534        0x0 ../WebServer_bsp/\libucosii_bsp.a(vfsfiles.o)
 .bss           0x00863534        0x0 ../WebServer_bsp/\libucosii_bsp.a(vfsport.o)
 .bss           0x00863534        0x0 ../WebServer_bsp/\libucosii_bsp.a(alt_exception_entry.o)
 .bss           0x00863534        0x0 ../WebServer_bsp/\libucosii_bsp.a(alt_fcntl.o)
 .bss           0x00863534        0x0 ../WebServer_bsp/\libucosii_bsp.a(icmp.o)
 .bss           0x00863534        0x0 c:/altera/13.0/nios2eds/bin/gnu/h-i686-mingw32/bin/../lib/gcc/nios2-elf/4.1.2/../../../../nios2-elf/lib\libc.a(lib_a-atexit.o)
 .bss           0x00863534        0x0 c:/altera/13.0/nios2eds/bin/gnu/h-i686-mingw32/bin/../lib/gcc/nios2-elf/4.1.2/../../../../nios2-elf/lib\libc.a(lib_a-calloc.o)
 .bss           0x00863534        0x0 c:/altera/13.0/nios2eds/bin/gnu/h-i686-mingw32/bin/../lib/gcc/nios2-elf/4.1.2/../../../../nios2-elf/lib\libc.a(lib_a-exit.o)
 .bss           0x00863534        0x0 c:/altera/13.0/nios2eds/bin/gnu/h-i686-mingw32/bin/../lib/gcc/nios2-elf/4.1.2/../../../../nios2-elf/lib\libc.a(lib_a-malloc.o)
 .bss           0x00863534        0x0 c:/altera/13.0/nios2eds/bin/gnu/h-i686-mingw32/bin/../lib/gcc/nios2-elf/4.1.2/../../../../nios2-elf/lib\libc.a(lib_a-vprintf.o)
 .bss           0x00863534        0x0 c:/altera/13.0/nios2eds/bin/gnu/h-i686-mingw32/bin/../lib/gcc/nios2-elf/4.1.2/../../../../nios2-elf/lib\libc.a(lib_a-vsprintf.o)
 .bss           0x00863534        0x0 c:/altera/13.0/nios2eds/bin/gnu/h-i686-mingw32/bin/../lib/gcc/nios2-elf/4.1.2/../../../../nios2-elf/lib\libc.a(lib_a-__atexit.o)
 .bss           0x00863534        0x0 c:/altera/13.0/nios2eds/bin/gnu/h-i686-mingw32/bin/../lib/gcc/nios2-elf/4.1.2/../../../../nios2-elf/lib\libc.a(lib_a-__call_atexit.o)
 .bss           0x00863534        0x0 ../WebServer_bsp/\libucosii_bsp.a(alt_exit.o)
 *(COMMON)
 COMMON         0x00863534       0x44 obj/default/dm9000a.o
                0x00863534                g_dm9ka
 COMMON         0x00863578   0x5d0de4 obj/default/http.o
                0x00863578                upload_buf
                0x00e1c300                board_funcs
                0x00e1c32c                http_rx_buffer
                0x00e2832c                flash_inf
                0x00e2835c                http_tx_buffer
 COMMON         0x00e3435c      0x104 obj/default/srec_flash.o
                0x00e3435c                frag
 COMMON         0x00e34460     0x8000 obj/default/web_server.o
                0x00e34460                SSDTaskStk
                0x00e36460                WSInitialTaskStk
                0x00e38460                LEDTaskStk
                0x00e3a460                BCTaskStk
 COMMON         0x00e3c460      0x100 c:/altera/13.0/nios2eds/bin/gnu/h-i686-mingw32/bin/../lib/gcc/nios2-elf/4.1.2/../../../../nios2-elf/lib\libc.a(lib_a-gdtoa-gethex.o)
                0x00e3c460                __hexdig
 COMMON         0x00e3c560     0x3224 ../WebServer_bsp/\libucosii_bsp.a(os_core.o)
                0x00e3c560                OSFlagTbl
                0x00e3c8d0                OSMemTbl
                0x00e3d500                OSTaskStatStk
                0x00e3dd00                OSQTbl
                0x00e3dee0                OSTaskIdleStk
                0x00e3e6e0                OSEventTbl
                0x00e3f220                OSTCBTbl
                0x00e3f730                OSTCBPrioTbl
 COMMON         0x00e3f784       0x14 ../WebServer_bsp/\libucosii_bsp.a(ipnet.o)
                0x00e3f784                rcvdq
 COMMON         0x00e3f798      0x310 ../WebServer_bsp/\libucosii_bsp.a(ipstart.o)
                0x00e3f798                netstatic
                0x00e3fa98                nets
 COMMON         0x00e3faa8       0x64 ../WebServer_bsp/\libucosii_bsp.a(igmp_cmn.o)
                0x00e3faa8                igmpstats
 COMMON         0x00e3fb0c       0x26 ../WebServer_bsp/\libucosii_bsp.a(in_utils.o)
                0x00e3fb0c                eth_prt_buf
                0x00e3fb20                ipreturn
 *fill*         0x00e3fb32        0x2 00
 COMMON         0x00e3fb34       0xf0 ../WebServer_bsp/\libucosii_bsp.a(dhcpclnt.o)
                0x00e3fb34                dhc_states
 COMMON         0x00e3fc24      0x128 ../WebServer_bsp/\libucosii_bsp.a(pktalloc.o)
                0x00e3fc24                lilfreeq
                0x00e3fc38                memestats
                0x00e3fc48                pktlog
                0x00e3fd38                bigfreeq
 COMMON         0x00e3fd4c      0x1ec ../WebServer_bsp/\libucosii_bsp.a(osportco.o)
                0x00e3fd4c                global_tcb_ext
                0x00e3fe48                global_TCPwakeup_set
 COMMON         0x00e3ff38       0x58 ../WebServer_bsp/\libucosii_bsp.a(targnios.o)
                0x00e3ff38                resid_semaphore
                0x00e3ff78                app_semaphore
 COMMON         0x00e3ff90       0x78 ../WebServer_bsp/\libucosii_bsp.a(nptcp.o)
                0x00e3ff90                soq
                0x00e3ffa4                tcpmib
                0x00e3ffe0                mbufq
                0x00e3fff4                mfreeq
 COMMON         0x00e40008       0x28 ../WebServer_bsp/\libucosii_bsp.a(tcp_in.o)
                0x00e40008                tcp_saveti
 COMMON         0x00e40030      0x10c ../WebServer_bsp/\libucosii_bsp.a(tcp_subr.o)
                0x00e40030                tcb
                0x00e4005c                tcpstat
 COMMON         0x00e4013c      0x100 ../WebServer_bsp/\libucosii_bsp.a(alt_irq_handler.o)
                0x00e4013c                alt_irq
 COMMON         0x00e4023c       0x64 ../WebServer_bsp/\libucosii_bsp.a(timeouts.o)
                0x00e4023c                intimers
 COMMON         0x00e402a0      0x100 ../WebServer_bsp/\libucosii_bsp.a(et_arp.o)
                0x00e402a0                arp_table
 COMMON         0x00e403a0       0x14 ../WebServer_bsp/\libucosii_bsp.a(iface.o)
                0x00e403a0                netlist
 COMMON         0x00e403b4       0x50 ../WebServer_bsp/\libucosii_bsp.a(ip.o)
                0x00e403b4                ip_mib
 COMMON         0x00e40404       0x18 ../WebServer_bsp/\libucosii_bsp.a(ip_reasm.o)
                0x00e40404                ire_stats
 COMMON         0x00e4041c       0x10 ../WebServer_bsp/\libucosii_bsp.a(udp.o)
                0x00e4041c                udp_mib
 COMMON         0x00e4042c       0x68 ../WebServer_bsp/\libucosii_bsp.a(icmp.o)
                0x00e4042c                icmp_mib
 COMMON         0x00e40494      0x190 c:/altera/13.0/nios2eds/bin/gnu/h-i686-mingw32/bin/../lib/gcc/nios2-elf/4.1.2/../../../../nios2-elf/lib\libc.a(lib_a-atexit.o)
                0x00e40494                _atexit0
                0x00e40624                . = ALIGN (0x4)
                0x00e40624                __bss_end = ABSOLUTE (.)

.sdram_0        0x00e40624        0x0
                0x00e40624                PROVIDE (_alt_partition_sdram_0_start, ABSOLUTE (.))
 *(.sdram_0. sdram_0.*)
                0x00e40624                . = ALIGN (0x4)
                0x00e40624                PROVIDE (_alt_partition_sdram_0_end, ABSOLUTE (.))
                0x00e40624                _end = ABSOLUTE (.)
                0x00e40624                end = ABSOLUTE (.)
                0x00e40624                __alt_stack_base = ABSOLUTE (.)
                0x00e40624                PROVIDE (_alt_partition_sdram_0_load_addr, LOADADDR (.sdram_0))

.cfi_flash_0    0x01400020        0x0
                0x01400020                PROVIDE (_alt_partition_cfi_flash_0_start, ABSOLUTE (.))
 *(.cfi_flash_0. cfi_flash_0.*)
                0x01400020                . = ALIGN (0x4)
                0x01400020                PROVIDE (_alt_partition_cfi_flash_0_end, ABSOLUTE (.))
                0x01400020                PROVIDE (_alt_partition_cfi_flash_0_load_addr, LOADADDR (.cfi_flash_0))

.sram_0         0x01a00000        0x0
                0x01a00000                PROVIDE (_alt_partition_sram_0_start, ABSOLUTE (.))
 *(.sram_0. sram_0.*)
                0x01a00000                . = ALIGN (0x4)
                0x01a00000                PROVIDE (_alt_partition_sram_0_end, ABSOLUTE (.))
                0x01a00000                PROVIDE (_alt_partition_sram_0_load_addr, LOADADDR (.sram_0))

.epcs_controller
                0x01a81800        0x0
                0x01a81800                PROVIDE (_alt_partition_epcs_controller_start, ABSOLUTE (.))
 *(.epcs_controller. epcs_controller.*)
                0x01a81800                . = ALIGN (0x4)
                0x01a81800                PROVIDE (_alt_partition_epcs_controller_end, ABSOLUTE (.))
                0x01a81800                PROVIDE (_alt_partition_epcs_controller_load_addr, LOADADDR (.epcs_controller))

.stab
 *(.stab)

.stabstr
 *(.stabstr)

.stab.excl
 *(.stab.excl)

.stab.exclstr
 *(.stab.exclstr)

.stab.index
 *(.stab.index)

.stab.indexstr
 *(.stab.indexstr)

.comment        0x00000000       0x23
 *(.comment)
 .comment       0x00000000       0x23 obj/default/alt_error_handler.o
                                 0x24 (size before relaxing)
 .comment       0x00000000       0x24 obj/default/dm9000a.o
 .comment       0x00000000       0x24 obj/default/http.o
 .comment       0x00000000       0x24 obj/default/network_utilities.o
 .comment       0x00000000       0x24 obj/default/srec_flash.o
 .comment       0x00000000       0x24 obj/default/web_server.o
 .comment       0x00000000       0x24 c:/altera/13.0/nios2eds/bin/gnu/h-i686-mingw32/bin/../lib/gcc/nios2-elf/4.1.2\libgcc.a(_fixunsdfsi.o)
 .comment       0x00000000       0x24 c:/altera/13.0/nios2eds/bin/gnu/h-i686-mingw32/bin/../lib/gcc/nios2-elf/4.1.2\libgcc.a(_addsub_df.o)
 .comment       0x00000000       0x24 c:/altera/13.0/nios2eds/bin/gnu/h-i686-mingw32/bin/../lib/gcc/nios2-elf/4.1.2\libgcc.a(_mul_df.o)
 .comment       0x00000000       0x24 c:/altera/13.0/nios2eds/bin/gnu/h-i686-mingw32/bin/../lib/gcc/nios2-elf/4.1.2\libgcc.a(_ge_df.o)
 .comment       0x00000000       0x24 c:/altera/13.0/nios2eds/bin/gnu/h-i686-mingw32/bin/../lib/gcc/nios2-elf/4.1.2\libgcc.a(_df_to_si.o)
 .comment       0x00000000       0x24 c:/altera/13.0/nios2eds/bin/gnu/h-i686-mingw32/bin/../lib/gcc/nios2-elf/4.1.2\libgcc.a(_thenan_df.o)
 .comment       0x00000000       0x24 c:/altera/13.0/nios2eds/bin/gnu/h-i686-mingw32/bin/../lib/gcc/nios2-elf/4.1.2\libgcc.a(_usi_to_df.o)
 .comment       0x00000000       0x24 c:/altera/13.0/nios2eds/bin/gnu/h-i686-mingw32/bin/../lib/gcc/nios2-elf/4.1.2\libgcc.a(lib2-divmod.o)
 .comment       0x00000000       0x24 c:/altera/13.0/nios2eds/bin/gnu/h-i686-mingw32/bin/../lib/gcc/nios2-elf/4.1.2\libgcc.a(_muldi3.o)
 .comment       0x00000000       0x24 c:/altera/13.0/nios2eds/bin/gnu/h-i686-mingw32/bin/../lib/gcc/nios2-elf/4.1.2\libgcc.a(_clzsi2.o)
 .comment       0x00000000       0x24 c:/altera/13.0/nios2eds/bin/gnu/h-i686-mingw32/bin/../lib/gcc/nios2-elf/4.1.2\libgcc.a(_pack_df.o)
 .comment       0x00000000       0x24 c:/altera/13.0/nios2eds/bin/gnu/h-i686-mingw32/bin/../lib/gcc/nios2-elf/4.1.2\libgcc.a(_unpack_df.o)
 .comment       0x00000000       0x24 c:/altera/13.0/nios2eds/bin/gnu/h-i686-mingw32/bin/../lib/gcc/nios2-elf/4.1.2\libgcc.a(_fpcmp_parts_df.o)
 .comment       0x00000000       0x24 c:/altera/13.0/nios2eds/bin/gnu/h-i686-mingw32/bin/../lib/gcc/nios2-elf/4.1.2\libgcc.a(_clz.o)
 .comment       0x00000000       0x24 c:/altera/13.0/nios2eds/bin/gnu/h-i686-mingw32/bin/../lib/gcc/nios2-elf/4.1.2/../../../../nios2-elf/lib\libc.a(lib_a-atoi.o)
 .comment       0x00000000       0x24 c:/altera/13.0/nios2eds/bin/gnu/h-i686-mingw32/bin/../lib/gcc/nios2-elf/4.1.2/../../../../nios2-elf/lib\libc.a(lib_a-ctype_.o)
 .comment       0x00000000       0x24 c:/altera/13.0/nios2eds/bin/gnu/h-i686-mingw32/bin/../lib/gcc/nios2-elf/4.1.2/../../../../nios2-elf/lib\libc.a(lib_a-fclose.o)
 .comment       0x00000000       0x24 c:/altera/13.0/nios2eds/bin/gnu/h-i686-mingw32/bin/../lib/gcc/nios2-elf/4.1.2/../../../../nios2-elf/lib\libc.a(lib_a-fflush.o)
 .comment       0x00000000       0x24 c:/altera/13.0/nios2eds/bin/gnu/h-i686-mingw32/bin/../lib/gcc/nios2-elf/4.1.2/../../../../nios2-elf/lib\libc.a(lib_a-fgetpos.o)
 .comment       0x00000000       0x24 c:/altera/13.0/nios2eds/bin/gnu/h-i686-mingw32/bin/../lib/gcc/nios2-elf/4.1.2/../../../../nios2-elf/lib\libc.a(lib_a-findfp.o)
 .comment       0x00000000       0x24 c:/altera/13.0/nios2eds/bin/gnu/h-i686-mingw32/bin/../lib/gcc/nios2-elf/4.1.2/../../../../nios2-elf/lib\libc.a(lib_a-fopen.o)
 .comment       0x00000000       0x24 c:/altera/13.0/nios2eds/bin/gnu/h-i686-mingw32/bin/../lib/gcc/nios2-elf/4.1.2/../../../../nios2-elf/lib\libc.a(lib_a-fprintf.o)
 .comment       0x00000000       0x24 c:/altera/13.0/nios2eds/bin/gnu/h-i686-mingw32/bin/../lib/gcc/nios2-elf/4.1.2/../../../../nios2-elf/lib\libc.a(lib_a-fread.o)
 .comment       0x00000000       0x24 c:/altera/13.0/nios2eds/bin/gnu/h-i686-mingw32/bin/../lib/gcc/nios2-elf/4.1.2/../../../../nios2-elf/lib\libc.a(lib_a-freer.o)
 .comment       0x00000000       0x24 c:/altera/13.0/nios2eds/bin/gnu/h-i686-mingw32/bin/../lib/gcc/nios2-elf/4.1.2/../../../../nios2-elf/lib\libc.a(lib_a-fseek.o)
 .comment       0x00000000       0x24 c:/altera/13.0/nios2eds/bin/gnu/h-i686-mingw32/bin/../lib/gcc/nios2-elf/4.1.2/../../../../nios2-elf/lib\libc.a(lib_a-fstatr.o)
 .comment       0x00000000       0x24 c:/altera/13.0/nios2eds/bin/gnu/h-i686-mingw32/bin/../lib/gcc/nios2-elf/4.1.2/../../../../nios2-elf/lib\libc.a(lib_a-ftell.o)
 .comment       0x00000000       0x24 c:/altera/13.0/nios2eds/bin/gnu/h-i686-mingw32/bin/../lib/gcc/nios2-elf/4.1.2/../../../../nios2-elf/lib\libc.a(lib_a-fwalk.o)
 .comment       0x00000000       0x24 c:/altera/13.0/nios2eds/bin/gnu/h-i686-mingw32/bin/../lib/gcc/nios2-elf/4.1.2/../../../../nios2-elf/lib\libc.a(lib_a-fwrite.o)
 .comment       0x00000000       0x24 c:/altera/13.0/nios2eds/bin/gnu/h-i686-mingw32/bin/../lib/gcc/nios2-elf/4.1.2/../../../../nios2-elf/lib\libc.a(lib_a-getc.o)
 .comment       0x00000000       0x24 c:/altera/13.0/nios2eds/bin/gnu/h-i686-mingw32/bin/../lib/gcc/nios2-elf/4.1.2/../../../../nios2-elf/lib\libc.a(lib_a-impure.o)
 .comment       0x00000000       0x24 c:/altera/13.0/nios2eds/bin/gnu/h-i686-mingw32/bin/../lib/gcc/nios2-elf/4.1.2/../../../../nios2-elf/lib\libc.a(lib_a-int_errno.o)
 .comment       0x00000000       0x24 c:/altera/13.0/nios2eds/bin/gnu/h-i686-mingw32/bin/../lib/gcc/nios2-elf/4.1.2/../../../../nios2-elf/lib\libc.a(lib_a-makebuf.o)
 .comment       0x00000000       0x24 c:/altera/13.0/nios2eds/bin/gnu/h-i686-mingw32/bin/../lib/gcc/nios2-elf/4.1.2/../../../../nios2-elf/lib\libc.a(lib_a-mallocr.o)
 .comment       0x00000000       0x24 c:/altera/13.0/nios2eds/bin/gnu/h-i686-mingw32/bin/../lib/gcc/nios2-elf/4.1.2/../../../../nios2-elf/lib\libc.a(lib_a-memcpy.o)
 .comment       0x00000000       0x24 c:/altera/13.0/nios2eds/bin/gnu/h-i686-mingw32/bin/../lib/gcc/nios2-elf/4.1.2/../../../../nios2-elf/lib\libc.a(lib_a-memmove.o)
 .comment       0x00000000       0x24 c:/altera/13.0/nios2eds/bin/gnu/h-i686-mingw32/bin/../lib/gcc/nios2-elf/4.1.2/../../../../nios2-elf/lib\libc.a(lib_a-memset.o)
 .comment       0x00000000       0x24 c:/altera/13.0/nios2eds/bin/gnu/h-i686-mingw32/bin/../lib/gcc/nios2-elf/4.1.2/../../../../nios2-elf/lib\libc.a(lib_a-openr.o)
 .comment       0x00000000       0x24 c:/altera/13.0/nios2eds/bin/gnu/h-i686-mingw32/bin/../lib/gcc/nios2-elf/4.1.2/../../../../nios2-elf/lib\libc.a(lib_a-perror.o)
 .comment       0x00000000       0x24 c:/altera/13.0/nios2eds/bin/gnu/h-i686-mingw32/bin/../lib/gcc/nios2-elf/4.1.2/../../../../nios2-elf/lib\libc.a(lib_a-printf.o)
 .comment       0x00000000       0x24 c:/altera/13.0/nios2eds/bin/gnu/h-i686-mingw32/bin/../lib/gcc/nios2-elf/4.1.2/../../../../nios2-elf/lib\libc.a(lib_a-putc.o)
 .comment       0x00000000       0x24 c:/altera/13.0/nios2eds/bin/gnu/h-i686-mingw32/bin/../lib/gcc/nios2-elf/4.1.2/../../../../nios2-elf/lib\libc.a(lib_a-putchar.o)
 .comment       0x00000000       0x24 c:/altera/13.0/nios2eds/bin/gnu/h-i686-mingw32/bin/../lib/gcc/nios2-elf/4.1.2/../../../../nios2-elf/lib\libc.a(lib_a-puts.o)
 .comment       0x00000000       0x24 c:/altera/13.0/nios2eds/bin/gnu/h-i686-mingw32/bin/../lib/gcc/nios2-elf/4.1.2/../../../../nios2-elf/lib\libc.a(lib_a-refill.o)
 .comment       0x00000000       0x24 c:/altera/13.0/nios2eds/bin/gnu/h-i686-mingw32/bin/../lib/gcc/nios2-elf/4.1.2/../../../../nios2-elf/lib\libc.a(lib_a-rget.o)
 .comment       0x00000000       0x24 c:/altera/13.0/nios2eds/bin/gnu/h-i686-mingw32/bin/../lib/gcc/nios2-elf/4.1.2/../../../../nios2-elf/lib\libc.a(lib_a-sbrkr.o)
 .comment       0x00000000       0x24 c:/altera/13.0/nios2eds/bin/gnu/h-i686-mingw32/bin/../lib/gcc/nios2-elf/4.1.2/../../../../nios2-elf/lib\libc.a(lib_a-sprintf.o)
 .comment       0x00000000       0x24 c:/altera/13.0/nios2eds/bin/gnu/h-i686-mingw32/bin/../lib/gcc/nios2-elf/4.1.2/../../../../nios2-elf/lib\libc.a(lib_a-sscanf.o)
 .comment       0x00000000       0x24 c:/altera/13.0/nios2eds/bin/gnu/h-i686-mingw32/bin/../lib/gcc/nios2-elf/4.1.2/../../../../nios2-elf/lib\libc.a(lib_a-stdio.o)
 .comment       0x00000000       0x24 c:/altera/13.0/nios2eds/bin/gnu/h-i686-mingw32/bin/../lib/gcc/nios2-elf/4.1.2/../../../../nios2-elf/lib\libc.a(lib_a-strcasecmp.o)
 .comment       0x00000000       0x24 c:/altera/13.0/nios2eds/bin/gnu/h-i686-mingw32/bin/../lib/gcc/nios2-elf/4.1.2/../../../../nios2-elf/lib\libc.a(lib_a-strcat.o)
 .comment       0x00000000       0x24 c:/altera/13.0/nios2eds/bin/gnu/h-i686-mingw32/bin/../lib/gcc/nios2-elf/4.1.2/../../../../nios2-elf/lib\libc.a(lib_a-strchr.o)
 .comment       0x00000000       0x24 c:/altera/13.0/nios2eds/bin/gnu/h-i686-mingw32/bin/../lib/gcc/nios2-elf/4.1.2/../../../../nios2-elf/lib\libc.a(lib_a-strcmp.o)
 .comment       0x00000000       0x24 c:/altera/13.0/nios2eds/bin/gnu/h-i686-mingw32/bin/../lib/gcc/nios2-elf/4.1.2/../../../../nios2-elf/lib\libc.a(lib_a-strcpy.o)
 .comment       0x00000000       0x24 c:/altera/13.0/nios2eds/bin/gnu/h-i686-mingw32/bin/../lib/gcc/nios2-elf/4.1.2/../../../../nios2-elf/lib\libc.a(lib_a-strerror.o)
 .comment       0x00000000       0x24 c:/altera/13.0/nios2eds/bin/gnu/h-i686-mingw32/bin/../lib/gcc/nios2-elf/4.1.2/../../../../nios2-elf/lib\libc.a(lib_a-strlen.o)
 .comment       0x00000000       0x24 c:/altera/13.0/nios2eds/bin/gnu/h-i686-mingw32/bin/../lib/gcc/nios2-elf/4.1.2/../../../../nios2-elf/lib\libc.a(lib_a-strncmp.o)
 .comment       0x00000000       0x24 c:/altera/13.0/nios2eds/bin/gnu/h-i686-mingw32/bin/../lib/gcc/nios2-elf/4.1.2/../../../../nios2-elf/lib\libc.a(lib_a-strncpy.o)
 .comment       0x00000000       0x24 c:/altera/13.0/nios2eds/bin/gnu/h-i686-mingw32/bin/../lib/gcc/nios2-elf/4.1.2/../../../../nios2-elf/lib\libc.a(lib_a-strstr.o)
 .comment       0x00000000       0x24 c:/altera/13.0/nios2eds/bin/gnu/h-i686-mingw32/bin/../lib/gcc/nios2-elf/4.1.2/../../../../nios2-elf/lib\libc.a(lib_a-strtok.o)
 .comment       0x00000000       0x24 c:/altera/13.0/nios2eds/bin/gnu/h-i686-mingw32/bin/../lib/gcc/nios2-elf/4.1.2/../../../../nios2-elf/lib\libc.a(lib_a-strtok_r.o)
 .comment       0x00000000       0x24 c:/altera/13.0/nios2eds/bin/gnu/h-i686-mingw32/bin/../lib/gcc/nios2-elf/4.1.2/../../../../nios2-elf/lib\libc.a(lib_a-strtol.o)
 .comment       0x00000000       0x24 c:/altera/13.0/nios2eds/bin/gnu/h-i686-mingw32/bin/../lib/gcc/nios2-elf/4.1.2/../../../../nios2-elf/lib\libc.a(lib_a-u_strerr.o)
 .comment       0x00000000       0x24 c:/altera/13.0/nios2eds/bin/gnu/h-i686-mingw32/bin/../lib/gcc/nios2-elf/4.1.2/../../../../nios2-elf/lib\libc.a(lib_a-vfprintf.o)
 .comment       0x00000000       0x24 c:/altera/13.0/nios2eds/bin/gnu/h-i686-mingw32/bin/../lib/gcc/nios2-elf/4.1.2/../../../../nios2-elf/lib\libc.a(lib_a-vfscanf.o)
 .comment       0x00000000       0x24 c:/altera/13.0/nios2eds/bin/gnu/h-i686-mingw32/bin/../lib/gcc/nios2-elf/4.1.2/../../../../nios2-elf/lib\libc.a(lib_a-wbuf.o)
 .comment       0x00000000       0x24 c:/altera/13.0/nios2eds/bin/gnu/h-i686-mingw32/bin/../lib/gcc/nios2-elf/4.1.2/../../../../nios2-elf/lib\libc.a(lib_a-writer.o)
 .comment       0x00000000       0x24 c:/altera/13.0/nios2eds/bin/gnu/h-i686-mingw32/bin/../lib/gcc/nios2-elf/4.1.2/../../../../nios2-elf/lib\libc.a(lib_a-wsetup.o)
 .comment       0x00000000       0x24 c:/altera/13.0/nios2eds/bin/gnu/h-i686-mingw32/bin/../lib/gcc/nios2-elf/4.1.2/../../../../nios2-elf/lib\libc.a(lib_a-closer.o)
 .comment       0x00000000       0x24 c:/altera/13.0/nios2eds/bin/gnu/h-i686-mingw32/bin/../lib/gcc/nios2-elf/4.1.2/../../../../nios2-elf/lib\libc.a(lib_a-dtoa.o)
 .comment       0x00000000       0x24 c:/altera/13.0/nios2eds/bin/gnu/h-i686-mingw32/bin/../lib/gcc/nios2-elf/4.1.2/../../../../nios2-elf/lib\libc.a(lib_a-flags.o)
 .comment       0x00000000       0x24 c:/altera/13.0/nios2eds/bin/gnu/h-i686-mingw32/bin/../lib/gcc/nios2-elf/4.1.2/../../../../nios2-elf/lib\libc.a(lib_a-fputc.o)
 .comment       0x00000000       0x24 c:/altera/13.0/nios2eds/bin/gnu/h-i686-mingw32/bin/../lib/gcc/nios2-elf/4.1.2/../../../../nios2-elf/lib\libc.a(lib_a-fputs.o)
 .comment       0x00000000       0x24 c:/altera/13.0/nios2eds/bin/gnu/h-i686-mingw32/bin/../lib/gcc/nios2-elf/4.1.2/../../../../nios2-elf/lib\libc.a(lib_a-fvwrite.o)
 .comment       0x00000000       0x24 c:/altera/13.0/nios2eds/bin/gnu/h-i686-mingw32/bin/../lib/gcc/nios2-elf/4.1.2/../../../../nios2-elf/lib\libc.a(lib_a-isattyr.o)
 .comment       0x00000000       0x24 c:/altera/13.0/nios2eds/bin/gnu/h-i686-mingw32/bin/../lib/gcc/nios2-elf/4.1.2/../../../../nios2-elf/lib\libc.a(lib_a-iswspace.o)
 .comment       0x00000000       0x24 c:/altera/13.0/nios2eds/bin/gnu/h-i686-mingw32/bin/../lib/gcc/nios2-elf/4.1.2/../../../../nios2-elf/lib\libc.a(lib_a-locale.o)
 .comment       0x00000000       0x24 c:/altera/13.0/nios2eds/bin/gnu/h-i686-mingw32/bin/../lib/gcc/nios2-elf/4.1.2/../../../../nios2-elf/lib\libc.a(lib_a-lseekr.o)
 .comment       0x00000000       0x24 c:/altera/13.0/nios2eds/bin/gnu/h-i686-mingw32/bin/../lib/gcc/nios2-elf/4.1.2/../../../../nios2-elf/lib\libc.a(lib_a-mbrtowc.o)
 .comment       0x00000000       0x24 c:/altera/13.0/nios2eds/bin/gnu/h-i686-mingw32/bin/../lib/gcc/nios2-elf/4.1.2/../../../../nios2-elf/lib\libc.a(lib_a-mbtowc_r.o)
 .comment       0x00000000       0x24 c:/altera/13.0/nios2eds/bin/gnu/h-i686-mingw32/bin/../lib/gcc/nios2-elf/4.1.2/../../../../nios2-elf/lib\libc.a(lib_a-memchr.o)
 .comment       0x00000000       0x24 c:/altera/13.0/nios2eds/bin/gnu/h-i686-mingw32/bin/../lib/gcc/nios2-elf/4.1.2/../../../../nios2-elf/lib\libc.a(lib_a-memcmp.o)
 .comment       0x00000000       0x24 c:/altera/13.0/nios2eds/bin/gnu/h-i686-mingw32/bin/../lib/gcc/nios2-elf/4.1.2/../../../../nios2-elf/lib\libc.a(lib_a-mprec.o)
 .comment       0x00000000       0x24 c:/altera/13.0/nios2eds/bin/gnu/h-i686-mingw32/bin/../lib/gcc/nios2-elf/4.1.2/../../../../nios2-elf/lib\libc.a(lib_a-readr.o)
 .comment       0x00000000       0x24 c:/altera/13.0/nios2eds/bin/gnu/h-i686-mingw32/bin/../lib/gcc/nios2-elf/4.1.2/../../../../nios2-elf/lib\libc.a(lib_a-reallocr.o)
 .comment       0x00000000       0x24 c:/altera/13.0/nios2eds/bin/gnu/h-i686-mingw32/bin/../lib/gcc/nios2-elf/4.1.2/../../../../nios2-elf/lib\libc.a(lib_a-s_isinfd.o)
 .comment       0x00000000       0x24 c:/altera/13.0/nios2eds/bin/gnu/h-i686-mingw32/bin/../lib/gcc/nios2-elf/4.1.2/../../../../nios2-elf/lib\libc.a(lib_a-s_isnand.o)
 .comment       0x00000000       0x24 c:/altera/13.0/nios2eds/bin/gnu/h-i686-mingw32/bin/../lib/gcc/nios2-elf/4.1.2/../../../../nios2-elf/lib\libc.a(lib_a-sccl.o)
 .comment       0x00000000       0x24 c:/altera/13.0/nios2eds/bin/gnu/h-i686-mingw32/bin/../lib/gcc/nios2-elf/4.1.2/../../../../nios2-elf/lib\libc.a(lib_a-sf_nan.o)
 .comment       0x00000000       0x24 c:/altera/13.0/nios2eds/bin/gnu/h-i686-mingw32/bin/../lib/gcc/nios2-elf/4.1.2/../../../../nios2-elf/lib\libc.a(lib_a-strtod.o)
 .comment       0x00000000       0x24 c:/altera/13.0/nios2eds/bin/gnu/h-i686-mingw32/bin/../lib/gcc/nios2-elf/4.1.2/../../../../nios2-elf/lib\libc.a(lib_a-strtoll_r.o)
 .comment       0x00000000       0x24 c:/altera/13.0/nios2eds/bin/gnu/h-i686-mingw32/bin/../lib/gcc/nios2-elf/4.1.2/../../../../nios2-elf/lib\libc.a(lib_a-strtoul.o)
 .comment       0x00000000       0x24 c:/altera/13.0/nios2eds/bin/gnu/h-i686-mingw32/bin/../lib/gcc/nios2-elf/4.1.2/../../../../nios2-elf/lib\libc.a(lib_a-strtoull_r.o)
 .comment       0x00000000       0x24 c:/altera/13.0/nios2eds/bin/gnu/h-i686-mingw32/bin/../lib/gcc/nios2-elf/4.1.2/../../../../nios2-elf/lib\libc.a(lib_a-ungetc.o)
 .comment       0x00000000       0x24 c:/altera/13.0/nios2eds/bin/gnu/h-i686-mingw32/bin/../lib/gcc/nios2-elf/4.1.2/../../../../nios2-elf/lib\libc.a(lib_a-callocr.o)
 .comment       0x00000000       0x24 c:/altera/13.0/nios2eds/bin/gnu/h-i686-mingw32/bin/../lib/gcc/nios2-elf/4.1.2/../../../../nios2-elf/lib\libc.a(lib_a-gdtoa-gethex.o)
 .comment       0x00000000       0x24 c:/altera/13.0/nios2eds/bin/gnu/h-i686-mingw32/bin/../lib/gcc/nios2-elf/4.1.2/../../../../nios2-elf/lib\libc.a(lib_a-gdtoa-hexnan.o)
 .comment       0x00000000       0x24 c:/altera/13.0/nios2eds/bin/gnu/h-i686-mingw32/bin/../lib/gcc/nios2-elf/4.1.2\libgcc.a(_udivdi3.o)
 .comment       0x00000000       0x24 c:/altera/13.0/nios2eds/bin/gnu/h-i686-mingw32/bin/../lib/gcc/nios2-elf/4.1.2\libgcc.a(_umoddi3.o)
 .comment       0x00000000       0x24 c:/altera/13.0/nios2eds/bin/gnu/h-i686-mingw32/bin/../lib/gcc/nios2-elf/4.1.2\libgcc.a(_ne_sf.o)
 .comment       0x00000000       0x24 c:/altera/13.0/nios2eds/bin/gnu/h-i686-mingw32/bin/../lib/gcc/nios2-elf/4.1.2\libgcc.a(_gt_sf.o)
 .comment       0x00000000       0x24 c:/altera/13.0/nios2eds/bin/gnu/h-i686-mingw32/bin/../lib/gcc/nios2-elf/4.1.2\libgcc.a(_lt_sf.o)
 .comment       0x00000000       0x24 c:/altera/13.0/nios2eds/bin/gnu/h-i686-mingw32/bin/../lib/gcc/nios2-elf/4.1.2\libgcc.a(_div_df.o)
 .comment       0x00000000       0x24 c:/altera/13.0/nios2eds/bin/gnu/h-i686-mingw32/bin/../lib/gcc/nios2-elf/4.1.2\libgcc.a(_eq_df.o)
 .comment       0x00000000       0x24 c:/altera/13.0/nios2eds/bin/gnu/h-i686-mingw32/bin/../lib/gcc/nios2-elf/4.1.2\libgcc.a(_ne_df.o)
 .comment       0x00000000       0x24 c:/altera/13.0/nios2eds/bin/gnu/h-i686-mingw32/bin/../lib/gcc/nios2-elf/4.1.2\libgcc.a(_gt_df.o)
 .comment       0x00000000       0x24 c:/altera/13.0/nios2eds/bin/gnu/h-i686-mingw32/bin/../lib/gcc/nios2-elf/4.1.2\libgcc.a(_lt_df.o)
 .comment       0x00000000       0x24 c:/altera/13.0/nios2eds/bin/gnu/h-i686-mingw32/bin/../lib/gcc/nios2-elf/4.1.2\libgcc.a(_le_df.o)
 .comment       0x00000000       0x24 c:/altera/13.0/nios2eds/bin/gnu/h-i686-mingw32/bin/../lib/gcc/nios2-elf/4.1.2\libgcc.a(_si_to_df.o)
 .comment       0x00000000       0x24 c:/altera/13.0/nios2eds/bin/gnu/h-i686-mingw32/bin/../lib/gcc/nios2-elf/4.1.2\libgcc.a(_df_to_sf.o)
 .comment       0x00000000       0x24 c:/altera/13.0/nios2eds/bin/gnu/h-i686-mingw32/bin/../lib/gcc/nios2-elf/4.1.2\libgcc.a(_unpack_sf.o)
 .comment       0x00000000       0x24 c:/altera/13.0/nios2eds/bin/gnu/h-i686-mingw32/bin/../lib/gcc/nios2-elf/4.1.2\libgcc.a(_fpcmp_parts_sf.o)
 .comment       0x00000000       0x24 c:/altera/13.0/nios2eds/bin/gnu/h-i686-mingw32/bin/../lib/gcc/nios2-elf/4.1.2\libgcc.a(_make_sf.o)
 .comment       0x00000000       0x24 c:/altera/13.0/nios2eds/bin/gnu/h-i686-mingw32/bin/../lib/gcc/nios2-elf/4.1.2\libgcc.a(_pack_sf.o)
 .comment       0x00000000       0x24 ../WebServer_bsp/\libucosii_bsp.a(alt_dcache_flush.o)
 .comment       0x00000000       0x24 ../WebServer_bsp/\libucosii_bsp.a(alt_flash_dev.o)
 .comment       0x00000000       0x24 ../WebServer_bsp/\libucosii_bsp.a(alt_fstat.o)
 .comment       0x00000000       0x24 ../WebServer_bsp/\libucosii_bsp.a(alt_irq_register.o)
 .comment       0x00000000       0x24 ../WebServer_bsp/\libucosii_bsp.a(alt_irq_vars.o)
 .comment       0x00000000       0x24 ../WebServer_bsp/\libucosii_bsp.a(alt_isatty.o)
 .comment       0x00000000       0x24 ../WebServer_bsp/\libucosii_bsp.a(alt_lseek.o)
 .comment       0x00000000       0x24 ../WebServer_bsp/\libucosii_bsp.a(alt_main.o)
 .comment       0x00000000       0x24 ../WebServer_bsp/\libucosii_bsp.a(alt_open.o)
 .comment       0x00000000       0x24 ../WebServer_bsp/\libucosii_bsp.a(alt_release_fd.o)
 .comment       0x00000000       0x24 ../WebServer_bsp/\libucosii_bsp.a(alt_sbrk.o)
 .comment       0x00000000       0x24 ../WebServer_bsp/\libucosii_bsp.a(alt_tick.o)
 .comment       0x00000000       0x24 ../WebServer_bsp/\libucosii_bsp.a(alt_usleep.o)
 .comment       0x00000000       0x24 ../WebServer_bsp/\libucosii_bsp.a(alt_env_lock.o)
 .comment       0x00000000       0x24 ../WebServer_bsp/\libucosii_bsp.a(alt_malloc_lock.o)
 .comment       0x00000000       0x24 ../WebServer_bsp/\libucosii_bsp.a(os_core.o)
 .comment       0x00000000       0x24 ../WebServer_bsp/\libucosii_bsp.a(os_dbg.o)
 .comment       0x00000000       0x24 ../WebServer_bsp/\libucosii_bsp.a(os_flag.o)
 .comment       0x00000000       0x24 ../WebServer_bsp/\libucosii_bsp.a(os_mbox.o)
 .comment       0x00000000       0x24 ../WebServer_bsp/\libucosii_bsp.a(os_mem.o)
 .comment       0x00000000       0x24 ../WebServer_bsp/\libucosii_bsp.a(os_q.o)
 .comment       0x00000000       0x24 ../WebServer_bsp/\libucosii_bsp.a(os_sem.o)
 .comment       0x00000000       0x24 ../WebServer_bsp/\libucosii_bsp.a(os_task.o)
 .comment       0x00000000       0x24 ../WebServer_bsp/\libucosii_bsp.a(os_time.o)
 .comment       0x00000000       0x24 ../WebServer_bsp/\libucosii_bsp.a(alt_sys_init.o)
 .comment       0x00000000       0x24 ../WebServer_bsp/\libucosii_bsp.a(altera_avalon_cfi_flash.o)
 .comment       0x00000000       0x24 ../WebServer_bsp/\libucosii_bsp.a(altera_avalon_cfi_flash_table.o)
 .comment       0x00000000       0x24 ../WebServer_bsp/\libucosii_bsp.a(altera_avalon_epcs_flash_controller.o)
 .comment       0x00000000       0x24 ../WebServer_bsp/\libucosii_bsp.a(altera_avalon_jtag_uart_fd.o)
 .comment       0x00000000       0x24 ../WebServer_bsp/\libucosii_bsp.a(altera_avalon_jtag_uart_init.o)
 .comment       0x00000000       0x24 ../WebServer_bsp/\libucosii_bsp.a(altera_avalon_jtag_uart_ioctl.o)
 .comment       0x00000000       0x24 ../WebServer_bsp/\libucosii_bsp.a(altera_avalon_jtag_uart_read.o)
 .comment       0x00000000       0x24 ../WebServer_bsp/\libucosii_bsp.a(altera_avalon_jtag_uart_write.o)
 .comment       0x00000000       0x24 ../WebServer_bsp/\libucosii_bsp.a(altera_avalon_lcd_16207.o)
 .comment       0x00000000       0x24 ../WebServer_bsp/\libucosii_bsp.a(altera_avalon_lcd_16207_fd.o)
 .comment       0x00000000       0x24 ../WebServer_bsp/\libucosii_bsp.a(altera_avalon_timer_sc.o)
 .comment       0x00000000       0x24 ../WebServer_bsp/\libucosii_bsp.a(altera_avalon_uart_fd.o)
 .comment       0x00000000       0x24 ../WebServer_bsp/\libucosii_bsp.a(altera_avalon_uart_init.o)
 .comment       0x00000000       0x24 ../WebServer_bsp/\libucosii_bsp.a(altera_avalon_uart_read.o)
 .comment       0x00000000       0x24 ../WebServer_bsp/\libucosii_bsp.a(altera_avalon_uart_write.o)
 .comment       0x00000000       0x24 ../WebServer_bsp/\libucosii_bsp.a(altera_ro_zipfs.o)
 .comment       0x00000000       0x24 ../WebServer_bsp/\libucosii_bsp.a(epcs_commands.o)
 .comment       0x00000000       0x24 ../WebServer_bsp/\libucosii_bsp.a(alt_iniche_close.o)
 .comment       0x00000000       0x24 ../WebServer_bsp/\libucosii_bsp.a(alt_iniche_dev.o)
 .comment       0x00000000       0x24 ../WebServer_bsp/\libucosii_bsp.a(alt_iniche_read.o)
 .comment       0x00000000       0x24 ../WebServer_bsp/\libucosii_bsp.a(alt_iniche_write.o)
 .comment       0x00000000       0x24 ../WebServer_bsp/\libucosii_bsp.a(ipnet.o)
 .comment       0x00000000       0x24 ../WebServer_bsp/\libucosii_bsp.a(ipstart.o)
 .comment       0x00000000       0x24 ../WebServer_bsp/\libucosii_bsp.a(igmp_cmn.o)
 .comment       0x00000000       0x24 ../WebServer_bsp/\libucosii_bsp.a(bsdsock.o)
 .comment       0x00000000       0x24 ../WebServer_bsp/\libucosii_bsp.a(cksum.o)
 .comment       0x00000000       0x24 ../WebServer_bsp/\libucosii_bsp.a(in_utils.o)
 .comment       0x00000000       0x24 ../WebServer_bsp/\libucosii_bsp.a(netmain.o)
 .comment       0x00000000       0x24 ../WebServer_bsp/\libucosii_bsp.a(tk_crnos.o)
 .comment       0x00000000       0x24 ../WebServer_bsp/\libucosii_bsp.a(dhcpclnt.o)
 .comment       0x00000000       0x24 ../WebServer_bsp/\libucosii_bsp.a(dhcputil.o)
 .comment       0x00000000       0x24 ../WebServer_bsp/\libucosii_bsp.a(pktalloc.o)
 .comment       0x00000000       0x24 ../WebServer_bsp/\libucosii_bsp.a(q.o)
 .comment       0x00000000       0x24 ../WebServer_bsp/\libucosii_bsp.a(udp_open.o)
 .comment       0x00000000       0x24 ../WebServer_bsp/\libucosii_bsp.a(brdutils.o)
 .comment       0x00000000       0x24 ../WebServer_bsp/\libucosii_bsp.a(osportco.o)
 .comment       0x00000000       0x24 ../WebServer_bsp/\libucosii_bsp.a(targnios.o)
 .comment       0x00000000       0x24 ../WebServer_bsp/\libucosii_bsp.a(nptcp.o)
 .comment       0x00000000       0x24 ../WebServer_bsp/\libucosii_bsp.a(rawsock.o)
 .comment       0x00000000       0x24 ../WebServer_bsp/\libucosii_bsp.a(sockcall.o)
 .comment       0x00000000       0x24 ../WebServer_bsp/\libucosii_bsp.a(socket.o)
 .comment       0x00000000       0x24 ../WebServer_bsp/\libucosii_bsp.a(socket2.o)
 .comment       0x00000000       0x24 ../WebServer_bsp/\libucosii_bsp.a(soselect.o)
 .comment       0x00000000       0x24 ../WebServer_bsp/\libucosii_bsp.a(tcp_in.o)
 .comment       0x00000000       0x24 ../WebServer_bsp/\libucosii_bsp.a(tcp_out.o)
 .comment       0x00000000       0x24 ../WebServer_bsp/\libucosii_bsp.a(tcp_subr.o)
 .comment       0x00000000       0x24 ../WebServer_bsp/\libucosii_bsp.a(tcp_timr.o)
 .comment       0x00000000       0x24 ../WebServer_bsp/\libucosii_bsp.a(tcp_usr.o)
 .comment       0x00000000       0x24 ../WebServer_bsp/\libucosii_bsp.a(tcpport.o)
 .comment       0x00000000       0x24 ../WebServer_bsp/\libucosii_bsp.a(udpsock.o)
 .comment       0x00000000       0x24 ../WebServer_bsp/\libucosii_bsp.a(alt_alarm_start.o)
 .comment       0x00000000       0x24 ../WebServer_bsp/\libucosii_bsp.a(alt_busy_sleep.o)
 .comment       0x00000000       0x24 ../WebServer_bsp/\libucosii_bsp.a(alt_close.o)
 .comment       0x00000000       0x24 ../WebServer_bsp/\libucosii_bsp.a(alt_dev.o)
 .comment       0x00000000       0x24 ../WebServer_bsp/\libucosii_bsp.a(alt_dev_llist_insert.o)
 .comment       0x00000000       0x24 ../WebServer_bsp/\libucosii_bsp.a(alt_do_ctors.o)
 .comment       0x00000000       0x24 ../WebServer_bsp/\libucosii_bsp.a(alt_do_dtors.o)
 .comment       0x00000000       0x24 ../WebServer_bsp/\libucosii_bsp.a(alt_errno.o)
 .comment       0x00000000       0x24 ../WebServer_bsp/\libucosii_bsp.a(alt_find_dev.o)
 .comment       0x00000000       0x24 ../WebServer_bsp/\libucosii_bsp.a(alt_find_file.o)
 .comment       0x00000000       0x24 ../WebServer_bsp/\libucosii_bsp.a(alt_fs_reg.o)
 .comment       0x00000000       0x24 ../WebServer_bsp/\libucosii_bsp.a(alt_get_fd.o)
 .comment       0x00000000       0x24 ../WebServer_bsp/\libucosii_bsp.a(alt_iic.o)
 .comment       0x00000000       0x24 ../WebServer_bsp/\libucosii_bsp.a(alt_iic_isr_register.o)
 .comment       0x00000000       0x24 ../WebServer_bsp/\libucosii_bsp.a(alt_io_redirect.o)
 .comment       0x00000000       0x24 ../WebServer_bsp/\libucosii_bsp.a(alt_irq_handler.o)
 .comment       0x00000000       0x24 ../WebServer_bsp/\libucosii_bsp.a(alt_read.o)
 .comment       0x00000000       0x24 ../WebServer_bsp/\libucosii_bsp.a(alt_remap_cached.o)
 .comment       0x00000000       0x24 ../WebServer_bsp/\libucosii_bsp.a(alt_remap_uncached.o)
 .comment       0x00000000       0x24 ../WebServer_bsp/\libucosii_bsp.a(alt_write.o)
 .comment       0x00000000       0x24 ../WebServer_bsp/\libucosii_bsp.a(altera_nios2_qsys_irq.o)
 .comment       0x00000000       0x24 ../WebServer_bsp/\libucosii_bsp.a(os_cpu_c.o)
 .comment       0x00000000       0x24 ../WebServer_bsp/\libucosii_bsp.a(altera_avalon_cfi_flash_amd.o)
 .comment       0x00000000       0x24 ../WebServer_bsp/\libucosii_bsp.a(altera_avalon_cfi_flash_intel.o)
 .comment       0x00000000       0x24 ../WebServer_bsp/\libucosii_bsp.a(altera_avalon_spi.o)
 .comment       0x00000000       0x24 ../WebServer_bsp/\libucosii_bsp.a(allports.o)
 .comment       0x00000000       0x24 ../WebServer_bsp/\libucosii_bsp.a(timeouts.o)
 .comment       0x00000000       0x24 ../WebServer_bsp/\libucosii_bsp.a(tk_misc.o)
 .comment       0x00000000       0x24 ../WebServer_bsp/\libucosii_bsp.a(alt_iniche_fcntl.o)
 .comment       0x00000000       0x24 ../WebServer_bsp/\libucosii_bsp.a(et_arp.o)
 .comment       0x00000000       0x24 ../WebServer_bsp/\libucosii_bsp.a(iface.o)
 .comment       0x00000000       0x24 ../WebServer_bsp/\libucosii_bsp.a(ip.o)
 .comment       0x00000000       0x24 ../WebServer_bsp/\libucosii_bsp.a(ip_reasm.o)
 .comment       0x00000000       0x24 ../WebServer_bsp/\libucosii_bsp.a(ipdemux.o)
 .comment       0x00000000       0x24 ../WebServer_bsp/\libucosii_bsp.a(ipmc.o)
 .comment       0x00000000       0x24 ../WebServer_bsp/\libucosii_bsp.a(ipport.o)
 .comment       0x00000000       0x24 ../WebServer_bsp/\libucosii_bsp.a(ipraw.o)
 .comment       0x00000000       0x24 ../WebServer_bsp/\libucosii_bsp.a(iproute.o)
 .comment       0x00000000       0x24 ../WebServer_bsp/\libucosii_bsp.a(udp.o)
 .comment       0x00000000       0x24 ../WebServer_bsp/\libucosii_bsp.a(igmp.o)
 .comment       0x00000000       0x24 ../WebServer_bsp/\libucosii_bsp.a(igmp2.o)
 .comment       0x00000000       0x24 ../WebServer_bsp/\libucosii_bsp.a(ipopt.o)
 .comment       0x00000000       0x24 ../WebServer_bsp/\libucosii_bsp.a(u_mctest.o)
 .comment       0x00000000       0x24 ../WebServer_bsp/\libucosii_bsp.a(dhcsetup.o)
 .comment       0x00000000       0x24 ../WebServer_bsp/\libucosii_bsp.a(memdev.o)
 .comment       0x00000000       0x24 ../WebServer_bsp/\libucosii_bsp.a(parseip.o)
 .comment       0x00000000       0x24 ../WebServer_bsp/\libucosii_bsp.a(tcpcksum.o)
 .comment       0x00000000       0x24 ../WebServer_bsp/\libucosii_bsp.a(in_pcb.o)
 .comment       0x00000000       0x24 ../WebServer_bsp/\libucosii_bsp.a(vfsfiles.o)
 .comment       0x00000000       0x24 ../WebServer_bsp/\libucosii_bsp.a(vfsport.o)
 .comment       0x00000000       0x24 ../WebServer_bsp/\libucosii_bsp.a(alt_fcntl.o)
 .comment       0x00000000       0x24 ../WebServer_bsp/\libucosii_bsp.a(icmp.o)
 .comment       0x00000000       0x24 c:/altera/13.0/nios2eds/bin/gnu/h-i686-mingw32/bin/../lib/gcc/nios2-elf/4.1.2/../../../../nios2-elf/lib\libc.a(lib_a-atexit.o)
 .comment       0x00000000       0x24 c:/altera/13.0/nios2eds/bin/gnu/h-i686-mingw32/bin/../lib/gcc/nios2-elf/4.1.2/../../../../nios2-elf/lib\libc.a(lib_a-calloc.o)
 .comment       0x00000000       0x24 c:/altera/13.0/nios2eds/bin/gnu/h-i686-mingw32/bin/../lib/gcc/nios2-elf/4.1.2/../../../../nios2-elf/lib\libc.a(lib_a-exit.o)
 .comment       0x00000000       0x24 c:/altera/13.0/nios2eds/bin/gnu/h-i686-mingw32/bin/../lib/gcc/nios2-elf/4.1.2/../../../../nios2-elf/lib\libc.a(lib_a-malloc.o)
 .comment       0x00000000       0x24 c:/altera/13.0/nios2eds/bin/gnu/h-i686-mingw32/bin/../lib/gcc/nios2-elf/4.1.2/../../../../nios2-elf/lib\libc.a(lib_a-vprintf.o)
 .comment       0x00000000       0x24 c:/altera/13.0/nios2eds/bin/gnu/h-i686-mingw32/bin/../lib/gcc/nios2-elf/4.1.2/../../../../nios2-elf/lib\libc.a(lib_a-vsprintf.o)
 .comment       0x00000000       0x24 c:/altera/13.0/nios2eds/bin/gnu/h-i686-mingw32/bin/../lib/gcc/nios2-elf/4.1.2/../../../../nios2-elf/lib\libc.a(lib_a-__atexit.o)
 .comment       0x00000000       0x24 c:/altera/13.0/nios2eds/bin/gnu/h-i686-mingw32/bin/../lib/gcc/nios2-elf/4.1.2/../../../../nios2-elf/lib\libc.a(lib_a-__call_atexit.o)
 .comment       0x00000000       0x24 ../WebServer_bsp/\libucosii_bsp.a(alt_exit.o)

.debug
 *(.debug)

.line
 *(.line)

.debug_srcinfo
 *(.debug_srcinfo)

.debug_sfnames
 *(.debug_sfnames)

.debug_aranges  0x00000000     0x1ff0
 *(.debug_aranges)
 .debug_aranges
                0x00000000       0x20 ../WebServer_bsp//obj/HAL/src/crt0.o
 .debug_aranges
                0x00000020       0x20 obj/default/alt_error_handler.o
 .debug_aranges
                0x00000040       0x20 obj/default/dm9000a.o
 .debug_aranges
                0x00000060       0x20 obj/default/http.o
 .debug_aranges
                0x00000080       0x20 obj/default/network_utilities.o
 .debug_aranges
                0x000000a0       0x20 obj/default/srec_flash.o
 .debug_aranges
                0x000000c0       0x20 obj/default/web_server.o
 .debug_aranges
                0x000000e0       0x20 c:/altera/13.0/nios2eds/bin/gnu/h-i686-mingw32/bin/../lib/gcc/nios2-elf/4.1.2\libgcc.a(_fixunsdfsi.o)
 .debug_aranges
                0x00000100       0x20 c:/altera/13.0/nios2eds/bin/gnu/h-i686-mingw32/bin/../lib/gcc/nios2-elf/4.1.2\libgcc.a(_addsub_df.o)
 .debug_aranges
                0x00000120       0x20 c:/altera/13.0/nios2eds/bin/gnu/h-i686-mingw32/bin/../lib/gcc/nios2-elf/4.1.2\libgcc.a(_mul_df.o)
 .debug_aranges
                0x00000140       0x20 c:/altera/13.0/nios2eds/bin/gnu/h-i686-mingw32/bin/../lib/gcc/nios2-elf/4.1.2\libgcc.a(_ge_df.o)
 .debug_aranges
                0x00000160       0x20 c:/altera/13.0/nios2eds/bin/gnu/h-i686-mingw32/bin/../lib/gcc/nios2-elf/4.1.2\libgcc.a(_df_to_si.o)
 .debug_aranges
                0x00000180       0x20 c:/altera/13.0/nios2eds/bin/gnu/h-i686-mingw32/bin/../lib/gcc/nios2-elf/4.1.2\libgcc.a(_usi_to_df.o)
 .debug_aranges
                0x000001a0       0x20 c:/altera/13.0/nios2eds/bin/gnu/h-i686-mingw32/bin/../lib/gcc/nios2-elf/4.1.2\libgcc.a(lib2-divmod.o)
 .debug_aranges
                0x000001c0       0x20 c:/altera/13.0/nios2eds/bin/gnu/h-i686-mingw32/bin/../lib/gcc/nios2-elf/4.1.2\libgcc.a(_muldi3.o)
 .debug_aranges
                0x000001e0       0x20 c:/altera/13.0/nios2eds/bin/gnu/h-i686-mingw32/bin/../lib/gcc/nios2-elf/4.1.2\libgcc.a(_clzsi2.o)
 .debug_aranges
                0x00000200       0x20 c:/altera/13.0/nios2eds/bin/gnu/h-i686-mingw32/bin/../lib/gcc/nios2-elf/4.1.2\libgcc.a(_pack_df.o)
 .debug_aranges
                0x00000220       0x20 c:/altera/13.0/nios2eds/bin/gnu/h-i686-mingw32/bin/../lib/gcc/nios2-elf/4.1.2\libgcc.a(_unpack_df.o)
 .debug_aranges
                0x00000240       0x20 c:/altera/13.0/nios2eds/bin/gnu/h-i686-mingw32/bin/../lib/gcc/nios2-elf/4.1.2\libgcc.a(_fpcmp_parts_df.o)
 .debug_aranges
                0x00000260       0x20 c:/altera/13.0/nios2eds/bin/gnu/h-i686-mingw32/bin/../lib/gcc/nios2-elf/4.1.2/../../../../nios2-elf/lib\libc.a(lib_a-atoi.o)
 .debug_aranges
                0x00000280       0x20 c:/altera/13.0/nios2eds/bin/gnu/h-i686-mingw32/bin/../lib/gcc/nios2-elf/4.1.2/../../../../nios2-elf/lib\libc.a(lib_a-fclose.o)
 .debug_aranges
                0x000002a0       0x20 c:/altera/13.0/nios2eds/bin/gnu/h-i686-mingw32/bin/../lib/gcc/nios2-elf/4.1.2/../../../../nios2-elf/lib\libc.a(lib_a-fflush.o)
 .debug_aranges
                0x000002c0       0x20 c:/altera/13.0/nios2eds/bin/gnu/h-i686-mingw32/bin/../lib/gcc/nios2-elf/4.1.2/../../../../nios2-elf/lib\libc.a(lib_a-fgetpos.o)
 .debug_aranges
                0x000002e0       0x20 c:/altera/13.0/nios2eds/bin/gnu/h-i686-mingw32/bin/../lib/gcc/nios2-elf/4.1.2/../../../../nios2-elf/lib\libc.a(lib_a-findfp.o)
 .debug_aranges
                0x00000300       0x20 c:/altera/13.0/nios2eds/bin/gnu/h-i686-mingw32/bin/../lib/gcc/nios2-elf/4.1.2/../../../../nios2-elf/lib\libc.a(lib_a-fopen.o)
 .debug_aranges
                0x00000320       0x20 c:/altera/13.0/nios2eds/bin/gnu/h-i686-mingw32/bin/../lib/gcc/nios2-elf/4.1.2/../../../../nios2-elf/lib\libc.a(lib_a-fprintf.o)
 .debug_aranges
                0x00000340       0x20 c:/altera/13.0/nios2eds/bin/gnu/h-i686-mingw32/bin/../lib/gcc/nios2-elf/4.1.2/../../../../nios2-elf/lib\libc.a(lib_a-fread.o)
 .debug_aranges
                0x00000360       0x20 c:/altera/13.0/nios2eds/bin/gnu/h-i686-mingw32/bin/../lib/gcc/nios2-elf/4.1.2/../../../../nios2-elf/lib\libc.a(lib_a-freer.o)
 .debug_aranges
                0x00000380       0x20 c:/altera/13.0/nios2eds/bin/gnu/h-i686-mingw32/bin/../lib/gcc/nios2-elf/4.1.2/../../../../nios2-elf/lib\libc.a(lib_a-fseek.o)
 .debug_aranges
                0x000003a0       0x20 c:/altera/13.0/nios2eds/bin/gnu/h-i686-mingw32/bin/../lib/gcc/nios2-elf/4.1.2/../../../../nios2-elf/lib\libc.a(lib_a-fstatr.o)
 .debug_aranges
                0x000003c0       0x20 c:/altera/13.0/nios2eds/bin/gnu/h-i686-mingw32/bin/../lib/gcc/nios2-elf/4.1.2/../../../../nios2-elf/lib\libc.a(lib_a-ftell.o)
 .debug_aranges
                0x000003e0       0x20 c:/altera/13.0/nios2eds/bin/gnu/h-i686-mingw32/bin/../lib/gcc/nios2-elf/4.1.2/../../../../nios2-elf/lib\libc.a(lib_a-fwalk.o)
 .debug_aranges
                0x00000400       0x20 c:/altera/13.0/nios2eds/bin/gnu/h-i686-mingw32/bin/../lib/gcc/nios2-elf/4.1.2/../../../../nios2-elf/lib\libc.a(lib_a-fwrite.o)
 .debug_aranges
                0x00000420       0x20 c:/altera/13.0/nios2eds/bin/gnu/h-i686-mingw32/bin/../lib/gcc/nios2-elf/4.1.2/../../../../nios2-elf/lib\libc.a(lib_a-getc.o)
 .debug_aranges
                0x00000440       0x20 c:/altera/13.0/nios2eds/bin/gnu/h-i686-mingw32/bin/../lib/gcc/nios2-elf/4.1.2/../../../../nios2-elf/lib\libc.a(lib_a-makebuf.o)
 .debug_aranges
                0x00000460       0x20 c:/altera/13.0/nios2eds/bin/gnu/h-i686-mingw32/bin/../lib/gcc/nios2-elf/4.1.2/../../../../nios2-elf/lib\libc.a(lib_a-mallocr.o)
 .debug_aranges
                0x00000480       0x20 c:/altera/13.0/nios2eds/bin/gnu/h-i686-mingw32/bin/../lib/gcc/nios2-elf/4.1.2/../../../../nios2-elf/lib\libc.a(lib_a-memcpy.o)
 .debug_aranges
                0x000004a0       0x20 c:/altera/13.0/nios2eds/bin/gnu/h-i686-mingw32/bin/../lib/gcc/nios2-elf/4.1.2/../../../../nios2-elf/lib\libc.a(lib_a-memmove.o)
 .debug_aranges
                0x000004c0       0x20 c:/altera/13.0/nios2eds/bin/gnu/h-i686-mingw32/bin/../lib/gcc/nios2-elf/4.1.2/../../../../nios2-elf/lib\libc.a(lib_a-memset.o)
 .debug_aranges
                0x000004e0       0x20 c:/altera/13.0/nios2eds/bin/gnu/h-i686-mingw32/bin/../lib/gcc/nios2-elf/4.1.2/../../../../nios2-elf/lib\libc.a(lib_a-openr.o)
 .debug_aranges
                0x00000500       0x20 c:/altera/13.0/nios2eds/bin/gnu/h-i686-mingw32/bin/../lib/gcc/nios2-elf/4.1.2/../../../../nios2-elf/lib\libc.a(lib_a-perror.o)
 .debug_aranges
                0x00000520       0x20 c:/altera/13.0/nios2eds/bin/gnu/h-i686-mingw32/bin/../lib/gcc/nios2-elf/4.1.2/../../../../nios2-elf/lib\libc.a(lib_a-printf.o)
 .debug_aranges
                0x00000540       0x20 c:/altera/13.0/nios2eds/bin/gnu/h-i686-mingw32/bin/../lib/gcc/nios2-elf/4.1.2/../../../../nios2-elf/lib\libc.a(lib_a-putc.o)
 .debug_aranges
                0x00000560       0x20 c:/altera/13.0/nios2eds/bin/gnu/h-i686-mingw32/bin/../lib/gcc/nios2-elf/4.1.2/../../../../nios2-elf/lib\libc.a(lib_a-putchar.o)
 .debug_aranges
                0x00000580       0x20 c:/altera/13.0/nios2eds/bin/gnu/h-i686-mingw32/bin/../lib/gcc/nios2-elf/4.1.2/../../../../nios2-elf/lib\libc.a(lib_a-puts.o)
 .debug_aranges
                0x000005a0       0x20 c:/altera/13.0/nios2eds/bin/gnu/h-i686-mingw32/bin/../lib/gcc/nios2-elf/4.1.2/../../../../nios2-elf/lib\libc.a(lib_a-refill.o)
 .debug_aranges
                0x000005c0       0x20 c:/altera/13.0/nios2eds/bin/gnu/h-i686-mingw32/bin/../lib/gcc/nios2-elf/4.1.2/../../../../nios2-elf/lib\libc.a(lib_a-rget.o)
 .debug_aranges
                0x000005e0       0x20 c:/altera/13.0/nios2eds/bin/gnu/h-i686-mingw32/bin/../lib/gcc/nios2-elf/4.1.2/../../../../nios2-elf/lib\libc.a(lib_a-sbrkr.o)
 .debug_aranges
                0x00000600       0x20 c:/altera/13.0/nios2eds/bin/gnu/h-i686-mingw32/bin/../lib/gcc/nios2-elf/4.1.2/../../../../nios2-elf/lib\libc.a(lib_a-sprintf.o)
 .debug_aranges
                0x00000620       0x20 c:/altera/13.0/nios2eds/bin/gnu/h-i686-mingw32/bin/../lib/gcc/nios2-elf/4.1.2/../../../../nios2-elf/lib\libc.a(lib_a-sscanf.o)
 .debug_aranges
                0x00000640       0x20 c:/altera/13.0/nios2eds/bin/gnu/h-i686-mingw32/bin/../lib/gcc/nios2-elf/4.1.2/../../../../nios2-elf/lib\libc.a(lib_a-stdio.o)
 .debug_aranges
                0x00000660       0x20 c:/altera/13.0/nios2eds/bin/gnu/h-i686-mingw32/bin/../lib/gcc/nios2-elf/4.1.2/../../../../nios2-elf/lib\libc.a(lib_a-strcasecmp.o)
 .debug_aranges
                0x00000680       0x20 c:/altera/13.0/nios2eds/bin/gnu/h-i686-mingw32/bin/../lib/gcc/nios2-elf/4.1.2/../../../../nios2-elf/lib\libc.a(lib_a-strcat.o)
 .debug_aranges
                0x000006a0       0x20 c:/altera/13.0/nios2eds/bin/gnu/h-i686-mingw32/bin/../lib/gcc/nios2-elf/4.1.2/../../../../nios2-elf/lib\libc.a(lib_a-strchr.o)
 .debug_aranges
                0x000006c0       0x20 c:/altera/13.0/nios2eds/bin/gnu/h-i686-mingw32/bin/../lib/gcc/nios2-elf/4.1.2/../../../../nios2-elf/lib\libc.a(lib_a-strcmp.o)
 .debug_aranges
                0x000006e0       0x20 c:/altera/13.0/nios2eds/bin/gnu/h-i686-mingw32/bin/../lib/gcc/nios2-elf/4.1.2/../../../../nios2-elf/lib\libc.a(lib_a-strcpy.o)
 .debug_aranges
                0x00000700       0x20 c:/altera/13.0/nios2eds/bin/gnu/h-i686-mingw32/bin/../lib/gcc/nios2-elf/4.1.2/../../../../nios2-elf/lib\libc.a(lib_a-strerror.o)
 .debug_aranges
                0x00000720       0x20 c:/altera/13.0/nios2eds/bin/gnu/h-i686-mingw32/bin/../lib/gcc/nios2-elf/4.1.2/../../../../nios2-elf/lib\libc.a(lib_a-strlen.o)
 .debug_aranges
                0x00000740       0x20 c:/altera/13.0/nios2eds/bin/gnu/h-i686-mingw32/bin/../lib/gcc/nios2-elf/4.1.2/../../../../nios2-elf/lib\libc.a(lib_a-strncmp.o)
 .debug_aranges
                0x00000760       0x20 c:/altera/13.0/nios2eds/bin/gnu/h-i686-mingw32/bin/../lib/gcc/nios2-elf/4.1.2/../../../../nios2-elf/lib\libc.a(lib_a-strncpy.o)
 .debug_aranges
                0x00000780       0x20 c:/altera/13.0/nios2eds/bin/gnu/h-i686-mingw32/bin/../lib/gcc/nios2-elf/4.1.2/../../../../nios2-elf/lib\libc.a(lib_a-strstr.o)
 .debug_aranges
                0x000007a0       0x20 c:/altera/13.0/nios2eds/bin/gnu/h-i686-mingw32/bin/../lib/gcc/nios2-elf/4.1.2/../../../../nios2-elf/lib\libc.a(lib_a-strtok.o)
 .debug_aranges
                0x000007c0       0x20 c:/altera/13.0/nios2eds/bin/gnu/h-i686-mingw32/bin/../lib/gcc/nios2-elf/4.1.2/../../../../nios2-elf/lib\libc.a(lib_a-strtok_r.o)
 .debug_aranges
                0x000007e0       0x20 c:/altera/13.0/nios2eds/bin/gnu/h-i686-mingw32/bin/../lib/gcc/nios2-elf/4.1.2/../../../../nios2-elf/lib\libc.a(lib_a-strtol.o)
 .debug_aranges
                0x00000800       0x20 c:/altera/13.0/nios2eds/bin/gnu/h-i686-mingw32/bin/../lib/gcc/nios2-elf/4.1.2/../../../../nios2-elf/lib\libc.a(lib_a-u_strerr.o)
 .debug_aranges
                0x00000820       0x20 c:/altera/13.0/nios2eds/bin/gnu/h-i686-mingw32/bin/../lib/gcc/nios2-elf/4.1.2/../../../../nios2-elf/lib\libc.a(lib_a-vfprintf.o)
 .debug_aranges
                0x00000840       0x20 c:/altera/13.0/nios2eds/bin/gnu/h-i686-mingw32/bin/../lib/gcc/nios2-elf/4.1.2/../../../../nios2-elf/lib\libc.a(lib_a-vfscanf.o)
 .debug_aranges
                0x00000860       0x20 c:/altera/13.0/nios2eds/bin/gnu/h-i686-mingw32/bin/../lib/gcc/nios2-elf/4.1.2/../../../../nios2-elf/lib\libc.a(lib_a-wbuf.o)
 .debug_aranges
                0x00000880       0x20 c:/altera/13.0/nios2eds/bin/gnu/h-i686-mingw32/bin/../lib/gcc/nios2-elf/4.1.2/../../../../nios2-elf/lib\libc.a(lib_a-writer.o)
 .debug_aranges
                0x000008a0       0x20 c:/altera/13.0/nios2eds/bin/gnu/h-i686-mingw32/bin/../lib/gcc/nios2-elf/4.1.2/../../../../nios2-elf/lib\libc.a(lib_a-wsetup.o)
 .debug_aranges
                0x000008c0       0x20 c:/altera/13.0/nios2eds/bin/gnu/h-i686-mingw32/bin/../lib/gcc/nios2-elf/4.1.2/../../../../nios2-elf/lib\libc.a(lib_a-closer.o)
 .debug_aranges
                0x000008e0       0x20 c:/altera/13.0/nios2eds/bin/gnu/h-i686-mingw32/bin/../lib/gcc/nios2-elf/4.1.2/../../../../nios2-elf/lib\libc.a(lib_a-dtoa.o)
 .debug_aranges
                0x00000900       0x20 c:/altera/13.0/nios2eds/bin/gnu/h-i686-mingw32/bin/../lib/gcc/nios2-elf/4.1.2/../../../../nios2-elf/lib\libc.a(lib_a-flags.o)
 .debug_aranges
                0x00000920       0x20 c:/altera/13.0/nios2eds/bin/gnu/h-i686-mingw32/bin/../lib/gcc/nios2-elf/4.1.2/../../../../nios2-elf/lib\libc.a(lib_a-fputc.o)
 .debug_aranges
                0x00000940       0x20 c:/altera/13.0/nios2eds/bin/gnu/h-i686-mingw32/bin/../lib/gcc/nios2-elf/4.1.2/../../../../nios2-elf/lib\libc.a(lib_a-fputs.o)
 .debug_aranges
                0x00000960       0x20 c:/altera/13.0/nios2eds/bin/gnu/h-i686-mingw32/bin/../lib/gcc/nios2-elf/4.1.2/../../../../nios2-elf/lib\libc.a(lib_a-fvwrite.o)
 .debug_aranges
                0x00000980       0x20 c:/altera/13.0/nios2eds/bin/gnu/h-i686-mingw32/bin/../lib/gcc/nios2-elf/4.1.2/../../../../nios2-elf/lib\libc.a(lib_a-isattyr.o)
 .debug_aranges
                0x000009a0       0x20 c:/altera/13.0/nios2eds/bin/gnu/h-i686-mingw32/bin/../lib/gcc/nios2-elf/4.1.2/../../../../nios2-elf/lib\libc.a(lib_a-iswspace.o)
 .debug_aranges
                0x000009c0       0x20 c:/altera/13.0/nios2eds/bin/gnu/h-i686-mingw32/bin/../lib/gcc/nios2-elf/4.1.2/../../../../nios2-elf/lib\libc.a(lib_a-locale.o)
 .debug_aranges
                0x000009e0       0x20 c:/altera/13.0/nios2eds/bin/gnu/h-i686-mingw32/bin/../lib/gcc/nios2-elf/4.1.2/../../../../nios2-elf/lib\libc.a(lib_a-lseekr.o)
 .debug_aranges
                0x00000a00       0x20 c:/altera/13.0/nios2eds/bin/gnu/h-i686-mingw32/bin/../lib/gcc/nios2-elf/4.1.2/../../../../nios2-elf/lib\libc.a(lib_a-mbrtowc.o)
 .debug_aranges
                0x00000a20       0x20 c:/altera/13.0/nios2eds/bin/gnu/h-i686-mingw32/bin/../lib/gcc/nios2-elf/4.1.2/../../../../nios2-elf/lib\libc.a(lib_a-mbtowc_r.o)
 .debug_aranges
                0x00000a40       0x20 c:/altera/13.0/nios2eds/bin/gnu/h-i686-mingw32/bin/../lib/gcc/nios2-elf/4.1.2/../../../../nios2-elf/lib\libc.a(lib_a-memchr.o)
 .debug_aranges
                0x00000a60       0x20 c:/altera/13.0/nios2eds/bin/gnu/h-i686-mingw32/bin/../lib/gcc/nios2-elf/4.1.2/../../../../nios2-elf/lib\libc.a(lib_a-memcmp.o)
 .debug_aranges
                0x00000a80       0x20 c:/altera/13.0/nios2eds/bin/gnu/h-i686-mingw32/bin/../lib/gcc/nios2-elf/4.1.2/../../../../nios2-elf/lib\libc.a(lib_a-mprec.o)
 .debug_aranges
                0x00000aa0       0x20 c:/altera/13.0/nios2eds/bin/gnu/h-i686-mingw32/bin/../lib/gcc/nios2-elf/4.1.2/../../../../nios2-elf/lib\libc.a(lib_a-readr.o)
 .debug_aranges
                0x00000ac0       0x20 c:/altera/13.0/nios2eds/bin/gnu/h-i686-mingw32/bin/../lib/gcc/nios2-elf/4.1.2/../../../../nios2-elf/lib\libc.a(lib_a-reallocr.o)
 .debug_aranges
                0x00000ae0       0x20 c:/altera/13.0/nios2eds/bin/gnu/h-i686-mingw32/bin/../lib/gcc/nios2-elf/4.1.2/../../../../nios2-elf/lib\libc.a(lib_a-s_isinfd.o)
 .debug_aranges
                0x00000b00       0x20 c:/altera/13.0/nios2eds/bin/gnu/h-i686-mingw32/bin/../lib/gcc/nios2-elf/4.1.2/../../../../nios2-elf/lib\libc.a(lib_a-s_isnand.o)
 .debug_aranges
                0x00000b20       0x20 c:/altera/13.0/nios2eds/bin/gnu/h-i686-mingw32/bin/../lib/gcc/nios2-elf/4.1.2/../../../../nios2-elf/lib\libc.a(lib_a-sccl.o)
 .debug_aranges
                0x00000b40       0x20 c:/altera/13.0/nios2eds/bin/gnu/h-i686-mingw32/bin/../lib/gcc/nios2-elf/4.1.2/../../../../nios2-elf/lib\libc.a(lib_a-sf_nan.o)
 .debug_aranges
                0x00000b60       0x20 c:/altera/13.0/nios2eds/bin/gnu/h-i686-mingw32/bin/../lib/gcc/nios2-elf/4.1.2/../../../../nios2-elf/lib\libc.a(lib_a-strtod.o)
 .debug_aranges
                0x00000b80       0x20 c:/altera/13.0/nios2eds/bin/gnu/h-i686-mingw32/bin/../lib/gcc/nios2-elf/4.1.2/../../../../nios2-elf/lib\libc.a(lib_a-strtoll_r.o)
 .debug_aranges
                0x00000ba0       0x20 c:/altera/13.0/nios2eds/bin/gnu/h-i686-mingw32/bin/../lib/gcc/nios2-elf/4.1.2/../../../../nios2-elf/lib\libc.a(lib_a-strtoul.o)
 .debug_aranges
                0x00000bc0       0x20 c:/altera/13.0/nios2eds/bin/gnu/h-i686-mingw32/bin/../lib/gcc/nios2-elf/4.1.2/../../../../nios2-elf/lib\libc.a(lib_a-strtoull_r.o)
 .debug_aranges
                0x00000be0       0x20 c:/altera/13.0/nios2eds/bin/gnu/h-i686-mingw32/bin/../lib/gcc/nios2-elf/4.1.2/../../../../nios2-elf/lib\libc.a(lib_a-ungetc.o)
 .debug_aranges
                0x00000c00       0x20 c:/altera/13.0/nios2eds/bin/gnu/h-i686-mingw32/bin/../lib/gcc/nios2-elf/4.1.2/../../../../nios2-elf/lib\libc.a(lib_a-callocr.o)
 .debug_aranges
                0x00000c20       0x20 c:/altera/13.0/nios2eds/bin/gnu/h-i686-mingw32/bin/../lib/gcc/nios2-elf/4.1.2/../../../../nios2-elf/lib\libc.a(lib_a-gdtoa-gethex.o)
 .debug_aranges
                0x00000c40       0x20 c:/altera/13.0/nios2eds/bin/gnu/h-i686-mingw32/bin/../lib/gcc/nios2-elf/4.1.2/../../../../nios2-elf/lib\libc.a(lib_a-gdtoa-hexnan.o)
 .debug_aranges
                0x00000c60       0x20 c:/altera/13.0/nios2eds/bin/gnu/h-i686-mingw32/bin/../lib/gcc/nios2-elf/4.1.2\libgcc.a(_udivdi3.o)
 .debug_aranges
                0x00000c80       0x20 c:/altera/13.0/nios2eds/bin/gnu/h-i686-mingw32/bin/../lib/gcc/nios2-elf/4.1.2\libgcc.a(_umoddi3.o)
 .debug_aranges
                0x00000ca0       0x20 c:/altera/13.0/nios2eds/bin/gnu/h-i686-mingw32/bin/../lib/gcc/nios2-elf/4.1.2\libgcc.a(_ne_sf.o)
 .debug_aranges
                0x00000cc0       0x20 c:/altera/13.0/nios2eds/bin/gnu/h-i686-mingw32/bin/../lib/gcc/nios2-elf/4.1.2\libgcc.a(_gt_sf.o)
 .debug_aranges
                0x00000ce0       0x20 c:/altera/13.0/nios2eds/bin/gnu/h-i686-mingw32/bin/../lib/gcc/nios2-elf/4.1.2\libgcc.a(_lt_sf.o)
 .debug_aranges
                0x00000d00       0x20 c:/altera/13.0/nios2eds/bin/gnu/h-i686-mingw32/bin/../lib/gcc/nios2-elf/4.1.2\libgcc.a(_div_df.o)
 .debug_aranges
                0x00000d20       0x20 c:/altera/13.0/nios2eds/bin/gnu/h-i686-mingw32/bin/../lib/gcc/nios2-elf/4.1.2\libgcc.a(_eq_df.o)
 .debug_aranges
                0x00000d40       0x20 c:/altera/13.0/nios2eds/bin/gnu/h-i686-mingw32/bin/../lib/gcc/nios2-elf/4.1.2\libgcc.a(_ne_df.o)
 .debug_aranges
                0x00000d60       0x20 c:/altera/13.0/nios2eds/bin/gnu/h-i686-mingw32/bin/../lib/gcc/nios2-elf/4.1.2\libgcc.a(_gt_df.o)
 .debug_aranges
                0x00000d80       0x20 c:/altera/13.0/nios2eds/bin/gnu/h-i686-mingw32/bin/../lib/gcc/nios2-elf/4.1.2\libgcc.a(_lt_df.o)
 .debug_aranges
                0x00000da0       0x20 c:/altera/13.0/nios2eds/bin/gnu/h-i686-mingw32/bin/../lib/gcc/nios2-elf/4.1.2\libgcc.a(_le_df.o)
 .debug_aranges
                0x00000dc0       0x20 c:/altera/13.0/nios2eds/bin/gnu/h-i686-mingw32/bin/../lib/gcc/nios2-elf/4.1.2\libgcc.a(_si_to_df.o)
 .debug_aranges
                0x00000de0       0x20 c:/altera/13.0/nios2eds/bin/gnu/h-i686-mingw32/bin/../lib/gcc/nios2-elf/4.1.2\libgcc.a(_df_to_sf.o)
 .debug_aranges
                0x00000e00       0x20 c:/altera/13.0/nios2eds/bin/gnu/h-i686-mingw32/bin/../lib/gcc/nios2-elf/4.1.2\libgcc.a(_unpack_sf.o)
 .debug_aranges
                0x00000e20       0x20 c:/altera/13.0/nios2eds/bin/gnu/h-i686-mingw32/bin/../lib/gcc/nios2-elf/4.1.2\libgcc.a(_fpcmp_parts_sf.o)
 .debug_aranges
                0x00000e40       0x20 c:/altera/13.0/nios2eds/bin/gnu/h-i686-mingw32/bin/../lib/gcc/nios2-elf/4.1.2\libgcc.a(_make_sf.o)
 .debug_aranges
                0x00000e60       0x20 c:/altera/13.0/nios2eds/bin/gnu/h-i686-mingw32/bin/../lib/gcc/nios2-elf/4.1.2\libgcc.a(_pack_sf.o)
 .debug_aranges
                0x00000e80       0x20 ../WebServer_bsp/\libucosii_bsp.a(alt_dcache_flush.o)
 .debug_aranges
                0x00000ea0       0x20 ../WebServer_bsp/\libucosii_bsp.a(alt_flash_dev.o)
 .debug_aranges
                0x00000ec0       0x20 ../WebServer_bsp/\libucosii_bsp.a(alt_fstat.o)
 .debug_aranges
                0x00000ee0       0x20 ../WebServer_bsp/\libucosii_bsp.a(alt_irq_register.o)
 .debug_aranges
                0x00000f00       0x20 ../WebServer_bsp/\libucosii_bsp.a(alt_isatty.o)
 .debug_aranges
                0x00000f20       0x20 ../WebServer_bsp/\libucosii_bsp.a(alt_lseek.o)
 .debug_aranges
                0x00000f40       0x20 ../WebServer_bsp/\libucosii_bsp.a(alt_main.o)
 .debug_aranges
                0x00000f60       0x20 ../WebServer_bsp/\libucosii_bsp.a(alt_open.o)
 .debug_aranges
                0x00000f80       0x20 ../WebServer_bsp/\libucosii_bsp.a(alt_release_fd.o)
 .debug_aranges
                0x00000fa0       0x20 ../WebServer_bsp/\libucosii_bsp.a(alt_sbrk.o)
 .debug_aranges
                0x00000fc0       0x20 ../WebServer_bsp/\libucosii_bsp.a(alt_tick.o)
 .debug_aranges
                0x00000fe0       0x20 ../WebServer_bsp/\libucosii_bsp.a(alt_usleep.o)
 .debug_aranges
                0x00001000       0x20 ../WebServer_bsp/\libucosii_bsp.a(alt_env_lock.o)
 .debug_aranges
                0x00001020       0x20 ../WebServer_bsp/\libucosii_bsp.a(alt_malloc_lock.o)
 .debug_aranges
                0x00001040       0x20 ../WebServer_bsp/\libucosii_bsp.a(os_core.o)
 .debug_aranges
                0x00001060       0x20 ../WebServer_bsp/\libucosii_bsp.a(os_dbg.o)
 .debug_aranges
                0x00001080       0x20 ../WebServer_bsp/\libucosii_bsp.a(os_flag.o)
 .debug_aranges
                0x000010a0       0x20 ../WebServer_bsp/\libucosii_bsp.a(os_mbox.o)
 .debug_aranges
                0x000010c0       0x20 ../WebServer_bsp/\libucosii_bsp.a(os_mem.o)
 .debug_aranges
                0x000010e0       0x20 ../WebServer_bsp/\libucosii_bsp.a(os_q.o)
 .debug_aranges
                0x00001100       0x20 ../WebServer_bsp/\libucosii_bsp.a(os_sem.o)
 .debug_aranges
                0x00001120       0x20 ../WebServer_bsp/\libucosii_bsp.a(os_task.o)
 .debug_aranges
                0x00001140       0x20 ../WebServer_bsp/\libucosii_bsp.a(os_time.o)
 .debug_aranges
                0x00001160       0x20 ../WebServer_bsp/\libucosii_bsp.a(alt_sys_init.o)
 .debug_aranges
                0x00001180       0x20 ../WebServer_bsp/\libucosii_bsp.a(altera_avalon_cfi_flash.o)
 .debug_aranges
                0x000011a0       0x20 ../WebServer_bsp/\libucosii_bsp.a(altera_avalon_cfi_flash_table.o)
 .debug_aranges
                0x000011c0       0x20 ../WebServer_bsp/\libucosii_bsp.a(altera_avalon_epcs_flash_controller.o)
 .debug_aranges
                0x000011e0       0x20 ../WebServer_bsp/\libucosii_bsp.a(altera_avalon_jtag_uart_fd.o)
 .debug_aranges
                0x00001200       0x20 ../WebServer_bsp/\libucosii_bsp.a(altera_avalon_jtag_uart_init.o)
 .debug_aranges
                0x00001220       0x20 ../WebServer_bsp/\libucosii_bsp.a(altera_avalon_jtag_uart_ioctl.o)
 .debug_aranges
                0x00001240       0x20 ../WebServer_bsp/\libucosii_bsp.a(altera_avalon_jtag_uart_read.o)
 .debug_aranges
                0x00001260       0x20 ../WebServer_bsp/\libucosii_bsp.a(altera_avalon_jtag_uart_write.o)
 .debug_aranges
                0x00001280       0x20 ../WebServer_bsp/\libucosii_bsp.a(altera_avalon_lcd_16207.o)
 .debug_aranges
                0x000012a0       0x20 ../WebServer_bsp/\libucosii_bsp.a(altera_avalon_lcd_16207_fd.o)
 .debug_aranges
                0x000012c0       0x20 ../WebServer_bsp/\libucosii_bsp.a(altera_avalon_timer_sc.o)
 .debug_aranges
                0x000012e0       0x20 ../WebServer_bsp/\libucosii_bsp.a(altera_avalon_uart_fd.o)
 .debug_aranges
                0x00001300       0x20 ../WebServer_bsp/\libucosii_bsp.a(altera_avalon_uart_init.o)
 .debug_aranges
                0x00001320       0x20 ../WebServer_bsp/\libucosii_bsp.a(altera_avalon_uart_read.o)
 .debug_aranges
                0x00001340       0x20 ../WebServer_bsp/\libucosii_bsp.a(altera_avalon_uart_write.o)
 .debug_aranges
                0x00001360       0x20 ../WebServer_bsp/\libucosii_bsp.a(altera_ro_zipfs.o)
 .debug_aranges
                0x00001380       0x20 ../WebServer_bsp/\libucosii_bsp.a(epcs_commands.o)
 .debug_aranges
                0x000013a0       0x20 ../WebServer_bsp/\libucosii_bsp.a(alt_iniche_close.o)
 .debug_aranges
                0x000013c0       0x20 ../WebServer_bsp/\libucosii_bsp.a(alt_iniche_dev.o)
 .debug_aranges
                0x000013e0       0x20 ../WebServer_bsp/\libucosii_bsp.a(alt_iniche_read.o)
 .debug_aranges
                0x00001400       0x20 ../WebServer_bsp/\libucosii_bsp.a(alt_iniche_write.o)
 .debug_aranges
                0x00001420       0x20 ../WebServer_bsp/\libucosii_bsp.a(ipnet.o)
 .debug_aranges
                0x00001440       0x20 ../WebServer_bsp/\libucosii_bsp.a(ipstart.o)
 .debug_aranges
                0x00001460       0x20 ../WebServer_bsp/\libucosii_bsp.a(igmp_cmn.o)
 .debug_aranges
                0x00001480       0x20 ../WebServer_bsp/\libucosii_bsp.a(bsdsock.o)
 .debug_aranges
                0x000014a0       0x20 ../WebServer_bsp/\libucosii_bsp.a(cksum.o)
 .debug_aranges
                0x000014c0       0x20 ../WebServer_bsp/\libucosii_bsp.a(in_utils.o)
 .debug_aranges
                0x000014e0       0x20 ../WebServer_bsp/\libucosii_bsp.a(netmain.o)
 .debug_aranges
                0x00001500       0x20 ../WebServer_bsp/\libucosii_bsp.a(tk_crnos.o)
 .debug_aranges
                0x00001520       0x20 ../WebServer_bsp/\libucosii_bsp.a(dhcpclnt.o)
 .debug_aranges
                0x00001540       0x20 ../WebServer_bsp/\libucosii_bsp.a(dhcputil.o)
 .debug_aranges
                0x00001560       0x20 ../WebServer_bsp/\libucosii_bsp.a(pktalloc.o)
 .debug_aranges
                0x00001580       0x20 ../WebServer_bsp/\libucosii_bsp.a(q.o)
 .debug_aranges
                0x000015a0       0x20 ../WebServer_bsp/\libucosii_bsp.a(udp_open.o)
 .debug_aranges
                0x000015c0       0x20 ../WebServer_bsp/\libucosii_bsp.a(asm_cksum.o)
 .debug_aranges
                0x000015e0       0x20 ../WebServer_bsp/\libucosii_bsp.a(brdutils.o)
 .debug_aranges
                0x00001600       0x20 ../WebServer_bsp/\libucosii_bsp.a(osportco.o)
 .debug_aranges
                0x00001620       0x20 ../WebServer_bsp/\libucosii_bsp.a(targnios.o)
 .debug_aranges
                0x00001640       0x20 ../WebServer_bsp/\libucosii_bsp.a(nptcp.o)
 .debug_aranges
                0x00001660       0x20 ../WebServer_bsp/\libucosii_bsp.a(rawsock.o)
 .debug_aranges
                0x00001680       0x20 ../WebServer_bsp/\libucosii_bsp.a(sockcall.o)
 .debug_aranges
                0x000016a0       0x20 ../WebServer_bsp/\libucosii_bsp.a(socket.o)
 .debug_aranges
                0x000016c0       0x20 ../WebServer_bsp/\libucosii_bsp.a(socket2.o)
 .debug_aranges
                0x000016e0       0x20 ../WebServer_bsp/\libucosii_bsp.a(soselect.o)
 .debug_aranges
                0x00001700       0x20 ../WebServer_bsp/\libucosii_bsp.a(tcp_in.o)
 .debug_aranges
                0x00001720       0x20 ../WebServer_bsp/\libucosii_bsp.a(tcp_out.o)
 .debug_aranges
                0x00001740       0x20 ../WebServer_bsp/\libucosii_bsp.a(tcp_subr.o)
 .debug_aranges
                0x00001760       0x20 ../WebServer_bsp/\libucosii_bsp.a(tcp_timr.o)
 .debug_aranges
                0x00001780       0x20 ../WebServer_bsp/\libucosii_bsp.a(tcp_usr.o)
 .debug_aranges
                0x000017a0       0x20 ../WebServer_bsp/\libucosii_bsp.a(tcpport.o)
 .debug_aranges
                0x000017c0       0x20 ../WebServer_bsp/\libucosii_bsp.a(udpsock.o)
 .debug_aranges
                0x000017e0       0x20 ../WebServer_bsp/\libucosii_bsp.a(alt_alarm_start.o)
 .debug_aranges
                0x00001800       0x20 ../WebServer_bsp/\libucosii_bsp.a(alt_busy_sleep.o)
 .debug_aranges
                0x00001820       0x20 ../WebServer_bsp/\libucosii_bsp.a(alt_close.o)
 .debug_aranges
                0x00001840       0x20 ../WebServer_bsp/\libucosii_bsp.a(alt_dev.o)
 .debug_aranges
                0x00001860       0x20 ../WebServer_bsp/\libucosii_bsp.a(alt_dev_llist_insert.o)
 .debug_aranges
                0x00001880       0x20 ../WebServer_bsp/\libucosii_bsp.a(alt_do_ctors.o)
 .debug_aranges
                0x000018a0       0x20 ../WebServer_bsp/\libucosii_bsp.a(alt_do_dtors.o)
 .debug_aranges
                0x000018c0       0x20 ../WebServer_bsp/\libucosii_bsp.a(alt_find_dev.o)
 .debug_aranges
                0x000018e0       0x20 ../WebServer_bsp/\libucosii_bsp.a(alt_find_file.o)
 .debug_aranges
                0x00001900       0x20 ../WebServer_bsp/\libucosii_bsp.a(alt_fs_reg.o)
 .debug_aranges
                0x00001920       0x20 ../WebServer_bsp/\libucosii_bsp.a(alt_get_fd.o)
 .debug_aranges
                0x00001940       0x20 ../WebServer_bsp/\libucosii_bsp.a(alt_iic.o)
 .debug_aranges
                0x00001960       0x20 ../WebServer_bsp/\libucosii_bsp.a(alt_iic_isr_register.o)
 .debug_aranges
                0x00001980       0x20 ../WebServer_bsp/\libucosii_bsp.a(alt_io_redirect.o)
 .debug_aranges
                0x000019a0       0x30 ../WebServer_bsp/\libucosii_bsp.a(alt_irq_entry.o)
 .debug_aranges
                0x000019d0       0x28 ../WebServer_bsp/\libucosii_bsp.a(alt_irq_handler.o)
 .debug_aranges
                0x000019f8       0x20 ../WebServer_bsp/\libucosii_bsp.a(alt_read.o)
 .debug_aranges
                0x00001a18       0x20 ../WebServer_bsp/\libucosii_bsp.a(alt_remap_cached.o)
 .debug_aranges
                0x00001a38       0x20 ../WebServer_bsp/\libucosii_bsp.a(alt_remap_uncached.o)
 .debug_aranges
                0x00001a58       0x20 ../WebServer_bsp/\libucosii_bsp.a(alt_write.o)
 .debug_aranges
                0x00001a78       0x20 ../WebServer_bsp/\libucosii_bsp.a(altera_nios2_qsys_irq.o)
 .debug_aranges
                0x00001a98       0x20 ../WebServer_bsp/\libucosii_bsp.a(os_cpu_a.o)
 .debug_aranges
                0x00001ab8       0x20 ../WebServer_bsp/\libucosii_bsp.a(os_cpu_c.o)
 .debug_aranges
                0x00001ad8       0x20 ../WebServer_bsp/\libucosii_bsp.a(altera_avalon_cfi_flash_amd.o)
 .debug_aranges
                0x00001af8       0x20 ../WebServer_bsp/\libucosii_bsp.a(altera_avalon_cfi_flash_intel.o)
 .debug_aranges
                0x00001b18       0x20 ../WebServer_bsp/\libucosii_bsp.a(altera_avalon_spi.o)
 .debug_aranges
                0x00001b38       0x20 ../WebServer_bsp/\libucosii_bsp.a(allports.o)
 .debug_aranges
                0x00001b58       0x20 ../WebServer_bsp/\libucosii_bsp.a(timeouts.o)
 .debug_aranges
                0x00001b78       0x20 ../WebServer_bsp/\libucosii_bsp.a(tk_misc.o)
 .debug_aranges
                0x00001b98       0x20 ../WebServer_bsp/\libucosii_bsp.a(alt_iniche_fcntl.o)
 .debug_aranges
                0x00001bb8       0x20 ../WebServer_bsp/\libucosii_bsp.a(et_arp.o)
 .debug_aranges
                0x00001bd8       0x20 ../WebServer_bsp/\libucosii_bsp.a(iface.o)
 .debug_aranges
                0x00001bf8       0x20 ../WebServer_bsp/\libucosii_bsp.a(ip.o)
 .debug_aranges
                0x00001c18       0x20 ../WebServer_bsp/\libucosii_bsp.a(ip_reasm.o)
 .debug_aranges
                0x00001c38       0x20 ../WebServer_bsp/\libucosii_bsp.a(ipdemux.o)
 .debug_aranges
                0x00001c58       0x20 ../WebServer_bsp/\libucosii_bsp.a(ipmc.o)
 .debug_aranges
                0x00001c78       0x20 ../WebServer_bsp/\libucosii_bsp.a(ipport.o)
 .debug_aranges
                0x00001c98       0x20 ../WebServer_bsp/\libucosii_bsp.a(ipraw.o)
 .debug_aranges
                0x00001cb8       0x20 ../WebServer_bsp/\libucosii_bsp.a(iproute.o)
 .debug_aranges
                0x00001cd8       0x20 ../WebServer_bsp/\libucosii_bsp.a(udp.o)
 .debug_aranges
                0x00001cf8       0x20 ../WebServer_bsp/\libucosii_bsp.a(igmp.o)
 .debug_aranges
                0x00001d18       0x20 ../WebServer_bsp/\libucosii_bsp.a(igmp2.o)
 .debug_aranges
                0x00001d38       0x20 ../WebServer_bsp/\libucosii_bsp.a(ipopt.o)
 .debug_aranges
                0x00001d58       0x20 ../WebServer_bsp/\libucosii_bsp.a(u_mctest.o)
 .debug_aranges
                0x00001d78       0x20 ../WebServer_bsp/\libucosii_bsp.a(dhcsetup.o)
 .debug_aranges
                0x00001d98       0x20 ../WebServer_bsp/\libucosii_bsp.a(memdev.o)
 .debug_aranges
                0x00001db8       0x20 ../WebServer_bsp/\libucosii_bsp.a(parseip.o)
 .debug_aranges
                0x00001dd8       0x20 ../WebServer_bsp/\libucosii_bsp.a(tcpcksum.o)
 .debug_aranges
                0x00001df8       0x20 ../WebServer_bsp/\libucosii_bsp.a(in_pcb.o)
 .debug_aranges
                0x00001e18       0x20 ../WebServer_bsp/\libucosii_bsp.a(vfsfiles.o)
 .debug_aranges
                0x00001e38       0x20 ../WebServer_bsp/\libucosii_bsp.a(vfsport.o)
 .debug_aranges
                0x00001e58       0x38 ../WebServer_bsp/\libucosii_bsp.a(alt_exception_entry.o)
 .debug_aranges
                0x00001e90       0x20 ../WebServer_bsp/\libucosii_bsp.a(alt_fcntl.o)
 .debug_aranges
                0x00001eb0       0x20 ../WebServer_bsp/\libucosii_bsp.a(icmp.o)
 .debug_aranges
                0x00001ed0       0x20 c:/altera/13.0/nios2eds/bin/gnu/h-i686-mingw32/bin/../lib/gcc/nios2-elf/4.1.2/../../../../nios2-elf/lib\libc.a(lib_a-atexit.o)
 .debug_aranges
                0x00001ef0       0x20 c:/altera/13.0/nios2eds/bin/gnu/h-i686-mingw32/bin/../lib/gcc/nios2-elf/4.1.2/../../../../nios2-elf/lib\libc.a(lib_a-calloc.o)
 .debug_aranges
                0x00001f10       0x20 c:/altera/13.0/nios2eds/bin/gnu/h-i686-mingw32/bin/../lib/gcc/nios2-elf/4.1.2/../../../../nios2-elf/lib\libc.a(lib_a-exit.o)
 .debug_aranges
                0x00001f30       0x20 c:/altera/13.0/nios2eds/bin/gnu/h-i686-mingw32/bin/../lib/gcc/nios2-elf/4.1.2/../../../../nios2-elf/lib\libc.a(lib_a-malloc.o)
 .debug_aranges
                0x00001f50       0x20 c:/altera/13.0/nios2eds/bin/gnu/h-i686-mingw32/bin/../lib/gcc/nios2-elf/4.1.2/../../../../nios2-elf/lib\libc.a(lib_a-vprintf.o)
 .debug_aranges
                0x00001f70       0x20 c:/altera/13.0/nios2eds/bin/gnu/h-i686-mingw32/bin/../lib/gcc/nios2-elf/4.1.2/../../../../nios2-elf/lib\libc.a(lib_a-vsprintf.o)
 .debug_aranges
                0x00001f90       0x20 c:/altera/13.0/nios2eds/bin/gnu/h-i686-mingw32/bin/../lib/gcc/nios2-elf/4.1.2/../../../../nios2-elf/lib\libc.a(lib_a-__atexit.o)
 .debug_aranges
                0x00001fb0       0x20 c:/altera/13.0/nios2eds/bin/gnu/h-i686-mingw32/bin/../lib/gcc/nios2-elf/4.1.2/../../../../nios2-elf/lib\libc.a(lib_a-__call_atexit.o)
 .debug_aranges
                0x00001fd0       0x20 ../WebServer_bsp/\libucosii_bsp.a(alt_exit.o)

.debug_pubnames
                0x00000000     0x5d75
 *(.debug_pubnames)
 .debug_pubnames
                0x00000000       0x2d obj/default/alt_error_handler.o
 .debug_pubnames
                0x0000002d      0x102 obj/default/dm9000a.o
 .debug_pubnames
                0x0000012f      0x2a5 obj/default/http.o
 .debug_pubnames
                0x000003d4       0xfa obj/default/network_utilities.o
 .debug_pubnames
                0x000004ce       0x79 obj/default/srec_flash.o
 .debug_pubnames
                0x00000547       0xf4 obj/default/web_server.o
 .debug_pubnames
                0x0000063b       0x23 c:/altera/13.0/nios2eds/bin/gnu/h-i686-mingw32/bin/../lib/gcc/nios2-elf/4.1.2\libgcc.a(_fixunsdfsi.o)
 .debug_pubnames
                0x0000065e       0x2c c:/altera/13.0/nios2eds/bin/gnu/h-i686-mingw32/bin/../lib/gcc/nios2-elf/4.1.2\libgcc.a(_addsub_df.o)
 .debug_pubnames
                0x0000068a       0x1f c:/altera/13.0/nios2eds/bin/gnu/h-i686-mingw32/bin/../lib/gcc/nios2-elf/4.1.2\libgcc.a(_mul_df.o)
 .debug_pubnames
                0x000006a9       0x1e c:/altera/13.0/nios2eds/bin/gnu/h-i686-mingw32/bin/../lib/gcc/nios2-elf/4.1.2\libgcc.a(_ge_df.o)
 .debug_pubnames
                0x000006c7       0x20 c:/altera/13.0/nios2eds/bin/gnu/h-i686-mingw32/bin/../lib/gcc/nios2-elf/4.1.2\libgcc.a(_df_to_si.o)
 .debug_pubnames
                0x000006e7       0x22 c:/altera/13.0/nios2eds/bin/gnu/h-i686-mingw32/bin/../lib/gcc/nios2-elf/4.1.2\libgcc.a(_thenan_df.o)
 .debug_pubnames
                0x00000709       0x24 c:/altera/13.0/nios2eds/bin/gnu/h-i686-mingw32/bin/../lib/gcc/nios2-elf/4.1.2\libgcc.a(_usi_to_df.o)
 .debug_pubnames
                0x0000072d       0x48 c:/altera/13.0/nios2eds/bin/gnu/h-i686-mingw32/bin/../lib/gcc/nios2-elf/4.1.2\libgcc.a(lib2-divmod.o)
 .debug_pubnames
                0x00000775       0x1f c:/altera/13.0/nios2eds/bin/gnu/h-i686-mingw32/bin/../lib/gcc/nios2-elf/4.1.2\libgcc.a(_muldi3.o)
 .debug_pubnames
                0x00000794       0x1f c:/altera/13.0/nios2eds/bin/gnu/h-i686-mingw32/bin/../lib/gcc/nios2-elf/4.1.2\libgcc.a(_clzsi2.o)
 .debug_pubnames
                0x000007b3       0x1f c:/altera/13.0/nios2eds/bin/gnu/h-i686-mingw32/bin/../lib/gcc/nios2-elf/4.1.2\libgcc.a(_pack_df.o)
 .debug_pubnames
                0x000007d2       0x21 c:/altera/13.0/nios2eds/bin/gnu/h-i686-mingw32/bin/../lib/gcc/nios2-elf/4.1.2\libgcc.a(_unpack_df.o)
 .debug_pubnames
                0x000007f3       0x26 c:/altera/13.0/nios2eds/bin/gnu/h-i686-mingw32/bin/../lib/gcc/nios2-elf/4.1.2\libgcc.a(_fpcmp_parts_df.o)
 .debug_pubnames
                0x00000819       0x20 c:/altera/13.0/nios2eds/bin/gnu/h-i686-mingw32/bin/../lib/gcc/nios2-elf/4.1.2\libgcc.a(_clz.o)
 .debug_pubnames
                0x00000839       0x27 c:/altera/13.0/nios2eds/bin/gnu/h-i686-mingw32/bin/../lib/gcc/nios2-elf/4.1.2/../../../../nios2-elf/lib\libc.a(lib_a-atoi.o)
 .debug_pubnames
                0x00000860       0x2e c:/altera/13.0/nios2eds/bin/gnu/h-i686-mingw32/bin/../lib/gcc/nios2-elf/4.1.2/../../../../nios2-elf/lib\libc.a(lib_a-ctype_.o)
 .debug_pubnames
                0x0000088e       0x2b c:/altera/13.0/nios2eds/bin/gnu/h-i686-mingw32/bin/../lib/gcc/nios2-elf/4.1.2/../../../../nios2-elf/lib\libc.a(lib_a-fclose.o)
 .debug_pubnames
                0x000008b9       0x2b c:/altera/13.0/nios2eds/bin/gnu/h-i686-mingw32/bin/../lib/gcc/nios2-elf/4.1.2/../../../../nios2-elf/lib\libc.a(lib_a-fflush.o)
 .debug_pubnames
                0x000008e4       0x2d c:/altera/13.0/nios2eds/bin/gnu/h-i686-mingw32/bin/../lib/gcc/nios2-elf/4.1.2/../../../../nios2-elf/lib\libc.a(lib_a-fgetpos.o)
 .debug_pubnames
                0x00000911       0xdb c:/altera/13.0/nios2eds/bin/gnu/h-i686-mingw32/bin/../lib/gcc/nios2-elf/4.1.2/../../../../nios2-elf/lib\libc.a(lib_a-findfp.o)
 .debug_pubnames
                0x000009ec       0x29 c:/altera/13.0/nios2eds/bin/gnu/h-i686-mingw32/bin/../lib/gcc/nios2-elf/4.1.2/../../../../nios2-elf/lib\libc.a(lib_a-fopen.o)
 .debug_pubnames
                0x00000a15       0x2d c:/altera/13.0/nios2eds/bin/gnu/h-i686-mingw32/bin/../lib/gcc/nios2-elf/4.1.2/../../../../nios2-elf/lib\libc.a(lib_a-fprintf.o)
 .debug_pubnames
                0x00000a42       0x29 c:/altera/13.0/nios2eds/bin/gnu/h-i686-mingw32/bin/../lib/gcc/nios2-elf/4.1.2/../../../../nios2-elf/lib\libc.a(lib_a-fread.o)
 .debug_pubnames
                0x00000a6b       0x31 c:/altera/13.0/nios2eds/bin/gnu/h-i686-mingw32/bin/../lib/gcc/nios2-elf/4.1.2/../../../../nios2-elf/lib\libc.a(lib_a-freer.o)
 .debug_pubnames
                0x00000a9c       0x29 c:/altera/13.0/nios2eds/bin/gnu/h-i686-mingw32/bin/../lib/gcc/nios2-elf/4.1.2/../../../../nios2-elf/lib\libc.a(lib_a-fseek.o)
 .debug_pubnames
                0x00000ac5       0x1f c:/altera/13.0/nios2eds/bin/gnu/h-i686-mingw32/bin/../lib/gcc/nios2-elf/4.1.2/../../../../nios2-elf/lib\libc.a(lib_a-fstatr.o)
 .debug_pubnames
                0x00000ae4       0x29 c:/altera/13.0/nios2eds/bin/gnu/h-i686-mingw32/bin/../lib/gcc/nios2-elf/4.1.2/../../../../nios2-elf/lib\libc.a(lib_a-ftell.o)
 .debug_pubnames
                0x00000b0d       0x2e c:/altera/13.0/nios2eds/bin/gnu/h-i686-mingw32/bin/../lib/gcc/nios2-elf/4.1.2/../../../../nios2-elf/lib\libc.a(lib_a-fwalk.o)
 .debug_pubnames
                0x00000b3b       0x2b c:/altera/13.0/nios2eds/bin/gnu/h-i686-mingw32/bin/../lib/gcc/nios2-elf/4.1.2/../../../../nios2-elf/lib\libc.a(lib_a-fwrite.o)
 .debug_pubnames
                0x00000b66       0x27 c:/altera/13.0/nios2eds/bin/gnu/h-i686-mingw32/bin/../lib/gcc/nios2-elf/4.1.2/../../../../nios2-elf/lib\libc.a(lib_a-getc.o)
 .debug_pubnames
                0x00000b8d       0x39 c:/altera/13.0/nios2eds/bin/gnu/h-i686-mingw32/bin/../lib/gcc/nios2-elf/4.1.2/../../../../nios2-elf/lib\libc.a(lib_a-impure.o)
 .debug_pubnames
                0x00000bc6       0x1c c:/altera/13.0/nios2eds/bin/gnu/h-i686-mingw32/bin/../lib/gcc/nios2-elf/4.1.2/../../../../nios2-elf/lib\libc.a(lib_a-int_errno.o)
 .debug_pubnames
                0x00000be2       0x23 c:/altera/13.0/nios2eds/bin/gnu/h-i686-mingw32/bin/../lib/gcc/nios2-elf/4.1.2/../../../../nios2-elf/lib\libc.a(lib_a-makebuf.o)
 .debug_pubnames
                0x00000c05       0xce c:/altera/13.0/nios2eds/bin/gnu/h-i686-mingw32/bin/../lib/gcc/nios2-elf/4.1.2/../../../../nios2-elf/lib\libc.a(lib_a-mallocr.o)
 .debug_pubnames
                0x00000cd3       0x1d c:/altera/13.0/nios2eds/bin/gnu/h-i686-mingw32/bin/../lib/gcc/nios2-elf/4.1.2/../../../../nios2-elf/lib\libc.a(lib_a-memcpy.o)
 .debug_pubnames
                0x00000cf0       0x1e c:/altera/13.0/nios2eds/bin/gnu/h-i686-mingw32/bin/../lib/gcc/nios2-elf/4.1.2/../../../../nios2-elf/lib\libc.a(lib_a-memmove.o)
 .debug_pubnames
                0x00000d0e       0x1d c:/altera/13.0/nios2eds/bin/gnu/h-i686-mingw32/bin/../lib/gcc/nios2-elf/4.1.2/../../../../nios2-elf/lib\libc.a(lib_a-memset.o)
 .debug_pubnames
                0x00000d2b       0x1e c:/altera/13.0/nios2eds/bin/gnu/h-i686-mingw32/bin/../lib/gcc/nios2-elf/4.1.2/../../../../nios2-elf/lib\libc.a(lib_a-openr.o)
 .debug_pubnames
                0x00000d49       0x2b c:/altera/13.0/nios2eds/bin/gnu/h-i686-mingw32/bin/../lib/gcc/nios2-elf/4.1.2/../../../../nios2-elf/lib\libc.a(lib_a-perror.o)
 .debug_pubnames
                0x00000d74       0x2b c:/altera/13.0/nios2eds/bin/gnu/h-i686-mingw32/bin/../lib/gcc/nios2-elf/4.1.2/../../../../nios2-elf/lib\libc.a(lib_a-printf.o)
 .debug_pubnames
                0x00000d9f       0x27 c:/altera/13.0/nios2eds/bin/gnu/h-i686-mingw32/bin/../lib/gcc/nios2-elf/4.1.2/../../../../nios2-elf/lib\libc.a(lib_a-putc.o)
 .debug_pubnames
                0x00000dc6       0x2d c:/altera/13.0/nios2eds/bin/gnu/h-i686-mingw32/bin/../lib/gcc/nios2-elf/4.1.2/../../../../nios2-elf/lib\libc.a(lib_a-putchar.o)
 .debug_pubnames
                0x00000df3       0x27 c:/altera/13.0/nios2eds/bin/gnu/h-i686-mingw32/bin/../lib/gcc/nios2-elf/4.1.2/../../../../nios2-elf/lib\libc.a(lib_a-puts.o)
 .debug_pubnames
                0x00000e1a       0x22 c:/altera/13.0/nios2eds/bin/gnu/h-i686-mingw32/bin/../lib/gcc/nios2-elf/4.1.2/../../../../nios2-elf/lib\libc.a(lib_a-refill.o)
 .debug_pubnames
                0x00000e3c       0x2c c:/altera/13.0/nios2eds/bin/gnu/h-i686-mingw32/bin/../lib/gcc/nios2-elf/4.1.2/../../../../nios2-elf/lib\libc.a(lib_a-rget.o)
 .debug_pubnames
                0x00000e68       0x1e c:/altera/13.0/nios2eds/bin/gnu/h-i686-mingw32/bin/../lib/gcc/nios2-elf/4.1.2/../../../../nios2-elf/lib\libc.a(lib_a-sbrkr.o)
 .debug_pubnames
                0x00000e86       0x2d c:/altera/13.0/nios2eds/bin/gnu/h-i686-mingw32/bin/../lib/gcc/nios2-elf/4.1.2/../../../../nios2-elf/lib\libc.a(lib_a-sprintf.o)
 .debug_pubnames
                0x00000eb3       0x2b c:/altera/13.0/nios2eds/bin/gnu/h-i686-mingw32/bin/../lib/gcc/nios2-elf/4.1.2/../../../../nios2-elf/lib\libc.a(lib_a-sscanf.o)
 .debug_pubnames
                0x00000ede       0x44 c:/altera/13.0/nios2eds/bin/gnu/h-i686-mingw32/bin/../lib/gcc/nios2-elf/4.1.2/../../../../nios2-elf/lib\libc.a(lib_a-stdio.o)
 .debug_pubnames
                0x00000f22       0x21 c:/altera/13.0/nios2eds/bin/gnu/h-i686-mingw32/bin/../lib/gcc/nios2-elf/4.1.2/../../../../nios2-elf/lib\libc.a(lib_a-strcasecmp.o)
 .debug_pubnames
                0x00000f43       0x1d c:/altera/13.0/nios2eds/bin/gnu/h-i686-mingw32/bin/../lib/gcc/nios2-elf/4.1.2/../../../../nios2-elf/lib\libc.a(lib_a-strcat.o)
 .debug_pubnames
                0x00000f60       0x1d c:/altera/13.0/nios2eds/bin/gnu/h-i686-mingw32/bin/../lib/gcc/nios2-elf/4.1.2/../../../../nios2-elf/lib\libc.a(lib_a-strchr.o)
 .debug_pubnames
                0x00000f7d       0x1d c:/altera/13.0/nios2eds/bin/gnu/h-i686-mingw32/bin/../lib/gcc/nios2-elf/4.1.2/../../../../nios2-elf/lib\libc.a(lib_a-strcmp.o)
 .debug_pubnames
                0x00000f9a       0x1d c:/altera/13.0/nios2eds/bin/gnu/h-i686-mingw32/bin/../lib/gcc/nios2-elf/4.1.2/../../../../nios2-elf/lib\libc.a(lib_a-strcpy.o)
 .debug_pubnames
                0x00000fb7       0x1f c:/altera/13.0/nios2eds/bin/gnu/h-i686-mingw32/bin/../lib/gcc/nios2-elf/4.1.2/../../../../nios2-elf/lib\libc.a(lib_a-strerror.o)
 .debug_pubnames
                0x00000fd6       0x1d c:/altera/13.0/nios2eds/bin/gnu/h-i686-mingw32/bin/../lib/gcc/nios2-elf/4.1.2/../../../../nios2-elf/lib\libc.a(lib_a-strlen.o)
 .debug_pubnames
                0x00000ff3       0x1e c:/altera/13.0/nios2eds/bin/gnu/h-i686-mingw32/bin/../lib/gcc/nios2-elf/4.1.2/../../../../nios2-elf/lib\libc.a(lib_a-strncmp.o)
 .debug_pubnames
                0x00001011       0x1e c:/altera/13.0/nios2eds/bin/gnu/h-i686-mingw32/bin/../lib/gcc/nios2-elf/4.1.2/../../../../nios2-elf/lib\libc.a(lib_a-strncpy.o)
 .debug_pubnames
                0x0000102f       0x1d c:/altera/13.0/nios2eds/bin/gnu/h-i686-mingw32/bin/../lib/gcc/nios2-elf/4.1.2/../../../../nios2-elf/lib\libc.a(lib_a-strstr.o)
 .debug_pubnames
                0x0000104c       0x1d c:/altera/13.0/nios2eds/bin/gnu/h-i686-mingw32/bin/../lib/gcc/nios2-elf/4.1.2/../../../../nios2-elf/lib\libc.a(lib_a-strtok.o)
 .debug_pubnames
                0x00001069       0x2e c:/altera/13.0/nios2eds/bin/gnu/h-i686-mingw32/bin/../lib/gcc/nios2-elf/4.1.2/../../../../nios2-elf/lib\libc.a(lib_a-strtok_r.o)
 .debug_pubnames
                0x00001097       0x2b c:/altera/13.0/nios2eds/bin/gnu/h-i686-mingw32/bin/../lib/gcc/nios2-elf/4.1.2/../../../../nios2-elf/lib\libc.a(lib_a-strtol.o)
 .debug_pubnames
                0x000010c2       0x25 c:/altera/13.0/nios2eds/bin/gnu/h-i686-mingw32/bin/../lib/gcc/nios2-elf/4.1.2/../../../../nios2-elf/lib\libc.a(lib_a-u_strerr.o)
 .debug_pubnames
                0x000010e7       0x45 c:/altera/13.0/nios2eds/bin/gnu/h-i686-mingw32/bin/../lib/gcc/nios2-elf/4.1.2/../../../../nios2-elf/lib\libc.a(lib_a-vfprintf.o)
 .debug_pubnames
                0x0000112c       0x4d c:/altera/13.0/nios2eds/bin/gnu/h-i686-mingw32/bin/../lib/gcc/nios2-elf/4.1.2/../../../../nios2-elf/lib\libc.a(lib_a-vfscanf.o)
 .debug_pubnames
                0x00001179       0x2c c:/altera/13.0/nios2eds/bin/gnu/h-i686-mingw32/bin/../lib/gcc/nios2-elf/4.1.2/../../../../nios2-elf/lib\libc.a(lib_a-wbuf.o)
 .debug_pubnames
                0x000011a5       0x1f c:/altera/13.0/nios2eds/bin/gnu/h-i686-mingw32/bin/../lib/gcc/nios2-elf/4.1.2/../../../../nios2-elf/lib\libc.a(lib_a-writer.o)
 .debug_pubnames
                0x000011c4       0x22 c:/altera/13.0/nios2eds/bin/gnu/h-i686-mingw32/bin/../lib/gcc/nios2-elf/4.1.2/../../../../nios2-elf/lib\libc.a(lib_a-wsetup.o)
 .debug_pubnames
                0x000011e6       0x1f c:/altera/13.0/nios2eds/bin/gnu/h-i686-mingw32/bin/../lib/gcc/nios2-elf/4.1.2/../../../../nios2-elf/lib\libc.a(lib_a-closer.o)
 .debug_pubnames
                0x00001205       0x1e c:/altera/13.0/nios2eds/bin/gnu/h-i686-mingw32/bin/../lib/gcc/nios2-elf/4.1.2/../../../../nios2-elf/lib\libc.a(lib_a-dtoa.o)
 .debug_pubnames
                0x00001223       0x1f c:/altera/13.0/nios2eds/bin/gnu/h-i686-mingw32/bin/../lib/gcc/nios2-elf/4.1.2/../../../../nios2-elf/lib\libc.a(lib_a-flags.o)
 .debug_pubnames
                0x00001242       0x29 c:/altera/13.0/nios2eds/bin/gnu/h-i686-mingw32/bin/../lib/gcc/nios2-elf/4.1.2/../../../../nios2-elf/lib\libc.a(lib_a-fputc.o)
 .debug_pubnames
                0x0000126b       0x29 c:/altera/13.0/nios2eds/bin/gnu/h-i686-mingw32/bin/../lib/gcc/nios2-elf/4.1.2/../../../../nios2-elf/lib\libc.a(lib_a-fputs.o)
 .debug_pubnames
                0x00001294       0x23 c:/altera/13.0/nios2eds/bin/gnu/h-i686-mingw32/bin/../lib/gcc/nios2-elf/4.1.2/../../../../nios2-elf/lib\libc.a(lib_a-fvwrite.o)
 .debug_pubnames
                0x000012b7       0x20 c:/altera/13.0/nios2eds/bin/gnu/h-i686-mingw32/bin/../lib/gcc/nios2-elf/4.1.2/../../../../nios2-elf/lib\libc.a(lib_a-isattyr.o)
 .debug_pubnames
                0x000012d7       0x1f c:/altera/13.0/nios2eds/bin/gnu/h-i686-mingw32/bin/../lib/gcc/nios2-elf/4.1.2/../../../../nios2-elf/lib\libc.a(lib_a-iswspace.o)
 .debug_pubnames
                0x000012f6       0xc3 c:/altera/13.0/nios2eds/bin/gnu/h-i686-mingw32/bin/../lib/gcc/nios2-elf/4.1.2/../../../../nios2-elf/lib\libc.a(lib_a-locale.o)
 .debug_pubnames
                0x000013b9       0x1f c:/altera/13.0/nios2eds/bin/gnu/h-i686-mingw32/bin/../lib/gcc/nios2-elf/4.1.2/../../../../nios2-elf/lib\libc.a(lib_a-lseekr.o)
 .debug_pubnames
                0x000013d8       0x2d c:/altera/13.0/nios2eds/bin/gnu/h-i686-mingw32/bin/../lib/gcc/nios2-elf/4.1.2/../../../../nios2-elf/lib\libc.a(lib_a-mbrtowc.o)
 .debug_pubnames
                0x00001405       0x20 c:/altera/13.0/nios2eds/bin/gnu/h-i686-mingw32/bin/../lib/gcc/nios2-elf/4.1.2/../../../../nios2-elf/lib\libc.a(lib_a-mbtowc_r.o)
 .debug_pubnames
                0x00001425       0x1d c:/altera/13.0/nios2eds/bin/gnu/h-i686-mingw32/bin/../lib/gcc/nios2-elf/4.1.2/../../../../nios2-elf/lib\libc.a(lib_a-memchr.o)
 .debug_pubnames
                0x00001442       0x1d c:/altera/13.0/nios2eds/bin/gnu/h-i686-mingw32/bin/../lib/gcc/nios2-elf/4.1.2/../../../../nios2-elf/lib\libc.a(lib_a-memcmp.o)
 .debug_pubnames
                0x0000145f      0x13a c:/altera/13.0/nios2eds/bin/gnu/h-i686-mingw32/bin/../lib/gcc/nios2-elf/4.1.2/../../../../nios2-elf/lib\libc.a(lib_a-mprec.o)
 .debug_pubnames
                0x00001599       0x1e c:/altera/13.0/nios2eds/bin/gnu/h-i686-mingw32/bin/../lib/gcc/nios2-elf/4.1.2/../../../../nios2-elf/lib\libc.a(lib_a-readr.o)
 .debug_pubnames
                0x000015b7       0x21 c:/altera/13.0/nios2eds/bin/gnu/h-i686-mingw32/bin/../lib/gcc/nios2-elf/4.1.2/../../../../nios2-elf/lib\libc.a(lib_a-reallocr.o)
 .debug_pubnames
                0x000015d8       0x1f c:/altera/13.0/nios2eds/bin/gnu/h-i686-mingw32/bin/../lib/gcc/nios2-elf/4.1.2/../../../../nios2-elf/lib\libc.a(lib_a-s_isinfd.o)
 .debug_pubnames
                0x000015f7       0x1f c:/altera/13.0/nios2eds/bin/gnu/h-i686-mingw32/bin/../lib/gcc/nios2-elf/4.1.2/../../../../nios2-elf/lib\libc.a(lib_a-s_isnand.o)
 .debug_pubnames
                0x00001616       0x1d c:/altera/13.0/nios2eds/bin/gnu/h-i686-mingw32/bin/../lib/gcc/nios2-elf/4.1.2/../../../../nios2-elf/lib\libc.a(lib_a-sccl.o)
 .debug_pubnames
                0x00001633       0x1b c:/altera/13.0/nios2eds/bin/gnu/h-i686-mingw32/bin/../lib/gcc/nios2-elf/4.1.2/../../../../nios2-elf/lib\libc.a(lib_a-sf_nan.o)
 .debug_pubnames
                0x0000164e       0x36 c:/altera/13.0/nios2eds/bin/gnu/h-i686-mingw32/bin/../lib/gcc/nios2-elf/4.1.2/../../../../nios2-elf/lib\libc.a(lib_a-strtod.o)
 .debug_pubnames
                0x00001684       0x21 c:/altera/13.0/nios2eds/bin/gnu/h-i686-mingw32/bin/../lib/gcc/nios2-elf/4.1.2/../../../../nios2-elf/lib\libc.a(lib_a-strtoll_r.o)
 .debug_pubnames
                0x000016a5       0x2d c:/altera/13.0/nios2eds/bin/gnu/h-i686-mingw32/bin/../lib/gcc/nios2-elf/4.1.2/../../../../nios2-elf/lib\libc.a(lib_a-strtoul.o)
 .debug_pubnames
                0x000016d2       0x22 c:/altera/13.0/nios2eds/bin/gnu/h-i686-mingw32/bin/../lib/gcc/nios2-elf/4.1.2/../../../../nios2-elf/lib\libc.a(lib_a-strtoull_r.o)
 .debug_pubnames
                0x000016f4       0x39 c:/altera/13.0/nios2eds/bin/gnu/h-i686-mingw32/bin/../lib/gcc/nios2-elf/4.1.2/../../../../nios2-elf/lib\libc.a(lib_a-ungetc.o)
 .debug_pubnames
                0x0000172d       0x20 c:/altera/13.0/nios2eds/bin/gnu/h-i686-mingw32/bin/../lib/gcc/nios2-elf/4.1.2/../../../../nios2-elf/lib\libc.a(lib_a-callocr.o)
 .debug_pubnames
                0x0000174d       0x3e c:/altera/13.0/nios2eds/bin/gnu/h-i686-mingw32/bin/../lib/gcc/nios2-elf/4.1.2/../../../../nios2-elf/lib\libc.a(lib_a-gdtoa-gethex.o)
 .debug_pubnames
                0x0000178b       0x1f c:/altera/13.0/nios2eds/bin/gnu/h-i686-mingw32/bin/../lib/gcc/nios2-elf/4.1.2/../../../../nios2-elf/lib\libc.a(lib_a-gdtoa-hexnan.o)
 .debug_pubnames
                0x000017aa       0x20 c:/altera/13.0/nios2eds/bin/gnu/h-i686-mingw32/bin/../lib/gcc/nios2-elf/4.1.2\libgcc.a(_udivdi3.o)
 .debug_pubnames
                0x000017ca       0x20 c:/altera/13.0/nios2eds/bin/gnu/h-i686-mingw32/bin/../lib/gcc/nios2-elf/4.1.2\libgcc.a(_umoddi3.o)
 .debug_pubnames
                0x000017ea       0x1e c:/altera/13.0/nios2eds/bin/gnu/h-i686-mingw32/bin/../lib/gcc/nios2-elf/4.1.2\libgcc.a(_ne_sf.o)
 .debug_pubnames
                0x00001808       0x1e c:/altera/13.0/nios2eds/bin/gnu/h-i686-mingw32/bin/../lib/gcc/nios2-elf/4.1.2\libgcc.a(_gt_sf.o)
 .debug_pubnames
                0x00001826       0x1e c:/altera/13.0/nios2eds/bin/gnu/h-i686-mingw32/bin/../lib/gcc/nios2-elf/4.1.2\libgcc.a(_lt_sf.o)
 .debug_pubnames
                0x00001844       0x1f c:/altera/13.0/nios2eds/bin/gnu/h-i686-mingw32/bin/../lib/gcc/nios2-elf/4.1.2\libgcc.a(_div_df.o)
 .debug_pubnames
                0x00001863       0x1e c:/altera/13.0/nios2eds/bin/gnu/h-i686-mingw32/bin/../lib/gcc/nios2-elf/4.1.2\libgcc.a(_eq_df.o)
 .debug_pubnames
                0x00001881       0x1e c:/altera/13.0/nios2eds/bin/gnu/h-i686-mingw32/bin/../lib/gcc/nios2-elf/4.1.2\libgcc.a(_ne_df.o)
 .debug_pubnames
                0x0000189f       0x1e c:/altera/13.0/nios2eds/bin/gnu/h-i686-mingw32/bin/../lib/gcc/nios2-elf/4.1.2\libgcc.a(_gt_df.o)
 .debug_pubnames
                0x000018bd       0x1e c:/altera/13.0/nios2eds/bin/gnu/h-i686-mingw32/bin/../lib/gcc/nios2-elf/4.1.2\libgcc.a(_lt_df.o)
 .debug_pubnames
                0x000018db       0x1e c:/altera/13.0/nios2eds/bin/gnu/h-i686-mingw32/bin/../lib/gcc/nios2-elf/4.1.2\libgcc.a(_le_df.o)
 .debug_pubnames
                0x000018f9       0x22 c:/altera/13.0/nios2eds/bin/gnu/h-i686-mingw32/bin/../lib/gcc/nios2-elf/4.1.2\libgcc.a(_si_to_df.o)
 .debug_pubnames
                0x0000191b       0x23 c:/altera/13.0/nios2eds/bin/gnu/h-i686-mingw32/bin/../lib/gcc/nios2-elf/4.1.2\libgcc.a(_df_to_sf.o)
 .debug_pubnames
                0x0000193e       0x21 c:/altera/13.0/nios2eds/bin/gnu/h-i686-mingw32/bin/../lib/gcc/nios2-elf/4.1.2\libgcc.a(_unpack_sf.o)
 .debug_pubnames
                0x0000195f       0x26 c:/altera/13.0/nios2eds/bin/gnu/h-i686-mingw32/bin/../lib/gcc/nios2-elf/4.1.2\libgcc.a(_fpcmp_parts_sf.o)
 .debug_pubnames
                0x00001985       0x20 c:/altera/13.0/nios2eds/bin/gnu/h-i686-mingw32/bin/../lib/gcc/nios2-elf/4.1.2\libgcc.a(_make_sf.o)
 .debug_pubnames
                0x000019a5       0x1f c:/altera/13.0/nios2eds/bin/gnu/h-i686-mingw32/bin/../lib/gcc/nios2-elf/4.1.2\libgcc.a(_pack_sf.o)
 .debug_pubnames
                0x000019c4       0x27 ../WebServer_bsp/\libucosii_bsp.a(alt_dcache_flush.o)
 .debug_pubnames
                0x000019eb       0x58 ../WebServer_bsp/\libucosii_bsp.a(alt_flash_dev.o)
 .debug_pubnames
                0x00001a43       0x1c ../WebServer_bsp/\libucosii_bsp.a(alt_fstat.o)
 .debug_pubnames
                0x00001a5f       0x27 ../WebServer_bsp/\libucosii_bsp.a(alt_irq_register.o)
 .debug_pubnames
                0x00001a86       0x3b ../WebServer_bsp/\libucosii_bsp.a(alt_irq_vars.o)
 .debug_pubnames
                0x00001ac1       0x1d ../WebServer_bsp/\libucosii_bsp.a(alt_isatty.o)
 .debug_pubnames
                0x00001ade       0x1c ../WebServer_bsp/\libucosii_bsp.a(alt_lseek.o)
 .debug_pubnames
                0x00001afa       0x46 ../WebServer_bsp/\libucosii_bsp.a(alt_main.o)
 .debug_pubnames
                0x00001b40       0x1b ../WebServer_bsp/\libucosii_bsp.a(alt_open.o)
 .debug_pubnames
                0x00001b5b       0x25 ../WebServer_bsp/\libucosii_bsp.a(alt_release_fd.o)
 .debug_pubnames
                0x00001b80       0x1b ../WebServer_bsp/\libucosii_bsp.a(alt_sbrk.o)
 .debug_pubnames
                0x00001b9b       0x68 ../WebServer_bsp/\libucosii_bsp.a(alt_tick.o)
 .debug_pubnames
                0x00001c03       0x1d ../WebServer_bsp/\libucosii_bsp.a(alt_usleep.o)
 .debug_pubnames
                0x00001c20       0x41 ../WebServer_bsp/\libucosii_bsp.a(alt_env_lock.o)
 .debug_pubnames
                0x00001c61       0x48 ../WebServer_bsp/\libucosii_bsp.a(alt_malloc_lock.o)
 .debug_pubnames
                0x00001ca9      0x3f8 ../WebServer_bsp/\libucosii_bsp.a(os_core.o)
 .debug_pubnames
                0x000020a1      0x3c5 ../WebServer_bsp/\libucosii_bsp.a(os_dbg.o)
 .debug_pubnames
                0x00002466       0xd0 ../WebServer_bsp/\libucosii_bsp.a(os_flag.o)
 .debug_pubnames
                0x00002536       0x96 ../WebServer_bsp/\libucosii_bsp.a(os_mbox.o)
 .debug_pubnames
                0x000025cc       0x7c ../WebServer_bsp/\libucosii_bsp.a(os_mem.o)
 .debug_pubnames
                0x00002648       0xa9 ../WebServer_bsp/\libucosii_bsp.a(os_q.o)
 .debug_pubnames
                0x000026f1       0x8a ../WebServer_bsp/\libucosii_bsp.a(os_sem.o)
 .debug_pubnames
                0x0000277b       0xe5 ../WebServer_bsp/\libucosii_bsp.a(os_task.o)
 .debug_pubnames
                0x00002860       0x62 ../WebServer_bsp/\libucosii_bsp.a(os_time.o)
 .debug_pubnames
                0x000028c2       0x34 ../WebServer_bsp/\libucosii_bsp.a(alt_sys_init.o)
 .debug_pubnames
                0x000028f6       0xac ../WebServer_bsp/\libucosii_bsp.a(altera_avalon_cfi_flash.o)
 .debug_pubnames
                0x000029a2      0x27a ../WebServer_bsp/\libucosii_bsp.a(altera_avalon_cfi_flash_table.o)
 .debug_pubnames
                0x00002c1c       0xb5 ../WebServer_bsp/\libucosii_bsp.a(altera_avalon_epcs_flash_controller.o)
 .debug_pubnames
                0x00002cd1       0xa5 ../WebServer_bsp/\libucosii_bsp.a(altera_avalon_jtag_uart_fd.o)
 .debug_pubnames
                0x00002d76       0x55 ../WebServer_bsp/\libucosii_bsp.a(altera_avalon_jtag_uart_init.o)
 .debug_pubnames
                0x00002dcb       0x34 ../WebServer_bsp/\libucosii_bsp.a(altera_avalon_jtag_uart_ioctl.o)
 .debug_pubnames
                0x00002dff       0x33 ../WebServer_bsp/\libucosii_bsp.a(altera_avalon_jtag_uart_read.o)
 .debug_pubnames
                0x00002e32       0x34 ../WebServer_bsp/\libucosii_bsp.a(altera_avalon_jtag_uart_write.o)
 .debug_pubnames
                0x00002e66       0x55 ../WebServer_bsp/\libucosii_bsp.a(altera_avalon_lcd_16207.o)
 .debug_pubnames
                0x00002ebb       0x37 ../WebServer_bsp/\libucosii_bsp.a(altera_avalon_lcd_16207_fd.o)
 .debug_pubnames
                0x00002ef2       0x2f ../WebServer_bsp/\libucosii_bsp.a(altera_avalon_timer_sc.o)
 .debug_pubnames
                0x00002f21       0x71 ../WebServer_bsp/\libucosii_bsp.a(altera_avalon_uart_fd.o)
 .debug_pubnames
                0x00002f92       0x4b ../WebServer_bsp/\libucosii_bsp.a(altera_avalon_uart_init.o)
 .debug_pubnames
                0x00002fdd       0x2e ../WebServer_bsp/\libucosii_bsp.a(altera_avalon_uart_read.o)
 .debug_pubnames
                0x0000300b       0x2f ../WebServer_bsp/\libucosii_bsp.a(altera_avalon_uart_write.o)
 .debug_pubnames
                0x0000303a       0xa3 ../WebServer_bsp/\libucosii_bsp.a(altera_ro_zipfs.o)
 .debug_pubnames
                0x000030dd      0x118 ../WebServer_bsp/\libucosii_bsp.a(epcs_commands.o)
 .debug_pubnames
                0x000031f5       0x1c ../WebServer_bsp/\libucosii_bsp.a(alt_iniche_close.o)
 .debug_pubnames
                0x00003211       0x42 ../WebServer_bsp/\libucosii_bsp.a(alt_iniche_dev.o)
 .debug_pubnames
                0x00003253       0x1b ../WebServer_bsp/\libucosii_bsp.a(alt_iniche_read.o)
 .debug_pubnames
                0x0000326e       0x1c ../WebServer_bsp/\libucosii_bsp.a(alt_iniche_write.o)
 .debug_pubnames
                0x0000328a       0x90 ../WebServer_bsp/\libucosii_bsp.a(ipnet.o)
 .debug_pubnames
                0x0000331a       0x81 ../WebServer_bsp/\libucosii_bsp.a(ipstart.o)
 .debug_pubnames
                0x0000339b      0x108 ../WebServer_bsp/\libucosii_bsp.a(igmp_cmn.o)
 .debug_pubnames
                0x000034a3       0xc4 ../WebServer_bsp/\libucosii_bsp.a(bsdsock.o)
 .debug_pubnames
                0x00003567       0x27 ../WebServer_bsp/\libucosii_bsp.a(cksum.o)
 .debug_pubnames
                0x0000358e       0xcc ../WebServer_bsp/\libucosii_bsp.a(in_utils.o)
 .debug_pubnames
                0x0000365a       0xb2 ../WebServer_bsp/\libucosii_bsp.a(netmain.o)
 .debug_pubnames
                0x0000370c       0x97 ../WebServer_bsp/\libucosii_bsp.a(tk_crnos.o)
 .debug_pubnames
                0x000037a3      0x252 ../WebServer_bsp/\libucosii_bsp.a(dhcpclnt.o)
 .debug_pubnames
                0x000039f5       0x1f ../WebServer_bsp/\libucosii_bsp.a(dhcputil.o)
 .debug_pubnames
                0x00003a14       0xe2 ../WebServer_bsp/\libucosii_bsp.a(pktalloc.o)
 .debug_pubnames
                0x00003af6       0x2d ../WebServer_bsp/\libucosii_bsp.a(q.o)
 .debug_pubnames
                0x00003b23       0x3a ../WebServer_bsp/\libucosii_bsp.a(udp_open.o)
 .debug_pubnames
                0x00003b5d       0xc5 ../WebServer_bsp/\libucosii_bsp.a(brdutils.o)
 .debug_pubnames
                0x00003c22      0x10c ../WebServer_bsp/\libucosii_bsp.a(osportco.o)
 .debug_pubnames
                0x00003d2e       0xf5 ../WebServer_bsp/\libucosii_bsp.a(targnios.o)
 .debug_pubnames
                0x00003e23      0x190 ../WebServer_bsp/\libucosii_bsp.a(nptcp.o)
 .debug_pubnames
                0x00003fb3       0x46 ../WebServer_bsp/\libucosii_bsp.a(rawsock.o)
 .debug_pubnames
                0x00003ff9      0x108 ../WebServer_bsp/\libucosii_bsp.a(sockcall.o)
 .debug_pubnames
                0x00004101       0xfc ../WebServer_bsp/\libucosii_bsp.a(socket.o)
 .debug_pubnames
                0x000041fd      0x178 ../WebServer_bsp/\libucosii_bsp.a(socket2.o)
 .debug_pubnames
                0x00004375       0x92 ../WebServer_bsp/\libucosii_bsp.a(soselect.o)
 .debug_pubnames
                0x00004407       0xc2 ../WebServer_bsp/\libucosii_bsp.a(tcp_in.o)
 .debug_pubnames
                0x000044c9       0x57 ../WebServer_bsp/\libucosii_bsp.a(tcp_out.o)
 .debug_pubnames
                0x00004520       0xb9 ../WebServer_bsp/\libucosii_bsp.a(tcp_subr.o)
 .debug_pubnames
                0x000045d9       0x96 ../WebServer_bsp/\libucosii_bsp.a(tcp_timr.o)
 .debug_pubnames
                0x0000466f       0x79 ../WebServer_bsp/\libucosii_bsp.a(tcp_usr.o)
 .debug_pubnames
                0x000046e8       0x1e ../WebServer_bsp/\libucosii_bsp.a(tcpport.o)
 .debug_pubnames
                0x00004706       0x76 ../WebServer_bsp/\libucosii_bsp.a(udpsock.o)
 .debug_pubnames
                0x0000477c       0x26 ../WebServer_bsp/\libucosii_bsp.a(alt_alarm_start.o)
 .debug_pubnames
                0x000047a2       0x25 ../WebServer_bsp/\libucosii_bsp.a(alt_busy_sleep.o)
 .debug_pubnames
                0x000047c7       0x20 ../WebServer_bsp/\libucosii_bsp.a(alt_close.o)
 .debug_pubnames
                0x000047e7       0x78 ../WebServer_bsp/\libucosii_bsp.a(alt_dev.o)
 .debug_pubnames
                0x0000485f       0x2b ../WebServer_bsp/\libucosii_bsp.a(alt_dev_llist_insert.o)
 .debug_pubnames
                0x0000488a       0x20 ../WebServer_bsp/\libucosii_bsp.a(alt_do_ctors.o)
 .debug_pubnames
                0x000048aa       0x20 ../WebServer_bsp/\libucosii_bsp.a(alt_do_dtors.o)
 .debug_pubnames
                0x000048ca       0x20 ../WebServer_bsp/\libucosii_bsp.a(alt_errno.o)
 .debug_pubnames
                0x000048ea       0x23 ../WebServer_bsp/\libucosii_bsp.a(alt_find_dev.o)
 .debug_pubnames
                0x0000490d       0x24 ../WebServer_bsp/\libucosii_bsp.a(alt_find_file.o)
 .debug_pubnames
                0x00004931       0x21 ../WebServer_bsp/\libucosii_bsp.a(alt_fs_reg.o)
 .debug_pubnames
                0x00004952       0x21 ../WebServer_bsp/\libucosii_bsp.a(alt_get_fd.o)
 .debug_pubnames
                0x00004973       0x6e ../WebServer_bsp/\libucosii_bsp.a(alt_iic.o)
 .debug_pubnames
                0x000049e1       0x2b ../WebServer_bsp/\libucosii_bsp.a(alt_iic_isr_register.o)
 .debug_pubnames
                0x00004a0c       0x26 ../WebServer_bsp/\libucosii_bsp.a(alt_io_redirect.o)
 .debug_pubnames
                0x00004a32       0x32 ../WebServer_bsp/\libucosii_bsp.a(alt_irq_handler.o)
 .debug_pubnames
                0x00004a64       0x1f ../WebServer_bsp/\libucosii_bsp.a(alt_read.o)
 .debug_pubnames
                0x00004a83       0x27 ../WebServer_bsp/\libucosii_bsp.a(alt_remap_cached.o)
 .debug_pubnames
                0x00004aaa       0x29 ../WebServer_bsp/\libucosii_bsp.a(alt_remap_uncached.o)
 .debug_pubnames
                0x00004ad3       0x20 ../WebServer_bsp/\libucosii_bsp.a(alt_write.o)
 .debug_pubnames
                0x00004af3       0x31 ../WebServer_bsp/\libucosii_bsp.a(altera_nios2_qsys_irq.o)
 .debug_pubnames
                0x00004b24       0xcd ../WebServer_bsp/\libucosii_bsp.a(os_cpu_c.o)
 .debug_pubnames
                0x00004bf1       0x3e ../WebServer_bsp/\libucosii_bsp.a(altera_avalon_cfi_flash_amd.o)
 .debug_pubnames
                0x00004c2f       0x42 ../WebServer_bsp/\libucosii_bsp.a(altera_avalon_cfi_flash_intel.o)
 .debug_pubnames
                0x00004c71       0x2d ../WebServer_bsp/\libucosii_bsp.a(altera_avalon_spi.o)
 .debug_pubnames
                0x00004c9e       0xd4 ../WebServer_bsp/\libucosii_bsp.a(allports.o)
 .debug_pubnames
                0x00004d72       0x6f ../WebServer_bsp/\libucosii_bsp.a(timeouts.o)
 .debug_pubnames
                0x00004de1       0x35 ../WebServer_bsp/\libucosii_bsp.a(tk_misc.o)
 .debug_pubnames
                0x00004e16       0x1c ../WebServer_bsp/\libucosii_bsp.a(alt_iniche_fcntl.o)
 .debug_pubnames
                0x00004e32      0x134 ../WebServer_bsp/\libucosii_bsp.a(et_arp.o)
 .debug_pubnames
                0x00004f66       0x58 ../WebServer_bsp/\libucosii_bsp.a(iface.o)
 .debug_pubnames
                0x00004fbe       0xea ../WebServer_bsp/\libucosii_bsp.a(ip.o)
 .debug_pubnames
                0x000050a8      0x22e ../WebServer_bsp/\libucosii_bsp.a(ip_reasm.o)
 .debug_pubnames
                0x000052d6       0x3c ../WebServer_bsp/\libucosii_bsp.a(ipdemux.o)
 .debug_pubnames
                0x00005312       0x43 ../WebServer_bsp/\libucosii_bsp.a(ipmc.o)
 .debug_pubnames
                0x00005355       0x99 ../WebServer_bsp/\libucosii_bsp.a(ipport.o)
 .debug_pubnames
                0x000053ee       0x87 ../WebServer_bsp/\libucosii_bsp.a(ipraw.o)
 .debug_pubnames
                0x00005475       0x5d ../WebServer_bsp/\libucosii_bsp.a(iproute.o)
 .debug_pubnames
                0x000054d2       0x7f ../WebServer_bsp/\libucosii_bsp.a(udp.o)
 .debug_pubnames
                0x00005551       0x23 ../WebServer_bsp/\libucosii_bsp.a(igmp.o)
 .debug_pubnames
                0x00005574       0x8d ../WebServer_bsp/\libucosii_bsp.a(igmp2.o)
 .debug_pubnames
                0x00005601       0x5f ../WebServer_bsp/\libucosii_bsp.a(ipopt.o)
 .debug_pubnames
                0x00005660       0x35 ../WebServer_bsp/\libucosii_bsp.a(u_mctest.o)
 .debug_pubnames
                0x00005695       0x33 ../WebServer_bsp/\libucosii_bsp.a(dhcsetup.o)
 .debug_pubnames
                0x000056c8       0xb1 ../WebServer_bsp/\libucosii_bsp.a(memdev.o)
 .debug_pubnames
                0x00005779       0xa6 ../WebServer_bsp/\libucosii_bsp.a(parseip.o)
 .debug_pubnames
                0x0000581f       0x20 ../WebServer_bsp/\libucosii_bsp.a(tcpcksum.o)
 .debug_pubnames
                0x0000583f       0xc8 ../WebServer_bsp/\libucosii_bsp.a(in_pcb.o)
 .debug_pubnames
                0x00005907      0x278 ../WebServer_bsp/\libucosii_bsp.a(vfsfiles.o)
 .debug_pubnames
                0x00005b7f       0x1f ../WebServer_bsp/\libucosii_bsp.a(vfsport.o)
 .debug_pubnames
                0x00005b9e       0x20 ../WebServer_bsp/\libucosii_bsp.a(alt_fcntl.o)
 .debug_pubnames
                0x00005bbe       0x66 ../WebServer_bsp/\libucosii_bsp.a(icmp.o)
 .debug_pubnames
                0x00005c24       0x2a c:/altera/13.0/nios2eds/bin/gnu/h-i686-mingw32/bin/../lib/gcc/nios2-elf/4.1.2/../../../../nios2-elf/lib\libc.a(lib_a-atexit.o)
 .debug_pubnames
                0x00005c4e       0x1d c:/altera/13.0/nios2eds/bin/gnu/h-i686-mingw32/bin/../lib/gcc/nios2-elf/4.1.2/../../../../nios2-elf/lib\libc.a(lib_a-calloc.o)
 .debug_pubnames
                0x00005c6b       0x1b c:/altera/13.0/nios2eds/bin/gnu/h-i686-mingw32/bin/../lib/gcc/nios2-elf/4.1.2/../../../../nios2-elf/lib\libc.a(lib_a-exit.o)
 .debug_pubnames
                0x00005c86       0x26 c:/altera/13.0/nios2eds/bin/gnu/h-i686-mingw32/bin/../lib/gcc/nios2-elf/4.1.2/../../../../nios2-elf/lib\libc.a(lib_a-malloc.o)
 .debug_pubnames
                0x00005cac       0x2d c:/altera/13.0/nios2eds/bin/gnu/h-i686-mingw32/bin/../lib/gcc/nios2-elf/4.1.2/../../../../nios2-elf/lib\libc.a(lib_a-vprintf.o)
 .debug_pubnames
                0x00005cd9       0x2f c:/altera/13.0/nios2eds/bin/gnu/h-i686-mingw32/bin/../lib/gcc/nios2-elf/4.1.2/../../../../nios2-elf/lib\libc.a(lib_a-vsprintf.o)
 .debug_pubnames
                0x00005d08       0x2a c:/altera/13.0/nios2eds/bin/gnu/h-i686-mingw32/bin/../lib/gcc/nios2-elf/4.1.2/../../../../nios2-elf/lib\libc.a(lib_a-__atexit.o)
 .debug_pubnames
                0x00005d32       0x27 c:/altera/13.0/nios2eds/bin/gnu/h-i686-mingw32/bin/../lib/gcc/nios2-elf/4.1.2/../../../../nios2-elf/lib\libc.a(lib_a-__call_atexit.o)
 .debug_pubnames
                0x00005d59       0x1c ../WebServer_bsp/\libucosii_bsp.a(alt_exit.o)

.debug_info     0x00000000    0x8ff32
 *(.debug_info .gnu.linkonce.wi.*)
 .debug_info    0x00000000       0x86 ../WebServer_bsp//obj/HAL/src/crt0.o
 .debug_info    0x00000086      0xce7 obj/default/alt_error_handler.o
 .debug_info    0x00000d6d     0x1262 obj/default/dm9000a.o
 .debug_info    0x00001fcf     0x1e98 obj/default/http.o
 .debug_info    0x00003e67     0x1d0b obj/default/network_utilities.o
 .debug_info    0x00005b72      0xa61 obj/default/srec_flash.o
 .debug_info    0x000065d3     0x1ae8 obj/default/web_server.o
 .debug_info    0x000080bb       0xce c:/altera/13.0/nios2eds/bin/gnu/h-i686-mingw32/bin/../lib/gcc/nios2-elf/4.1.2\libgcc.a(_fixunsdfsi.o)
 .debug_info    0x00008189      0x493 c:/altera/13.0/nios2eds/bin/gnu/h-i686-mingw32/bin/../lib/gcc/nios2-elf/4.1.2\libgcc.a(_addsub_df.o)
 .debug_info    0x0000861c      0x488 c:/altera/13.0/nios2eds/bin/gnu/h-i686-mingw32/bin/../lib/gcc/nios2-elf/4.1.2\libgcc.a(_mul_df.o)
 .debug_info    0x00008aa4      0x29d c:/altera/13.0/nios2eds/bin/gnu/h-i686-mingw32/bin/../lib/gcc/nios2-elf/4.1.2\libgcc.a(_ge_df.o)
 .debug_info    0x00008d41      0x2cd c:/altera/13.0/nios2eds/bin/gnu/h-i686-mingw32/bin/../lib/gcc/nios2-elf/4.1.2\libgcc.a(_df_to_si.o)
 .debug_info    0x0000900e      0x164 c:/altera/13.0/nios2eds/bin/gnu/h-i686-mingw32/bin/../lib/gcc/nios2-elf/4.1.2\libgcc.a(_thenan_df.o)
 .debug_info    0x00009172      0x213 c:/altera/13.0/nios2eds/bin/gnu/h-i686-mingw32/bin/../lib/gcc/nios2-elf/4.1.2\libgcc.a(_usi_to_df.o)
 .debug_info    0x00009385      0x21c c:/altera/13.0/nios2eds/bin/gnu/h-i686-mingw32/bin/../lib/gcc/nios2-elf/4.1.2\libgcc.a(lib2-divmod.o)
 .debug_info    0x000095a1      0x215 c:/altera/13.0/nios2eds/bin/gnu/h-i686-mingw32/bin/../lib/gcc/nios2-elf/4.1.2\libgcc.a(_muldi3.o)
 .debug_info    0x000097b6      0x130 c:/altera/13.0/nios2eds/bin/gnu/h-i686-mingw32/bin/../lib/gcc/nios2-elf/4.1.2\libgcc.a(_clzsi2.o)
 .debug_info    0x000098e6      0x2fc c:/altera/13.0/nios2eds/bin/gnu/h-i686-mingw32/bin/../lib/gcc/nios2-elf/4.1.2\libgcc.a(_pack_df.o)
 .debug_info    0x00009be2      0x268 c:/altera/13.0/nios2eds/bin/gnu/h-i686-mingw32/bin/../lib/gcc/nios2-elf/4.1.2\libgcc.a(_unpack_df.o)
 .debug_info    0x00009e4a      0x21b c:/altera/13.0/nios2eds/bin/gnu/h-i686-mingw32/bin/../lib/gcc/nios2-elf/4.1.2\libgcc.a(_fpcmp_parts_df.o)
 .debug_info    0x0000a065       0xc9 c:/altera/13.0/nios2eds/bin/gnu/h-i686-mingw32/bin/../lib/gcc/nios2-elf/4.1.2\libgcc.a(_clz.o)
 .debug_info    0x0000a12e      0x960 c:/altera/13.0/nios2eds/bin/gnu/h-i686-mingw32/bin/../lib/gcc/nios2-elf/4.1.2/../../../../nios2-elf/lib\libc.a(lib_a-atoi.o)
 .debug_info    0x0000aa8e       0xa0 c:/altera/13.0/nios2eds/bin/gnu/h-i686-mingw32/bin/../lib/gcc/nios2-elf/4.1.2/../../../../nios2-elf/lib\libc.a(lib_a-ctype_.o)
 .debug_info    0x0000ab2e      0x994 c:/altera/13.0/nios2eds/bin/gnu/h-i686-mingw32/bin/../lib/gcc/nios2-elf/4.1.2/../../../../nios2-elf/lib\libc.a(lib_a-fclose.o)
 .debug_info    0x0000b4c2      0x9fe c:/altera/13.0/nios2eds/bin/gnu/h-i686-mingw32/bin/../lib/gcc/nios2-elf/4.1.2/../../../../nios2-elf/lib\libc.a(lib_a-fflush.o)
 .debug_info    0x0000bec0      0x9ab c:/altera/13.0/nios2eds/bin/gnu/h-i686-mingw32/bin/../lib/gcc/nios2-elf/4.1.2/../../../../nios2-elf/lib\libc.a(lib_a-fgetpos.o)
 .debug_info    0x0000c86b      0xb72 c:/altera/13.0/nios2eds/bin/gnu/h-i686-mingw32/bin/../lib/gcc/nios2-elf/4.1.2/../../../../nios2-elf/lib\libc.a(lib_a-findfp.o)
 .debug_info    0x0000d3dd      0x9e0 c:/altera/13.0/nios2eds/bin/gnu/h-i686-mingw32/bin/../lib/gcc/nios2-elf/4.1.2/../../../../nios2-elf/lib\libc.a(lib_a-fopen.o)
 .debug_info    0x0000ddbd      0x9e1 c:/altera/13.0/nios2eds/bin/gnu/h-i686-mingw32/bin/../lib/gcc/nios2-elf/4.1.2/../../../../nios2-elf/lib\libc.a(lib_a-fprintf.o)
 .debug_info    0x0000e79e      0xa77 c:/altera/13.0/nios2eds/bin/gnu/h-i686-mingw32/bin/../lib/gcc/nios2-elf/4.1.2/../../../../nios2-elf/lib\libc.a(lib_a-fread.o)
 .debug_info    0x0000f215      0xbc9 c:/altera/13.0/nios2eds/bin/gnu/h-i686-mingw32/bin/../lib/gcc/nios2-elf/4.1.2/../../../../nios2-elf/lib\libc.a(lib_a-freer.o)
 .debug_info    0x0000fdde      0xbdc c:/altera/13.0/nios2eds/bin/gnu/h-i686-mingw32/bin/../lib/gcc/nios2-elf/4.1.2/../../../../nios2-elf/lib\libc.a(lib_a-fseek.o)
 .debug_info    0x000109ba      0xafc c:/altera/13.0/nios2eds/bin/gnu/h-i686-mingw32/bin/../lib/gcc/nios2-elf/4.1.2/../../../../nios2-elf/lib\libc.a(lib_a-fstatr.o)
 .debug_info    0x000114b6      0x996 c:/altera/13.0/nios2eds/bin/gnu/h-i686-mingw32/bin/../lib/gcc/nios2-elf/4.1.2/../../../../nios2-elf/lib\libc.a(lib_a-ftell.o)
 .debug_info    0x00011e4c      0xaed c:/altera/13.0/nios2eds/bin/gnu/h-i686-mingw32/bin/../lib/gcc/nios2-elf/4.1.2/../../../../nios2-elf/lib\libc.a(lib_a-fwalk.o)
 .debug_info    0x00012939      0xa83 c:/altera/13.0/nios2eds/bin/gnu/h-i686-mingw32/bin/../lib/gcc/nios2-elf/4.1.2/../../../../nios2-elf/lib\libc.a(lib_a-fwrite.o)
 .debug_info    0x000133bc      0x9a7 c:/altera/13.0/nios2eds/bin/gnu/h-i686-mingw32/bin/../lib/gcc/nios2-elf/4.1.2/../../../../nios2-elf/lib\libc.a(lib_a-getc.o)
 .debug_info    0x00013d63      0x93d c:/altera/13.0/nios2eds/bin/gnu/h-i686-mingw32/bin/../lib/gcc/nios2-elf/4.1.2/../../../../nios2-elf/lib\libc.a(lib_a-impure.o)
 .debug_info    0x000146a0       0x8c c:/altera/13.0/nios2eds/bin/gnu/h-i686-mingw32/bin/../lib/gcc/nios2-elf/4.1.2/../../../../nios2-elf/lib\libc.a(lib_a-int_errno.o)
 .debug_info    0x0001472c      0xb1a c:/altera/13.0/nios2eds/bin/gnu/h-i686-mingw32/bin/../lib/gcc/nios2-elf/4.1.2/../../../../nios2-elf/lib\libc.a(lib_a-makebuf.o)
 .debug_info    0x00015246      0xcd0 c:/altera/13.0/nios2eds/bin/gnu/h-i686-mingw32/bin/../lib/gcc/nios2-elf/4.1.2/../../../../nios2-elf/lib\libc.a(lib_a-mallocr.o)
 .debug_info    0x00015f16      0x106 c:/altera/13.0/nios2eds/bin/gnu/h-i686-mingw32/bin/../lib/gcc/nios2-elf/4.1.2/../../../../nios2-elf/lib\libc.a(lib_a-memcpy.o)
 .debug_info    0x0001601c      0x13e c:/altera/13.0/nios2eds/bin/gnu/h-i686-mingw32/bin/../lib/gcc/nios2-elf/4.1.2/../../../../nios2-elf/lib\libc.a(lib_a-memmove.o)
 .debug_info    0x0001615a      0x113 c:/altera/13.0/nios2eds/bin/gnu/h-i686-mingw32/bin/../lib/gcc/nios2-elf/4.1.2/../../../../nios2-elf/lib\libc.a(lib_a-memset.o)
 .debug_info    0x0001626d      0x977 c:/altera/13.0/nios2eds/bin/gnu/h-i686-mingw32/bin/../lib/gcc/nios2-elf/4.1.2/../../../../nios2-elf/lib\libc.a(lib_a-openr.o)
 .debug_info    0x00016be4      0x97b c:/altera/13.0/nios2eds/bin/gnu/h-i686-mingw32/bin/../lib/gcc/nios2-elf/4.1.2/../../../../nios2-elf/lib\libc.a(lib_a-perror.o)
 .debug_info    0x0001755f      0x9d1 c:/altera/13.0/nios2eds/bin/gnu/h-i686-mingw32/bin/../lib/gcc/nios2-elf/4.1.2/../../../../nios2-elf/lib\libc.a(lib_a-printf.o)
 .debug_info    0x00017f30      0x9c1 c:/altera/13.0/nios2eds/bin/gnu/h-i686-mingw32/bin/../lib/gcc/nios2-elf/4.1.2/../../../../nios2-elf/lib\libc.a(lib_a-putc.o)
 .debug_info    0x000188f1      0x972 c:/altera/13.0/nios2eds/bin/gnu/h-i686-mingw32/bin/../lib/gcc/nios2-elf/4.1.2/../../../../nios2-elf/lib\libc.a(lib_a-putchar.o)
 .debug_info    0x00019263      0xa25 c:/altera/13.0/nios2eds/bin/gnu/h-i686-mingw32/bin/../lib/gcc/nios2-elf/4.1.2/../../../../nios2-elf/lib\libc.a(lib_a-puts.o)
 .debug_info    0x00019c88      0x98b c:/altera/13.0/nios2eds/bin/gnu/h-i686-mingw32/bin/../lib/gcc/nios2-elf/4.1.2/../../../../nios2-elf/lib\libc.a(lib_a-refill.o)
 .debug_info    0x0001a613      0x987 c:/altera/13.0/nios2eds/bin/gnu/h-i686-mingw32/bin/../lib/gcc/nios2-elf/4.1.2/../../../../nios2-elf/lib\libc.a(lib_a-rget.o)
 .debug_info    0x0001af9a      0x962 c:/altera/13.0/nios2eds/bin/gnu/h-i686-mingw32/bin/../lib/gcc/nios2-elf/4.1.2/../../../../nios2-elf/lib\libc.a(lib_a-sbrkr.o)
 .debug_info    0x0001b8fc      0xa16 c:/altera/13.0/nios2eds/bin/gnu/h-i686-mingw32/bin/../lib/gcc/nios2-elf/4.1.2/../../../../nios2-elf/lib\libc.a(lib_a-sprintf.o)
 .debug_info    0x0001c312      0xa6a c:/altera/13.0/nios2eds/bin/gnu/h-i686-mingw32/bin/../lib/gcc/nios2-elf/4.1.2/../../../../nios2-elf/lib\libc.a(lib_a-sscanf.o)
 .debug_info    0x0001cd7c      0xaac c:/altera/13.0/nios2eds/bin/gnu/h-i686-mingw32/bin/../lib/gcc/nios2-elf/4.1.2/../../../../nios2-elf/lib\libc.a(lib_a-stdio.o)
 .debug_info    0x0001d828      0x13a c:/altera/13.0/nios2eds/bin/gnu/h-i686-mingw32/bin/../lib/gcc/nios2-elf/4.1.2/../../../../nios2-elf/lib\libc.a(lib_a-strcasecmp.o)
 .debug_info    0x0001d962       0xed c:/altera/13.0/nios2eds/bin/gnu/h-i686-mingw32/bin/../lib/gcc/nios2-elf/4.1.2/../../../../nios2-elf/lib\libc.a(lib_a-strcat.o)
 .debug_info    0x0001da4f      0x118 c:/altera/13.0/nios2eds/bin/gnu/h-i686-mingw32/bin/../lib/gcc/nios2-elf/4.1.2/../../../../nios2-elf/lib\libc.a(lib_a-strchr.o)
 .debug_info    0x0001db67       0xdd c:/altera/13.0/nios2eds/bin/gnu/h-i686-mingw32/bin/../lib/gcc/nios2-elf/4.1.2/../../../../nios2-elf/lib\libc.a(lib_a-strcmp.o)
 .debug_info    0x0001dc44      0x110 c:/altera/13.0/nios2eds/bin/gnu/h-i686-mingw32/bin/../lib/gcc/nios2-elf/4.1.2/../../../../nios2-elf/lib\libc.a(lib_a-strcpy.o)
 .debug_info    0x0001dd54       0xbb c:/altera/13.0/nios2eds/bin/gnu/h-i686-mingw32/bin/../lib/gcc/nios2-elf/4.1.2/../../../../nios2-elf/lib\libc.a(lib_a-strerror.o)
 .debug_info    0x0001de0f       0xdb c:/altera/13.0/nios2eds/bin/gnu/h-i686-mingw32/bin/../lib/gcc/nios2-elf/4.1.2/../../../../nios2-elf/lib\libc.a(lib_a-strlen.o)
 .debug_info    0x0001deea       0xf5 c:/altera/13.0/nios2eds/bin/gnu/h-i686-mingw32/bin/../lib/gcc/nios2-elf/4.1.2/../../../../nios2-elf/lib\libc.a(lib_a-strncmp.o)
 .debug_info    0x0001dfdf      0x12a c:/altera/13.0/nios2eds/bin/gnu/h-i686-mingw32/bin/../lib/gcc/nios2-elf/4.1.2/../../../../nios2-elf/lib\libc.a(lib_a-strncpy.o)
 .debug_info    0x0001e109      0x3d1 c:/altera/13.0/nios2eds/bin/gnu/h-i686-mingw32/bin/../lib/gcc/nios2-elf/4.1.2/../../../../nios2-elf/lib\libc.a(lib_a-strstr.o)
 .debug_info    0x0001e4da      0x949 c:/altera/13.0/nios2eds/bin/gnu/h-i686-mingw32/bin/../lib/gcc/nios2-elf/4.1.2/../../../../nios2-elf/lib\libc.a(lib_a-strtok.o)
 .debug_info    0x0001ee23      0x15e c:/altera/13.0/nios2eds/bin/gnu/h-i686-mingw32/bin/../lib/gcc/nios2-elf/4.1.2/../../../../nios2-elf/lib\libc.a(lib_a-strtok_r.o)
 .debug_info    0x0001ef81      0xa2a c:/altera/13.0/nios2eds/bin/gnu/h-i686-mingw32/bin/../lib/gcc/nios2-elf/4.1.2/../../../../nios2-elf/lib\libc.a(lib_a-strtol.o)
 .debug_info    0x0001f9ab       0x63 c:/altera/13.0/nios2eds/bin/gnu/h-i686-mingw32/bin/../lib/gcc/nios2-elf/4.1.2/../../../../nios2-elf/lib\libc.a(lib_a-u_strerr.o)
 .debug_info    0x0001fa0e     0x10d5 c:/altera/13.0/nios2eds/bin/gnu/h-i686-mingw32/bin/../lib/gcc/nios2-elf/4.1.2/../../../../nios2-elf/lib\libc.a(lib_a-vfprintf.o)
 .debug_info    0x00020ae3      0xe8c c:/altera/13.0/nios2eds/bin/gnu/h-i686-mingw32/bin/../lib/gcc/nios2-elf/4.1.2/../../../../nios2-elf/lib\libc.a(lib_a-vfscanf.o)
 .debug_info    0x0002196f      0x9ae c:/altera/13.0/nios2eds/bin/gnu/h-i686-mingw32/bin/../lib/gcc/nios2-elf/4.1.2/../../../../nios2-elf/lib\libc.a(lib_a-wbuf.o)
 .debug_info    0x0002231d      0x993 c:/altera/13.0/nios2eds/bin/gnu/h-i686-mingw32/bin/../lib/gcc/nios2-elf/4.1.2/../../../../nios2-elf/lib\libc.a(lib_a-writer.o)
 .debug_info    0x00022cb0      0x95d c:/altera/13.0/nios2eds/bin/gnu/h-i686-mingw32/bin/../lib/gcc/nios2-elf/4.1.2/../../../../nios2-elf/lib\libc.a(lib_a-wsetup.o)
 .debug_info    0x0002360d      0x958 c:/altera/13.0/nios2eds/bin/gnu/h-i686-mingw32/bin/../lib/gcc/nios2-elf/4.1.2/../../../../nios2-elf/lib\libc.a(lib_a-closer.o)
 .debug_info    0x00023f65      0xd6f c:/altera/13.0/nios2eds/bin/gnu/h-i686-mingw32/bin/../lib/gcc/nios2-elf/4.1.2/../../../../nios2-elf/lib\libc.a(lib_a-dtoa.o)
 .debug_info    0x00024cd4      0x977 c:/altera/13.0/nios2eds/bin/gnu/h-i686-mingw32/bin/../lib/gcc/nios2-elf/4.1.2/../../../../nios2-elf/lib\libc.a(lib_a-flags.o)
 .debug_info    0x0002564b      0x9bd c:/altera/13.0/nios2eds/bin/gnu/h-i686-mingw32/bin/../lib/gcc/nios2-elf/4.1.2/../../../../nios2-elf/lib\libc.a(lib_a-fputc.o)
 .debug_info    0x00026008      0xa40 c:/altera/13.0/nios2eds/bin/gnu/h-i686-mingw32/bin/../lib/gcc/nios2-elf/4.1.2/../../../../nios2-elf/lib\libc.a(lib_a-fputs.o)
 .debug_info    0x00026a48      0xa88 c:/altera/13.0/nios2eds/bin/gnu/h-i686-mingw32/bin/../lib/gcc/nios2-elf/4.1.2/../../../../nios2-elf/lib\libc.a(lib_a-fvwrite.o)
 .debug_info    0x000274d0      0x958 c:/altera/13.0/nios2eds/bin/gnu/h-i686-mingw32/bin/../lib/gcc/nios2-elf/4.1.2/../../../../nios2-elf/lib\libc.a(lib_a-isattyr.o)
 .debug_info    0x00027e28       0xed c:/altera/13.0/nios2eds/bin/gnu/h-i686-mingw32/bin/../lib/gcc/nios2-elf/4.1.2/../../../../nios2-elf/lib\libc.a(lib_a-iswspace.o)
 .debug_info    0x00027f15      0xb97 c:/altera/13.0/nios2eds/bin/gnu/h-i686-mingw32/bin/../lib/gcc/nios2-elf/4.1.2/../../../../nios2-elf/lib\libc.a(lib_a-locale.o)
 .debug_info    0x00028aac      0x981 c:/altera/13.0/nios2eds/bin/gnu/h-i686-mingw32/bin/../lib/gcc/nios2-elf/4.1.2/../../../../nios2-elf/lib\libc.a(lib_a-lseekr.o)
 .debug_info    0x0002942d      0xa07 c:/altera/13.0/nios2eds/bin/gnu/h-i686-mingw32/bin/../lib/gcc/nios2-elf/4.1.2/../../../../nios2-elf/lib\libc.a(lib_a-mbrtowc.o)
 .debug_info    0x00029e34      0x9a2 c:/altera/13.0/nios2eds/bin/gnu/h-i686-mingw32/bin/../lib/gcc/nios2-elf/4.1.2/../../../../nios2-elf/lib\libc.a(lib_a-mbtowc_r.o)
 .debug_info    0x0002a7d6      0x138 c:/altera/13.0/nios2eds/bin/gnu/h-i686-mingw32/bin/../lib/gcc/nios2-elf/4.1.2/../../../../nios2-elf/lib\libc.a(lib_a-memchr.o)
 .debug_info    0x0002a90e      0x115 c:/altera/13.0/nios2eds/bin/gnu/h-i686-mingw32/bin/../lib/gcc/nios2-elf/4.1.2/../../../../nios2-elf/lib\libc.a(lib_a-memcmp.o)
 .debug_info    0x0002aa23     0x1437 c:/altera/13.0/nios2eds/bin/gnu/h-i686-mingw32/bin/../lib/gcc/nios2-elf/4.1.2/../../../../nios2-elf/lib\libc.a(lib_a-mprec.o)
 .debug_info    0x0002be5a      0x98c c:/altera/13.0/nios2eds/bin/gnu/h-i686-mingw32/bin/../lib/gcc/nios2-elf/4.1.2/../../../../nios2-elf/lib\libc.a(lib_a-readr.o)
 .debug_info    0x0002c7e6      0xbd7 c:/altera/13.0/nios2eds/bin/gnu/h-i686-mingw32/bin/../lib/gcc/nios2-elf/4.1.2/../../../../nios2-elf/lib\libc.a(lib_a-reallocr.o)
 .debug_info    0x0002d3bd       0xd7 c:/altera/13.0/nios2eds/bin/gnu/h-i686-mingw32/bin/../lib/gcc/nios2-elf/4.1.2/../../../../nios2-elf/lib\libc.a(lib_a-s_isinfd.o)
 .debug_info    0x0002d494       0xd5 c:/altera/13.0/nios2eds/bin/gnu/h-i686-mingw32/bin/../lib/gcc/nios2-elf/4.1.2/../../../../nios2-elf/lib\libc.a(lib_a-s_isnand.o)
 .debug_info    0x0002d569       0xfb c:/altera/13.0/nios2eds/bin/gnu/h-i686-mingw32/bin/../lib/gcc/nios2-elf/4.1.2/../../../../nios2-elf/lib\libc.a(lib_a-sccl.o)
 .debug_info    0x0002d664       0xc8 c:/altera/13.0/nios2eds/bin/gnu/h-i686-mingw32/bin/../lib/gcc/nios2-elf/4.1.2/../../../../nios2-elf/lib\libc.a(lib_a-sf_nan.o)
 .debug_info    0x0002d72c      0xecc c:/altera/13.0/nios2eds/bin/gnu/h-i686-mingw32/bin/../lib/gcc/nios2-elf/4.1.2/../../../../nios2-elf/lib\libc.a(lib_a-strtod.o)
 .debug_info    0x0002e5f8      0x9d5 c:/altera/13.0/nios2eds/bin/gnu/h-i686-mingw32/bin/../lib/gcc/nios2-elf/4.1.2/../../../../nios2-elf/lib\libc.a(lib_a-strtoll_r.o)
 .debug_info    0x0002efcd      0xa22 c:/altera/13.0/nios2eds/bin/gnu/h-i686-mingw32/bin/../lib/gcc/nios2-elf/4.1.2/../../../../nios2-elf/lib\libc.a(lib_a-strtoul.o)
 .debug_info    0x0002f9ef      0x9cd c:/altera/13.0/nios2eds/bin/gnu/h-i686-mingw32/bin/../lib/gcc/nios2-elf/4.1.2/../../../../nios2-elf/lib\libc.a(lib_a-strtoull_r.o)
 .debug_info    0x000303bc      0x9f6 c:/altera/13.0/nios2eds/bin/gnu/h-i686-mingw32/bin/../lib/gcc/nios2-elf/4.1.2/../../../../nios2-elf/lib\libc.a(lib_a-ungetc.o)
 .debug_info    0x00030db2      0xa1b c:/altera/13.0/nios2eds/bin/gnu/h-i686-mingw32/bin/../lib/gcc/nios2-elf/4.1.2/../../../../nios2-elf/lib\libc.a(lib_a-callocr.o)
 .debug_info    0x000317cd      0xccb c:/altera/13.0/nios2eds/bin/gnu/h-i686-mingw32/bin/../lib/gcc/nios2-elf/4.1.2/../../../../nios2-elf/lib\libc.a(lib_a-gdtoa-gethex.o)
 .debug_info    0x00032498      0x23e c:/altera/13.0/nios2eds/bin/gnu/h-i686-mingw32/bin/../lib/gcc/nios2-elf/4.1.2/../../../../nios2-elf/lib\libc.a(lib_a-gdtoa-hexnan.o)
 .debug_info    0x000326d6      0x724 c:/altera/13.0/nios2eds/bin/gnu/h-i686-mingw32/bin/../lib/gcc/nios2-elf/4.1.2\libgcc.a(_udivdi3.o)
 .debug_info    0x00032dfa      0x751 c:/altera/13.0/nios2eds/bin/gnu/h-i686-mingw32/bin/../lib/gcc/nios2-elf/4.1.2\libgcc.a(_umoddi3.o)
 .debug_info    0x0003354b      0x290 c:/altera/13.0/nios2eds/bin/gnu/h-i686-mingw32/bin/../lib/gcc/nios2-elf/4.1.2\libgcc.a(_ne_sf.o)
 .debug_info    0x000337db      0x290 c:/altera/13.0/nios2eds/bin/gnu/h-i686-mingw32/bin/../lib/gcc/nios2-elf/4.1.2\libgcc.a(_gt_sf.o)
 .debug_info    0x00033a6b      0x290 c:/altera/13.0/nios2eds/bin/gnu/h-i686-mingw32/bin/../lib/gcc/nios2-elf/4.1.2\libgcc.a(_lt_sf.o)
 .debug_info    0x00033cfb      0x39b c:/altera/13.0/nios2eds/bin/gnu/h-i686-mingw32/bin/../lib/gcc/nios2-elf/4.1.2\libgcc.a(_div_df.o)
 .debug_info    0x00034096      0x29d c:/altera/13.0/nios2eds/bin/gnu/h-i686-mingw32/bin/../lib/gcc/nios2-elf/4.1.2\libgcc.a(_eq_df.o)
 .debug_info    0x00034333      0x29d c:/altera/13.0/nios2eds/bin/gnu/h-i686-mingw32/bin/../lib/gcc/nios2-elf/4.1.2\libgcc.a(_ne_df.o)
 .debug_info    0x000345d0      0x29d c:/altera/13.0/nios2eds/bin/gnu/h-i686-mingw32/bin/../lib/gcc/nios2-elf/4.1.2\libgcc.a(_gt_df.o)
 .debug_info    0x0003486d      0x29d c:/altera/13.0/nios2eds/bin/gnu/h-i686-mingw32/bin/../lib/gcc/nios2-elf/4.1.2\libgcc.a(_lt_df.o)
 .debug_info    0x00034b0a      0x29d c:/altera/13.0/nios2eds/bin/gnu/h-i686-mingw32/bin/../lib/gcc/nios2-elf/4.1.2\libgcc.a(_le_df.o)
 .debug_info    0x00034da7      0x218 c:/altera/13.0/nios2eds/bin/gnu/h-i686-mingw32/bin/../lib/gcc/nios2-elf/4.1.2\libgcc.a(_si_to_df.o)
 .debug_info    0x00034fbf      0x261 c:/altera/13.0/nios2eds/bin/gnu/h-i686-mingw32/bin/../lib/gcc/nios2-elf/4.1.2\libgcc.a(_df_to_sf.o)
 .debug_info    0x00035220      0x25a c:/altera/13.0/nios2eds/bin/gnu/h-i686-mingw32/bin/../lib/gcc/nios2-elf/4.1.2\libgcc.a(_unpack_sf.o)
 .debug_info    0x0003547a      0x21f c:/altera/13.0/nios2eds/bin/gnu/h-i686-mingw32/bin/../lib/gcc/nios2-elf/4.1.2\libgcc.a(_fpcmp_parts_sf.o)
 .debug_info    0x00035699      0x1d7 c:/altera/13.0/nios2eds/bin/gnu/h-i686-mingw32/bin/../lib/gcc/nios2-elf/4.1.2\libgcc.a(_make_sf.o)
 .debug_info    0x00035870      0x2f2 c:/altera/13.0/nios2eds/bin/gnu/h-i686-mingw32/bin/../lib/gcc/nios2-elf/4.1.2\libgcc.a(_pack_sf.o)
 .debug_info    0x00035b62      0x1ab ../WebServer_bsp/\libucosii_bsp.a(alt_dcache_flush.o)
 .debug_info    0x00035d0d      0x5f4 ../WebServer_bsp/\libucosii_bsp.a(alt_flash_dev.o)
 .debug_info    0x00036301      0x6bb ../WebServer_bsp/\libucosii_bsp.a(alt_fstat.o)
 .debug_info    0x000369bc      0x471 ../WebServer_bsp/\libucosii_bsp.a(alt_irq_register.o)
 .debug_info    0x00036e2d      0x16e ../WebServer_bsp/\libucosii_bsp.a(alt_irq_vars.o)
 .debug_info    0x00036f9b      0x6c1 ../WebServer_bsp/\libucosii_bsp.a(alt_isatty.o)
 .debug_info    0x0003765c      0x4f5 ../WebServer_bsp/\libucosii_bsp.a(alt_lseek.o)
 .debug_info    0x00037b51      0x3e4 ../WebServer_bsp/\libucosii_bsp.a(alt_main.o)
 .debug_info    0x00037f35      0x571 ../WebServer_bsp/\libucosii_bsp.a(alt_open.o)
 .debug_info    0x000384a6      0x456 ../WebServer_bsp/\libucosii_bsp.a(alt_release_fd.o)
 .debug_info    0x000388fc      0x2be ../WebServer_bsp/\libucosii_bsp.a(alt_sbrk.o)
 .debug_info    0x00038bba      0x418 ../WebServer_bsp/\libucosii_bsp.a(alt_tick.o)
 .debug_info    0x00038fd2      0x23b ../WebServer_bsp/\libucosii_bsp.a(alt_usleep.o)
 .debug_info    0x0003920d     0x11da ../WebServer_bsp/\libucosii_bsp.a(alt_env_lock.o)
 .debug_info    0x0003a3e7     0x1336 ../WebServer_bsp/\libucosii_bsp.a(alt_malloc_lock.o)
 .debug_info    0x0003b71d     0x1bf0 ../WebServer_bsp/\libucosii_bsp.a(os_core.o)
 .debug_info    0x0003d30d     0x1135 ../WebServer_bsp/\libucosii_bsp.a(os_dbg.o)
 .debug_info    0x0003e442     0x124b ../WebServer_bsp/\libucosii_bsp.a(os_flag.o)
 .debug_info    0x0003f68d      0xd47 ../WebServer_bsp/\libucosii_bsp.a(os_mbox.o)
 .debug_info    0x000403d4      0x815 ../WebServer_bsp/\libucosii_bsp.a(os_mem.o)
 .debug_info    0x00040be9     0x1085 ../WebServer_bsp/\libucosii_bsp.a(os_q.o)
 .debug_info    0x00041c6e      0xced ../WebServer_bsp/\libucosii_bsp.a(os_sem.o)
 .debug_info    0x0004295b     0x1363 ../WebServer_bsp/\libucosii_bsp.a(os_task.o)
 .debug_info    0x00043cbe      0x9e7 ../WebServer_bsp/\libucosii_bsp.a(os_time.o)
 .debug_info    0x000446a5     0x1326 ../WebServer_bsp/\libucosii_bsp.a(alt_sys_init.o)
 .debug_info    0x000459cb      0xb50 ../WebServer_bsp/\libucosii_bsp.a(altera_avalon_cfi_flash.o)
 .debug_info    0x0004651b      0xe3c ../WebServer_bsp/\libucosii_bsp.a(altera_avalon_cfi_flash_table.o)
 .debug_info    0x00047357      0xbb0 ../WebServer_bsp/\libucosii_bsp.a(altera_avalon_epcs_flash_controller.o)
 .debug_info    0x00047f07      0x9d9 ../WebServer_bsp/\libucosii_bsp.a(altera_avalon_jtag_uart_fd.o)
 .debug_info    0x000488e0      0x957 ../WebServer_bsp/\libucosii_bsp.a(altera_avalon_jtag_uart_init.o)
 .debug_info    0x00049237      0x643 ../WebServer_bsp/\libucosii_bsp.a(altera_avalon_jtag_uart_ioctl.o)
 .debug_info    0x0004987a      0x7ff ../WebServer_bsp/\libucosii_bsp.a(altera_avalon_jtag_uart_read.o)
 .debug_info    0x0004a079      0x7f6 ../WebServer_bsp/\libucosii_bsp.a(altera_avalon_jtag_uart_write.o)
 .debug_info    0x0004a86f      0xaa5 ../WebServer_bsp/\libucosii_bsp.a(altera_avalon_lcd_16207.o)
 .debug_info    0x0004b314      0x83d ../WebServer_bsp/\libucosii_bsp.a(altera_avalon_lcd_16207_fd.o)
 .debug_info    0x0004bb51      0x392 ../WebServer_bsp/\libucosii_bsp.a(altera_avalon_timer_sc.o)
 .debug_info    0x0004bee3      0x879 ../WebServer_bsp/\libucosii_bsp.a(altera_avalon_uart_fd.o)
 .debug_info    0x0004c75c      0x845 ../WebServer_bsp/\libucosii_bsp.a(altera_avalon_uart_init.o)
 .debug_info    0x0004cfa1      0x7c7 ../WebServer_bsp/\libucosii_bsp.a(altera_avalon_uart_read.o)
 .debug_info    0x0004d768      0x7b6 ../WebServer_bsp/\libucosii_bsp.a(altera_avalon_uart_write.o)
 .debug_info    0x0004df1e      0xf25 ../WebServer_bsp/\libucosii_bsp.a(altera_ro_zipfs.o)
 .debug_info    0x0004ee43      0x643 ../WebServer_bsp/\libucosii_bsp.a(epcs_commands.o)
 .debug_info    0x0004f486      0x1bd ../WebServer_bsp/\libucosii_bsp.a(alt_iniche_close.o)
 .debug_info    0x0004f643      0xb64 ../WebServer_bsp/\libucosii_bsp.a(alt_iniche_dev.o)
 .debug_info    0x000501a7      0x1e7 ../WebServer_bsp/\libucosii_bsp.a(alt_iniche_read.o)
 .debug_info    0x0005038e      0x1ee ../WebServer_bsp/\libucosii_bsp.a(alt_iniche_write.o)
 .debug_info    0x0005057c      0xc50 ../WebServer_bsp/\libucosii_bsp.a(ipnet.o)
 .debug_info    0x000511cc      0xba3 ../WebServer_bsp/\libucosii_bsp.a(ipstart.o)
 .debug_info    0x00051d6f     0x1537 ../WebServer_bsp/\libucosii_bsp.a(igmp_cmn.o)
 .debug_info    0x000532a6     0x1467 ../WebServer_bsp/\libucosii_bsp.a(bsdsock.o)
 .debug_info    0x0005470d      0x259 ../WebServer_bsp/\libucosii_bsp.a(cksum.o)
 .debug_info    0x00054966      0x74b ../WebServer_bsp/\libucosii_bsp.a(in_utils.o)
 .debug_info    0x000550b1      0x565 ../WebServer_bsp/\libucosii_bsp.a(netmain.o)
 .debug_info    0x00055616      0x972 ../WebServer_bsp/\libucosii_bsp.a(tk_crnos.o)
 .debug_info    0x00055f88     0x1600 ../WebServer_bsp/\libucosii_bsp.a(dhcpclnt.o)
 .debug_info    0x00057588      0x1e3 ../WebServer_bsp/\libucosii_bsp.a(dhcputil.o)
 .debug_info    0x0005776b      0xcaf ../WebServer_bsp/\libucosii_bsp.a(pktalloc.o)
 .debug_info    0x0005841a      0x2f3 ../WebServer_bsp/\libucosii_bsp.a(q.o)
 .debug_info    0x0005870d      0xb2e ../WebServer_bsp/\libucosii_bsp.a(udp_open.o)
 .debug_info    0x0005923b       0x94 ../WebServer_bsp/\libucosii_bsp.a(asm_cksum.o)
 .debug_info    0x000592cf      0xeb4 ../WebServer_bsp/\libucosii_bsp.a(brdutils.o)
 .debug_info    0x0005a183      0x6e6 ../WebServer_bsp/\libucosii_bsp.a(osportco.o)
 .debug_info    0x0005a869      0x663 ../WebServer_bsp/\libucosii_bsp.a(targnios.o)
 .debug_info    0x0005aecc     0x252a ../WebServer_bsp/\libucosii_bsp.a(nptcp.o)
 .debug_info    0x0005d3f6     0x11e2 ../WebServer_bsp/\libucosii_bsp.a(rawsock.o)
 .debug_info    0x0005e5d8     0x1ca0 ../WebServer_bsp/\libucosii_bsp.a(sockcall.o)
 .debug_info    0x00060278     0x1aa6 ../WebServer_bsp/\libucosii_bsp.a(socket.o)
 .debug_info    0x00061d1e     0x156c ../WebServer_bsp/\libucosii_bsp.a(socket2.o)
 .debug_info    0x0006328a     0x1285 ../WebServer_bsp/\libucosii_bsp.a(soselect.o)
 .debug_info    0x0006450f     0x2137 ../WebServer_bsp/\libucosii_bsp.a(tcp_in.o)
 .debug_info    0x00066646     0x1e26 ../WebServer_bsp/\libucosii_bsp.a(tcp_out.o)
 .debug_info    0x0006846c     0x1e8e ../WebServer_bsp/\libucosii_bsp.a(tcp_subr.o)
 .debug_info    0x0006a2fa     0x1ca9 ../WebServer_bsp/\libucosii_bsp.a(tcp_timr.o)
 .debug_info    0x0006bfa3     0x1c66 ../WebServer_bsp/\libucosii_bsp.a(tcp_usr.o)
 .debug_info    0x0006dc09      0x1b9 ../WebServer_bsp/\libucosii_bsp.a(tcpport.o)
 .debug_info    0x0006ddc2     0x133c ../WebServer_bsp/\libucosii_bsp.a(udpsock.o)
 .debug_info    0x0006f0fe      0x449 ../WebServer_bsp/\libucosii_bsp.a(alt_alarm_start.o)
 .debug_info    0x0006f547      0x1b2 ../WebServer_bsp/\libucosii_bsp.a(alt_busy_sleep.o)
 .debug_info    0x0006f6f9      0x4c6 ../WebServer_bsp/\libucosii_bsp.a(alt_close.o)
 .debug_info    0x0006fbbf      0x7e4 ../WebServer_bsp/\libucosii_bsp.a(alt_dev.o)
 .debug_info    0x000703a3      0x2be ../WebServer_bsp/\libucosii_bsp.a(alt_dev_llist_insert.o)
 .debug_info    0x00070661      0x116 ../WebServer_bsp/\libucosii_bsp.a(alt_do_ctors.o)
 .debug_info    0x00070777      0x115 ../WebServer_bsp/\libucosii_bsp.a(alt_do_dtors.o)
 .debug_info    0x0007088c      0x16b ../WebServer_bsp/\libucosii_bsp.a(alt_errno.o)
 .debug_info    0x000709f7      0x473 ../WebServer_bsp/\libucosii_bsp.a(alt_find_dev.o)
 .debug_info    0x00070e6a      0x47a ../WebServer_bsp/\libucosii_bsp.a(alt_find_file.o)
 .debug_info    0x000712e4      0x48b ../WebServer_bsp/\libucosii_bsp.a(alt_fs_reg.o)
 .debug_info    0x0007176f      0x60c ../WebServer_bsp/\libucosii_bsp.a(alt_get_fd.o)
 .debug_info    0x00071d7b      0x49a ../WebServer_bsp/\libucosii_bsp.a(alt_iic.o)
 .debug_info    0x00072215      0x31b ../WebServer_bsp/\libucosii_bsp.a(alt_iic_isr_register.o)
 .debug_info    0x00072530      0x6f0 ../WebServer_bsp/\libucosii_bsp.a(alt_io_redirect.o)
 .debug_info    0x00072c20       0x8b ../WebServer_bsp/\libucosii_bsp.a(alt_irq_entry.o)
 .debug_info    0x00072cab      0x2c1 ../WebServer_bsp/\libucosii_bsp.a(alt_irq_handler.o)
 .debug_info    0x00072f6c      0x6e9 ../WebServer_bsp/\libucosii_bsp.a(alt_read.o)
 .debug_info    0x00073655      0x198 ../WebServer_bsp/\libucosii_bsp.a(alt_remap_cached.o)
 .debug_info    0x000737ed      0x19c ../WebServer_bsp/\libucosii_bsp.a(alt_remap_uncached.o)
 .debug_info    0x00073989      0x6f2 ../WebServer_bsp/\libucosii_bsp.a(alt_write.o)
 .debug_info    0x0007407b      0x16a ../WebServer_bsp/\libucosii_bsp.a(altera_nios2_qsys_irq.o)
 .debug_info    0x000741e5       0x8a ../WebServer_bsp/\libucosii_bsp.a(os_cpu_a.o)
 .debug_info    0x0007426f     0x12da ../WebServer_bsp/\libucosii_bsp.a(os_cpu_c.o)
 .debug_info    0x00075549      0x8f0 ../WebServer_bsp/\libucosii_bsp.a(altera_avalon_cfi_flash_amd.o)
 .debug_info    0x00075e39      0x8e6 ../WebServer_bsp/\libucosii_bsp.a(altera_avalon_cfi_flash_intel.o)
 .debug_info    0x0007671f      0x2b0 ../WebServer_bsp/\libucosii_bsp.a(altera_avalon_spi.o)
 .debug_info    0x000769cf      0xda6 ../WebServer_bsp/\libucosii_bsp.a(allports.o)
 .debug_info    0x00077775      0x3c8 ../WebServer_bsp/\libucosii_bsp.a(timeouts.o)
 .debug_info    0x00077b3d      0x227 ../WebServer_bsp/\libucosii_bsp.a(tk_misc.o)
 .debug_info    0x00077d64      0x214 ../WebServer_bsp/\libucosii_bsp.a(alt_iniche_fcntl.o)
 .debug_info    0x00077f78     0x1280 ../WebServer_bsp/\libucosii_bsp.a(et_arp.o)
 .debug_info    0x000791f8      0xf9e ../WebServer_bsp/\libucosii_bsp.a(iface.o)
 .debug_info    0x0007a196     0x170b ../WebServer_bsp/\libucosii_bsp.a(ip.o)
 .debug_info    0x0007b8a1     0x186f ../WebServer_bsp/\libucosii_bsp.a(ip_reasm.o)
 .debug_info    0x0007d110      0xdf0 ../WebServer_bsp/\libucosii_bsp.a(ipdemux.o)
 .debug_info    0x0007df00      0xa4c ../WebServer_bsp/\libucosii_bsp.a(ipmc.o)
 .debug_info    0x0007e94c      0x2ea ../WebServer_bsp/\libucosii_bsp.a(ipport.o)
 .debug_info    0x0007ec36      0xf5d ../WebServer_bsp/\libucosii_bsp.a(ipraw.o)
 .debug_info    0x0007fb93      0xf08 ../WebServer_bsp/\libucosii_bsp.a(iproute.o)
 .debug_info    0x00080a9b     0x129f ../WebServer_bsp/\libucosii_bsp.a(udp.o)
 .debug_info    0x00081d3a     0x1139 ../WebServer_bsp/\libucosii_bsp.a(igmp.o)
 .debug_info    0x00082e73     0x136d ../WebServer_bsp/\libucosii_bsp.a(igmp2.o)
 .debug_info    0x000841e0     0x10e8 ../WebServer_bsp/\libucosii_bsp.a(ipopt.o)
 .debug_info    0x000852c8      0xbc0 ../WebServer_bsp/\libucosii_bsp.a(u_mctest.o)
 .debug_info    0x00085e88      0xa5e ../WebServer_bsp/\libucosii_bsp.a(dhcsetup.o)
 .debug_info    0x000868e6      0x746 ../WebServer_bsp/\libucosii_bsp.a(memdev.o)
 .debug_info    0x0008702c      0x6f1 ../WebServer_bsp/\libucosii_bsp.a(parseip.o)
 .debug_info    0x0008771d      0x3eb ../WebServer_bsp/\libucosii_bsp.a(tcpcksum.o)
 .debug_info    0x00087b08     0x12ba ../WebServer_bsp/\libucosii_bsp.a(in_pcb.o)
 .debug_info    0x00088dc2      0xfeb ../WebServer_bsp/\libucosii_bsp.a(vfsfiles.o)
 .debug_info    0x00089dad      0x1ba ../WebServer_bsp/\libucosii_bsp.a(vfsport.o)
 .debug_info    0x00089f67       0x91 ../WebServer_bsp/\libucosii_bsp.a(alt_exception_entry.o)
 .debug_info    0x00089ff8      0x707 ../WebServer_bsp/\libucosii_bsp.a(alt_fcntl.o)
 .debug_info    0x0008a6ff     0x118d ../WebServer_bsp/\libucosii_bsp.a(icmp.o)
 .debug_info    0x0008b88c      0x181 c:/altera/13.0/nios2eds/bin/gnu/h-i686-mingw32/bin/../lib/gcc/nios2-elf/4.1.2/../../../../nios2-elf/lib\libc.a(lib_a-atexit.o)
 .debug_info    0x0008ba0d      0x954 c:/altera/13.0/nios2eds/bin/gnu/h-i686-mingw32/bin/../lib/gcc/nios2-elf/4.1.2/../../../../nios2-elf/lib\libc.a(lib_a-calloc.o)
 .debug_info    0x0008c361      0x93f c:/altera/13.0/nios2eds/bin/gnu/h-i686-mingw32/bin/../lib/gcc/nios2-elf/4.1.2/../../../../nios2-elf/lib\libc.a(lib_a-exit.o)
 .debug_info    0x0008cca0      0x96e c:/altera/13.0/nios2eds/bin/gnu/h-i686-mingw32/bin/../lib/gcc/nios2-elf/4.1.2/../../../../nios2-elf/lib\libc.a(lib_a-malloc.o)
 .debug_info    0x0008d60e      0x9aa c:/altera/13.0/nios2eds/bin/gnu/h-i686-mingw32/bin/../lib/gcc/nios2-elf/4.1.2/../../../../nios2-elf/lib\libc.a(lib_a-vprintf.o)
 .debug_info    0x0008dfb8      0x9ed c:/altera/13.0/nios2eds/bin/gnu/h-i686-mingw32/bin/../lib/gcc/nios2-elf/4.1.2/../../../../nios2-elf/lib\libc.a(lib_a-vsprintf.o)
 .debug_info    0x0008e9a5      0x99c c:/altera/13.0/nios2eds/bin/gnu/h-i686-mingw32/bin/../lib/gcc/nios2-elf/4.1.2/../../../../nios2-elf/lib\libc.a(lib_a-__atexit.o)
 .debug_info    0x0008f341      0x9e2 c:/altera/13.0/nios2eds/bin/gnu/h-i686-mingw32/bin/../lib/gcc/nios2-elf/4.1.2/../../../../nios2-elf/lib\libc.a(lib_a-__call_atexit.o)
 .debug_info    0x0008fd23      0x20f ../WebServer_bsp/\libucosii_bsp.a(alt_exit.o)

.debug_abbrev   0x00000000    0x15e4d
 *(.debug_abbrev)
 .debug_abbrev  0x00000000       0x14 ../WebServer_bsp//obj/HAL/src/crt0.o
 .debug_abbrev  0x00000014      0x1bc obj/default/alt_error_handler.o
 .debug_abbrev  0x000001d0      0x231 obj/default/dm9000a.o
 .debug_abbrev  0x00000401      0x31e obj/default/http.o
 .debug_abbrev  0x0000071f      0x2c4 obj/default/network_utilities.o
 .debug_abbrev  0x000009e3      0x1c4 obj/default/srec_flash.o
 .debug_abbrev  0x00000ba7      0x27f obj/default/web_server.o
 .debug_abbrev  0x00000e26       0x5d c:/altera/13.0/nios2eds/bin/gnu/h-i686-mingw32/bin/../lib/gcc/nios2-elf/4.1.2\libgcc.a(_fixunsdfsi.o)
 .debug_abbrev  0x00000e83      0x1d2 c:/altera/13.0/nios2eds/bin/gnu/h-i686-mingw32/bin/../lib/gcc/nios2-elf/4.1.2\libgcc.a(_addsub_df.o)
 .debug_abbrev  0x00001055      0x204 c:/altera/13.0/nios2eds/bin/gnu/h-i686-mingw32/bin/../lib/gcc/nios2-elf/4.1.2\libgcc.a(_mul_df.o)
 .debug_abbrev  0x00001259      0x151 c:/altera/13.0/nios2eds/bin/gnu/h-i686-mingw32/bin/../lib/gcc/nios2-elf/4.1.2\libgcc.a(_ge_df.o)
 .debug_abbrev  0x000013aa      0x176 c:/altera/13.0/nios2eds/bin/gnu/h-i686-mingw32/bin/../lib/gcc/nios2-elf/4.1.2\libgcc.a(_df_to_si.o)
 .debug_abbrev  0x00001520       0xba c:/altera/13.0/nios2eds/bin/gnu/h-i686-mingw32/bin/../lib/gcc/nios2-elf/4.1.2\libgcc.a(_thenan_df.o)
 .debug_abbrev  0x000015da      0x155 c:/altera/13.0/nios2eds/bin/gnu/h-i686-mingw32/bin/../lib/gcc/nios2-elf/4.1.2\libgcc.a(_usi_to_df.o)
 .debug_abbrev  0x0000172f       0xe0 c:/altera/13.0/nios2eds/bin/gnu/h-i686-mingw32/bin/../lib/gcc/nios2-elf/4.1.2\libgcc.a(lib2-divmod.o)
 .debug_abbrev  0x0000180f       0xee c:/altera/13.0/nios2eds/bin/gnu/h-i686-mingw32/bin/../lib/gcc/nios2-elf/4.1.2\libgcc.a(_muldi3.o)
 .debug_abbrev  0x000018fd       0xb9 c:/altera/13.0/nios2eds/bin/gnu/h-i686-mingw32/bin/../lib/gcc/nios2-elf/4.1.2\libgcc.a(_clzsi2.o)
 .debug_abbrev  0x000019b6      0x1b1 c:/altera/13.0/nios2eds/bin/gnu/h-i686-mingw32/bin/../lib/gcc/nios2-elf/4.1.2\libgcc.a(_pack_df.o)
 .debug_abbrev  0x00001b67      0x149 c:/altera/13.0/nios2eds/bin/gnu/h-i686-mingw32/bin/../lib/gcc/nios2-elf/4.1.2\libgcc.a(_unpack_df.o)
 .debug_abbrev  0x00001cb0      0x132 c:/altera/13.0/nios2eds/bin/gnu/h-i686-mingw32/bin/../lib/gcc/nios2-elf/4.1.2\libgcc.a(_fpcmp_parts_df.o)
 .debug_abbrev  0x00001de2       0x61 c:/altera/13.0/nios2eds/bin/gnu/h-i686-mingw32/bin/../lib/gcc/nios2-elf/4.1.2\libgcc.a(_clz.o)
 .debug_abbrev  0x00001e43      0x176 c:/altera/13.0/nios2eds/bin/gnu/h-i686-mingw32/bin/../lib/gcc/nios2-elf/4.1.2/../../../../nios2-elf/lib\libc.a(lib_a-atoi.o)
 .debug_abbrev  0x00001fb9       0x61 c:/altera/13.0/nios2eds/bin/gnu/h-i686-mingw32/bin/../lib/gcc/nios2-elf/4.1.2/../../../../nios2-elf/lib\libc.a(lib_a-ctype_.o)
 .debug_abbrev  0x0000201a      0x1a7 c:/altera/13.0/nios2eds/bin/gnu/h-i686-mingw32/bin/../lib/gcc/nios2-elf/4.1.2/../../../../nios2-elf/lib\libc.a(lib_a-fclose.o)
 .debug_abbrev  0x000021c1      0x1c6 c:/altera/13.0/nios2eds/bin/gnu/h-i686-mingw32/bin/../lib/gcc/nios2-elf/4.1.2/../../../../nios2-elf/lib\libc.a(lib_a-fflush.o)
 .debug_abbrev  0x00002387      0x189 c:/altera/13.0/nios2eds/bin/gnu/h-i686-mingw32/bin/../lib/gcc/nios2-elf/4.1.2/../../../../nios2-elf/lib\libc.a(lib_a-fgetpos.o)
 .debug_abbrev  0x00002510      0x24c c:/altera/13.0/nios2eds/bin/gnu/h-i686-mingw32/bin/../lib/gcc/nios2-elf/4.1.2/../../../../nios2-elf/lib\libc.a(lib_a-findfp.o)
 .debug_abbrev  0x0000275c      0x1b6 c:/altera/13.0/nios2eds/bin/gnu/h-i686-mingw32/bin/../lib/gcc/nios2-elf/4.1.2/../../../../nios2-elf/lib\libc.a(lib_a-fopen.o)
 .debug_abbrev  0x00002912      0x197 c:/altera/13.0/nios2eds/bin/gnu/h-i686-mingw32/bin/../lib/gcc/nios2-elf/4.1.2/../../../../nios2-elf/lib\libc.a(lib_a-fprintf.o)
 .debug_abbrev  0x00002aa9      0x20d c:/altera/13.0/nios2eds/bin/gnu/h-i686-mingw32/bin/../lib/gcc/nios2-elf/4.1.2/../../../../nios2-elf/lib\libc.a(lib_a-fread.o)
 .debug_abbrev  0x00002cb6      0x1d9 c:/altera/13.0/nios2eds/bin/gnu/h-i686-mingw32/bin/../lib/gcc/nios2-elf/4.1.2/../../../../nios2-elf/lib\libc.a(lib_a-freer.o)
 .debug_abbrev  0x00002e8f      0x208 c:/altera/13.0/nios2eds/bin/gnu/h-i686-mingw32/bin/../lib/gcc/nios2-elf/4.1.2/../../../../nios2-elf/lib\libc.a(lib_a-fseek.o)
 .debug_abbrev  0x00003097      0x18e c:/altera/13.0/nios2eds/bin/gnu/h-i686-mingw32/bin/../lib/gcc/nios2-elf/4.1.2/../../../../nios2-elf/lib\libc.a(lib_a-fstatr.o)
 .debug_abbrev  0x00003225      0x198 c:/altera/13.0/nios2eds/bin/gnu/h-i686-mingw32/bin/../lib/gcc/nios2-elf/4.1.2/../../../../nios2-elf/lib\libc.a(lib_a-ftell.o)
 .debug_abbrev  0x000033bd      0x1e3 c:/altera/13.0/nios2eds/bin/gnu/h-i686-mingw32/bin/../lib/gcc/nios2-elf/4.1.2/../../../../nios2-elf/lib\libc.a(lib_a-fwalk.o)
 .debug_abbrev  0x000035a0      0x1b1 c:/altera/13.0/nios2eds/bin/gnu/h-i686-mingw32/bin/../lib/gcc/nios2-elf/4.1.2/../../../../nios2-elf/lib\libc.a(lib_a-fwrite.o)
 .debug_abbrev  0x00003751      0x17f c:/altera/13.0/nios2eds/bin/gnu/h-i686-mingw32/bin/../lib/gcc/nios2-elf/4.1.2/../../../../nios2-elf/lib\libc.a(lib_a-getc.o)
 .debug_abbrev  0x000038d0      0x157 c:/altera/13.0/nios2eds/bin/gnu/h-i686-mingw32/bin/../lib/gcc/nios2-elf/4.1.2/../../../../nios2-elf/lib\libc.a(lib_a-impure.o)
 .debug_abbrev  0x00003a27       0x3b c:/altera/13.0/nios2eds/bin/gnu/h-i686-mingw32/bin/../lib/gcc/nios2-elf/4.1.2/../../../../nios2-elf/lib\libc.a(lib_a-int_errno.o)
 .debug_abbrev  0x00003a62      0x197 c:/altera/13.0/nios2eds/bin/gnu/h-i686-mingw32/bin/../lib/gcc/nios2-elf/4.1.2/../../../../nios2-elf/lib\libc.a(lib_a-makebuf.o)
 .debug_abbrev  0x00003bf9      0x216 c:/altera/13.0/nios2eds/bin/gnu/h-i686-mingw32/bin/../lib/gcc/nios2-elf/4.1.2/../../../../nios2-elf/lib\libc.a(lib_a-mallocr.o)
 .debug_abbrev  0x00003e0f       0xb5 c:/altera/13.0/nios2eds/bin/gnu/h-i686-mingw32/bin/../lib/gcc/nios2-elf/4.1.2/../../../../nios2-elf/lib\libc.a(lib_a-memcpy.o)
 .debug_abbrev  0x00003ec4       0xb5 c:/altera/13.0/nios2eds/bin/gnu/h-i686-mingw32/bin/../lib/gcc/nios2-elf/4.1.2/../../../../nios2-elf/lib\libc.a(lib_a-memmove.o)
 .debug_abbrev  0x00003f79       0xb8 c:/altera/13.0/nios2eds/bin/gnu/h-i686-mingw32/bin/../lib/gcc/nios2-elf/4.1.2/../../../../nios2-elf/lib\libc.a(lib_a-memset.o)
 .debug_abbrev  0x00004031      0x18e c:/altera/13.0/nios2eds/bin/gnu/h-i686-mingw32/bin/../lib/gcc/nios2-elf/4.1.2/../../../../nios2-elf/lib\libc.a(lib_a-openr.o)
 .debug_abbrev  0x000041bf      0x194 c:/altera/13.0/nios2eds/bin/gnu/h-i686-mingw32/bin/../lib/gcc/nios2-elf/4.1.2/../../../../nios2-elf/lib\libc.a(lib_a-perror.o)
 .debug_abbrev  0x00004353      0x191 c:/altera/13.0/nios2eds/bin/gnu/h-i686-mingw32/bin/../lib/gcc/nios2-elf/4.1.2/../../../../nios2-elf/lib\libc.a(lib_a-printf.o)
 .debug_abbrev  0x000044e4      0x17f c:/altera/13.0/nios2eds/bin/gnu/h-i686-mingw32/bin/../lib/gcc/nios2-elf/4.1.2/../../../../nios2-elf/lib\libc.a(lib_a-putc.o)
 .debug_abbrev  0x00004663      0x170 c:/altera/13.0/nios2eds/bin/gnu/h-i686-mingw32/bin/../lib/gcc/nios2-elf/4.1.2/../../../../nios2-elf/lib\libc.a(lib_a-putchar.o)
 .debug_abbrev  0x000047d3      0x1ac c:/altera/13.0/nios2eds/bin/gnu/h-i686-mingw32/bin/../lib/gcc/nios2-elf/4.1.2/../../../../nios2-elf/lib\libc.a(lib_a-puts.o)
 .debug_abbrev  0x0000497f      0x187 c:/altera/13.0/nios2eds/bin/gnu/h-i686-mingw32/bin/../lib/gcc/nios2-elf/4.1.2/../../../../nios2-elf/lib\libc.a(lib_a-refill.o)
 .debug_abbrev  0x00004b06      0x189 c:/altera/13.0/nios2eds/bin/gnu/h-i686-mingw32/bin/../lib/gcc/nios2-elf/4.1.2/../../../../nios2-elf/lib\libc.a(lib_a-rget.o)
 .debug_abbrev  0x00004c8f      0x18c c:/altera/13.0/nios2eds/bin/gnu/h-i686-mingw32/bin/../lib/gcc/nios2-elf/4.1.2/../../../../nios2-elf/lib\libc.a(lib_a-sbrkr.o)
 .debug_abbrev  0x00004e1b      0x191 c:/altera/13.0/nios2eds/bin/gnu/h-i686-mingw32/bin/../lib/gcc/nios2-elf/4.1.2/../../../../nios2-elf/lib\libc.a(lib_a-sprintf.o)
 .debug_abbrev  0x00004fac      0x1c6 c:/altera/13.0/nios2eds/bin/gnu/h-i686-mingw32/bin/../lib/gcc/nios2-elf/4.1.2/../../../../nios2-elf/lib\libc.a(lib_a-sscanf.o)
 .debug_abbrev  0x00005172      0x1c9 c:/altera/13.0/nios2eds/bin/gnu/h-i686-mingw32/bin/../lib/gcc/nios2-elf/4.1.2/../../../../nios2-elf/lib\libc.a(lib_a-stdio.o)
 .debug_abbrev  0x0000533b       0x96 c:/altera/13.0/nios2eds/bin/gnu/h-i686-mingw32/bin/../lib/gcc/nios2-elf/4.1.2/../../../../nios2-elf/lib\libc.a(lib_a-strcasecmp.o)
 .debug_abbrev  0x000053d1       0x87 c:/altera/13.0/nios2eds/bin/gnu/h-i686-mingw32/bin/../lib/gcc/nios2-elf/4.1.2/../../../../nios2-elf/lib\libc.a(lib_a-strcat.o)
 .debug_abbrev  0x00005458       0x80 c:/altera/13.0/nios2eds/bin/gnu/h-i686-mingw32/bin/../lib/gcc/nios2-elf/4.1.2/../../../../nios2-elf/lib\libc.a(lib_a-strchr.o)
 .debug_abbrev  0x000054d8       0x80 c:/altera/13.0/nios2eds/bin/gnu/h-i686-mingw32/bin/../lib/gcc/nios2-elf/4.1.2/../../../../nios2-elf/lib\libc.a(lib_a-strcmp.o)
 .debug_abbrev  0x00005558       0x8f c:/altera/13.0/nios2eds/bin/gnu/h-i686-mingw32/bin/../lib/gcc/nios2-elf/4.1.2/../../../../nios2-elf/lib\libc.a(lib_a-strcpy.o)
 .debug_abbrev  0x000055e7       0x68 c:/altera/13.0/nios2eds/bin/gnu/h-i686-mingw32/bin/../lib/gcc/nios2-elf/4.1.2/../../../../nios2-elf/lib\libc.a(lib_a-strerror.o)
 .debug_abbrev  0x0000564f       0x8b c:/altera/13.0/nios2eds/bin/gnu/h-i686-mingw32/bin/../lib/gcc/nios2-elf/4.1.2/../../../../nios2-elf/lib\libc.a(lib_a-strlen.o)
 .debug_abbrev  0x000056da       0x8d c:/altera/13.0/nios2eds/bin/gnu/h-i686-mingw32/bin/../lib/gcc/nios2-elf/4.1.2/../../../../nios2-elf/lib\libc.a(lib_a-strncmp.o)
 .debug_abbrev  0x00005767       0x9c c:/altera/13.0/nios2eds/bin/gnu/h-i686-mingw32/bin/../lib/gcc/nios2-elf/4.1.2/../../../../nios2-elf/lib\libc.a(lib_a-strncpy.o)
 .debug_abbrev  0x00005803      0x19a c:/altera/13.0/nios2eds/bin/gnu/h-i686-mingw32/bin/../lib/gcc/nios2-elf/4.1.2/../../../../nios2-elf/lib\libc.a(lib_a-strstr.o)
 .debug_abbrev  0x0000599d      0x17f c:/altera/13.0/nios2eds/bin/gnu/h-i686-mingw32/bin/../lib/gcc/nios2-elf/4.1.2/../../../../nios2-elf/lib\libc.a(lib_a-strtok.o)
 .debug_abbrev  0x00005b1c       0xcd c:/altera/13.0/nios2eds/bin/gnu/h-i686-mingw32/bin/../lib/gcc/nios2-elf/4.1.2/../../../../nios2-elf/lib\libc.a(lib_a-strtok_r.o)
 .debug_abbrev  0x00005be9      0x1c7 c:/altera/13.0/nios2eds/bin/gnu/h-i686-mingw32/bin/../lib/gcc/nios2-elf/4.1.2/../../../../nios2-elf/lib\libc.a(lib_a-strtol.o)
 .debug_abbrev  0x00005db0       0x5b c:/altera/13.0/nios2eds/bin/gnu/h-i686-mingw32/bin/../lib/gcc/nios2-elf/4.1.2/../../../../nios2-elf/lib\libc.a(lib_a-u_strerr.o)
 .debug_abbrev  0x00005e0b      0x30a c:/altera/13.0/nios2eds/bin/gnu/h-i686-mingw32/bin/../lib/gcc/nios2-elf/4.1.2/../../../../nios2-elf/lib\libc.a(lib_a-vfprintf.o)
 .debug_abbrev  0x00006115      0x286 c:/altera/13.0/nios2eds/bin/gnu/h-i686-mingw32/bin/../lib/gcc/nios2-elf/4.1.2/../../../../nios2-elf/lib\libc.a(lib_a-vfscanf.o)
 .debug_abbrev  0x0000639b      0x198 c:/altera/13.0/nios2eds/bin/gnu/h-i686-mingw32/bin/../lib/gcc/nios2-elf/4.1.2/../../../../nios2-elf/lib\libc.a(lib_a-wbuf.o)
 .debug_abbrev  0x00006533      0x184 c:/altera/13.0/nios2eds/bin/gnu/h-i686-mingw32/bin/../lib/gcc/nios2-elf/4.1.2/../../../../nios2-elf/lib\libc.a(lib_a-writer.o)
 .debug_abbrev  0x000066b7      0x170 c:/altera/13.0/nios2eds/bin/gnu/h-i686-mingw32/bin/../lib/gcc/nios2-elf/4.1.2/../../../../nios2-elf/lib\libc.a(lib_a-wsetup.o)
 .debug_abbrev  0x00006827      0x17f c:/altera/13.0/nios2eds/bin/gnu/h-i686-mingw32/bin/../lib/gcc/nios2-elf/4.1.2/../../../../nios2-elf/lib\libc.a(lib_a-closer.o)
 .debug_abbrev  0x000069a6      0x232 c:/altera/13.0/nios2eds/bin/gnu/h-i686-mingw32/bin/../lib/gcc/nios2-elf/4.1.2/../../../../nios2-elf/lib\libc.a(lib_a-dtoa.o)
 .debug_abbrev  0x00006bd8      0x17d c:/altera/13.0/nios2eds/bin/gnu/h-i686-mingw32/bin/../lib/gcc/nios2-elf/4.1.2/../../../../nios2-elf/lib\libc.a(lib_a-flags.o)
 .debug_abbrev  0x00006d55      0x18c c:/altera/13.0/nios2eds/bin/gnu/h-i686-mingw32/bin/../lib/gcc/nios2-elf/4.1.2/../../../../nios2-elf/lib\libc.a(lib_a-fputc.o)
 .debug_abbrev  0x00006ee1      0x1aa c:/altera/13.0/nios2eds/bin/gnu/h-i686-mingw32/bin/../lib/gcc/nios2-elf/4.1.2/../../../../nios2-elf/lib\libc.a(lib_a-fputs.o)
 .debug_abbrev  0x0000708b      0x1a3 c:/altera/13.0/nios2eds/bin/gnu/h-i686-mingw32/bin/../lib/gcc/nios2-elf/4.1.2/../../../../nios2-elf/lib\libc.a(lib_a-fvwrite.o)
 .debug_abbrev  0x0000722e      0x17f c:/altera/13.0/nios2eds/bin/gnu/h-i686-mingw32/bin/../lib/gcc/nios2-elf/4.1.2/../../../../nios2-elf/lib\libc.a(lib_a-isattyr.o)
 .debug_abbrev  0x000073ad       0x9f c:/altera/13.0/nios2eds/bin/gnu/h-i686-mingw32/bin/../lib/gcc/nios2-elf/4.1.2/../../../../nios2-elf/lib\libc.a(lib_a-iswspace.o)
 .debug_abbrev  0x0000744c      0x1ed c:/altera/13.0/nios2eds/bin/gnu/h-i686-mingw32/bin/../lib/gcc/nios2-elf/4.1.2/../../../../nios2-elf/lib\libc.a(lib_a-locale.o)
 .debug_abbrev  0x00007639      0x18e c:/altera/13.0/nios2eds/bin/gnu/h-i686-mingw32/bin/../lib/gcc/nios2-elf/4.1.2/../../../../nios2-elf/lib\libc.a(lib_a-lseekr.o)
 .debug_abbrev  0x000077c7      0x17f c:/altera/13.0/nios2eds/bin/gnu/h-i686-mingw32/bin/../lib/gcc/nios2-elf/4.1.2/../../../../nios2-elf/lib\libc.a(lib_a-mbrtowc.o)
 .debug_abbrev  0x00007946      0x18a c:/altera/13.0/nios2eds/bin/gnu/h-i686-mingw32/bin/../lib/gcc/nios2-elf/4.1.2/../../../../nios2-elf/lib\libc.a(lib_a-mbtowc_r.o)
 .debug_abbrev  0x00007ad0       0xb5 c:/altera/13.0/nios2eds/bin/gnu/h-i686-mingw32/bin/../lib/gcc/nios2-elf/4.1.2/../../../../nios2-elf/lib\libc.a(lib_a-memchr.o)
 .debug_abbrev  0x00007b85       0x7c c:/altera/13.0/nios2eds/bin/gnu/h-i686-mingw32/bin/../lib/gcc/nios2-elf/4.1.2/../../../../nios2-elf/lib\libc.a(lib_a-memcmp.o)
 .debug_abbrev  0x00007c01      0x297 c:/altera/13.0/nios2eds/bin/gnu/h-i686-mingw32/bin/../lib/gcc/nios2-elf/4.1.2/../../../../nios2-elf/lib\libc.a(lib_a-mprec.o)
 .debug_abbrev  0x00007e98      0x17f c:/altera/13.0/nios2eds/bin/gnu/h-i686-mingw32/bin/../lib/gcc/nios2-elf/4.1.2/../../../../nios2-elf/lib\libc.a(lib_a-readr.o)
 .debug_abbrev  0x00008017      0x1c3 c:/altera/13.0/nios2eds/bin/gnu/h-i686-mingw32/bin/../lib/gcc/nios2-elf/4.1.2/../../../../nios2-elf/lib\libc.a(lib_a-reallocr.o)
 .debug_abbrev  0x000081da       0x79 c:/altera/13.0/nios2eds/bin/gnu/h-i686-mingw32/bin/../lib/gcc/nios2-elf/4.1.2/../../../../nios2-elf/lib\libc.a(lib_a-s_isinfd.o)
 .debug_abbrev  0x00008253       0x79 c:/altera/13.0/nios2eds/bin/gnu/h-i686-mingw32/bin/../lib/gcc/nios2-elf/4.1.2/../../../../nios2-elf/lib\libc.a(lib_a-s_isnand.o)
 .debug_abbrev  0x000082cc       0x93 c:/altera/13.0/nios2eds/bin/gnu/h-i686-mingw32/bin/../lib/gcc/nios2-elf/4.1.2/../../../../nios2-elf/lib\libc.a(lib_a-sccl.o)
 .debug_abbrev  0x0000835f       0x6d c:/altera/13.0/nios2eds/bin/gnu/h-i686-mingw32/bin/../lib/gcc/nios2-elf/4.1.2/../../../../nios2-elf/lib\libc.a(lib_a-sf_nan.o)
 .debug_abbrev  0x000083cc      0x2e8 c:/altera/13.0/nios2eds/bin/gnu/h-i686-mingw32/bin/../lib/gcc/nios2-elf/4.1.2/../../../../nios2-elf/lib\libc.a(lib_a-strtod.o)
 .debug_abbrev  0x000086b4      0x18e c:/altera/13.0/nios2eds/bin/gnu/h-i686-mingw32/bin/../lib/gcc/nios2-elf/4.1.2/../../../../nios2-elf/lib\libc.a(lib_a-strtoll_r.o)
 .debug_abbrev  0x00008842      0x1c5 c:/altera/13.0/nios2eds/bin/gnu/h-i686-mingw32/bin/../lib/gcc/nios2-elf/4.1.2/../../../../nios2-elf/lib\libc.a(lib_a-strtoul.o)
 .debug_abbrev  0x00008a07      0x18c c:/altera/13.0/nios2eds/bin/gnu/h-i686-mingw32/bin/../lib/gcc/nios2-elf/4.1.2/../../../../nios2-elf/lib\libc.a(lib_a-strtoull_r.o)
 .debug_abbrev  0x00008b93      0x1a7 c:/altera/13.0/nios2eds/bin/gnu/h-i686-mingw32/bin/../lib/gcc/nios2-elf/4.1.2/../../../../nios2-elf/lib\libc.a(lib_a-ungetc.o)
 .debug_abbrev  0x00008d3a      0x1b8 c:/altera/13.0/nios2eds/bin/gnu/h-i686-mingw32/bin/../lib/gcc/nios2-elf/4.1.2/../../../../nios2-elf/lib\libc.a(lib_a-callocr.o)
 .debug_abbrev  0x00008ef2      0x273 c:/altera/13.0/nios2eds/bin/gnu/h-i686-mingw32/bin/../lib/gcc/nios2-elf/4.1.2/../../../../nios2-elf/lib\libc.a(lib_a-gdtoa-gethex.o)
 .debug_abbrev  0x00009165      0x117 c:/altera/13.0/nios2eds/bin/gnu/h-i686-mingw32/bin/../lib/gcc/nios2-elf/4.1.2/../../../../nios2-elf/lib\libc.a(lib_a-gdtoa-hexnan.o)
 .debug_abbrev  0x0000927c      0x16b c:/altera/13.0/nios2eds/bin/gnu/h-i686-mingw32/bin/../lib/gcc/nios2-elf/4.1.2\libgcc.a(_udivdi3.o)
 .debug_abbrev  0x000093e7      0x18e c:/altera/13.0/nios2eds/bin/gnu/h-i686-mingw32/bin/../lib/gcc/nios2-elf/4.1.2\libgcc.a(_umoddi3.o)
 .debug_abbrev  0x00009575      0x151 c:/altera/13.0/nios2eds/bin/gnu/h-i686-mingw32/bin/../lib/gcc/nios2-elf/4.1.2\libgcc.a(_ne_sf.o)
 .debug_abbrev  0x000096c6      0x151 c:/altera/13.0/nios2eds/bin/gnu/h-i686-mingw32/bin/../lib/gcc/nios2-elf/4.1.2\libgcc.a(_gt_sf.o)
 .debug_abbrev  0x00009817      0x151 c:/altera/13.0/nios2eds/bin/gnu/h-i686-mingw32/bin/../lib/gcc/nios2-elf/4.1.2\libgcc.a(_lt_sf.o)
 .debug_abbrev  0x00009968      0x1e3 c:/altera/13.0/nios2eds/bin/gnu/h-i686-mingw32/bin/../lib/gcc/nios2-elf/4.1.2\libgcc.a(_div_df.o)
 .debug_abbrev  0x00009b4b      0x151 c:/altera/13.0/nios2eds/bin/gnu/h-i686-mingw32/bin/../lib/gcc/nios2-elf/4.1.2\libgcc.a(_eq_df.o)
 .debug_abbrev  0x00009c9c      0x151 c:/altera/13.0/nios2eds/bin/gnu/h-i686-mingw32/bin/../lib/gcc/nios2-elf/4.1.2\libgcc.a(_ne_df.o)
 .debug_abbrev  0x00009ded      0x151 c:/altera/13.0/nios2eds/bin/gnu/h-i686-mingw32/bin/../lib/gcc/nios2-elf/4.1.2\libgcc.a(_gt_df.o)
 .debug_abbrev  0x00009f3e      0x151 c:/altera/13.0/nios2eds/bin/gnu/h-i686-mingw32/bin/../lib/gcc/nios2-elf/4.1.2\libgcc.a(_lt_df.o)
 .debug_abbrev  0x0000a08f      0x151 c:/altera/13.0/nios2eds/bin/gnu/h-i686-mingw32/bin/../lib/gcc/nios2-elf/4.1.2\libgcc.a(_le_df.o)
 .debug_abbrev  0x0000a1e0      0x13f c:/altera/13.0/nios2eds/bin/gnu/h-i686-mingw32/bin/../lib/gcc/nios2-elf/4.1.2\libgcc.a(_si_to_df.o)
 .debug_abbrev  0x0000a31f      0x137 c:/altera/13.0/nios2eds/bin/gnu/h-i686-mingw32/bin/../lib/gcc/nios2-elf/4.1.2\libgcc.a(_df_to_sf.o)
 .debug_abbrev  0x0000a456      0x158 c:/altera/13.0/nios2eds/bin/gnu/h-i686-mingw32/bin/../lib/gcc/nios2-elf/4.1.2\libgcc.a(_unpack_sf.o)
 .debug_abbrev  0x0000a5ae      0x132 c:/altera/13.0/nios2eds/bin/gnu/h-i686-mingw32/bin/../lib/gcc/nios2-elf/4.1.2\libgcc.a(_fpcmp_parts_sf.o)
 .debug_abbrev  0x0000a6e0      0x100 c:/altera/13.0/nios2eds/bin/gnu/h-i686-mingw32/bin/../lib/gcc/nios2-elf/4.1.2\libgcc.a(_make_sf.o)
 .debug_abbrev  0x0000a7e0      0x1aa c:/altera/13.0/nios2eds/bin/gnu/h-i686-mingw32/bin/../lib/gcc/nios2-elf/4.1.2\libgcc.a(_pack_sf.o)
 .debug_abbrev  0x0000a98a       0x7a ../WebServer_bsp/\libucosii_bsp.a(alt_dcache_flush.o)
 .debug_abbrev  0x0000aa04      0x128 ../WebServer_bsp/\libucosii_bsp.a(alt_flash_dev.o)
 .debug_abbrev  0x0000ab2c      0x102 ../WebServer_bsp/\libucosii_bsp.a(alt_fstat.o)
 .debug_abbrev  0x0000ac2e      0x180 ../WebServer_bsp/\libucosii_bsp.a(alt_irq_register.o)
 .debug_abbrev  0x0000adae       0x44 ../WebServer_bsp/\libucosii_bsp.a(alt_irq_vars.o)
 .debug_abbrev  0x0000adf2      0x102 ../WebServer_bsp/\libucosii_bsp.a(alt_isatty.o)
 .debug_abbrev  0x0000aef4      0x102 ../WebServer_bsp/\libucosii_bsp.a(alt_lseek.o)
 .debug_abbrev  0x0000aff6      0x120 ../WebServer_bsp/\libucosii_bsp.a(alt_main.o)
 .debug_abbrev  0x0000b116      0x119 ../WebServer_bsp/\libucosii_bsp.a(alt_open.o)
 .debug_abbrev  0x0000b22f       0xd3 ../WebServer_bsp/\libucosii_bsp.a(alt_release_fd.o)
 .debug_abbrev  0x0000b302      0x115 ../WebServer_bsp/\libucosii_bsp.a(alt_sbrk.o)
 .debug_abbrev  0x0000b417      0x150 ../WebServer_bsp/\libucosii_bsp.a(alt_tick.o)
 .debug_abbrev  0x0000b567       0xb7 ../WebServer_bsp/\libucosii_bsp.a(alt_usleep.o)
 .debug_abbrev  0x0000b61e      0x1b3 ../WebServer_bsp/\libucosii_bsp.a(alt_env_lock.o)
 .debug_abbrev  0x0000b7d1      0x234 ../WebServer_bsp/\libucosii_bsp.a(alt_malloc_lock.o)
 .debug_abbrev  0x0000ba05      0x2aa ../WebServer_bsp/\libucosii_bsp.a(os_core.o)
 .debug_abbrev  0x0000bcaf      0x114 ../WebServer_bsp/\libucosii_bsp.a(os_dbg.o)
 .debug_abbrev  0x0000bdc3      0x21b ../WebServer_bsp/\libucosii_bsp.a(os_flag.o)
 .debug_abbrev  0x0000bfde      0x1f6 ../WebServer_bsp/\libucosii_bsp.a(os_mbox.o)
 .debug_abbrev  0x0000c1d4      0x235 ../WebServer_bsp/\libucosii_bsp.a(os_mem.o)
 .debug_abbrev  0x0000c409      0x20d ../WebServer_bsp/\libucosii_bsp.a(os_q.o)
 .debug_abbrev  0x0000c616      0x20d ../WebServer_bsp/\libucosii_bsp.a(os_sem.o)
 .debug_abbrev  0x0000c823      0x20e ../WebServer_bsp/\libucosii_bsp.a(os_task.o)
 .debug_abbrev  0x0000ca31      0x1de ../WebServer_bsp/\libucosii_bsp.a(os_time.o)
 .debug_abbrev  0x0000cc0f      0x1c8 ../WebServer_bsp/\libucosii_bsp.a(alt_sys_init.o)
 .debug_abbrev  0x0000cdd7      0x1bf ../WebServer_bsp/\libucosii_bsp.a(altera_avalon_cfi_flash.o)
 .debug_abbrev  0x0000cf96      0x185 ../WebServer_bsp/\libucosii_bsp.a(altera_avalon_cfi_flash_table.o)
 .debug_abbrev  0x0000d11b      0x1bf ../WebServer_bsp/\libucosii_bsp.a(altera_avalon_epcs_flash_controller.o)
 .debug_abbrev  0x0000d2da      0x13c ../WebServer_bsp/\libucosii_bsp.a(altera_avalon_jtag_uart_fd.o)
 .debug_abbrev  0x0000d416      0x21e ../WebServer_bsp/\libucosii_bsp.a(altera_avalon_jtag_uart_init.o)
 .debug_abbrev  0x0000d634      0x135 ../WebServer_bsp/\libucosii_bsp.a(altera_avalon_jtag_uart_ioctl.o)
 .debug_abbrev  0x0000d769      0x1ee ../WebServer_bsp/\libucosii_bsp.a(altera_avalon_jtag_uart_read.o)
 .debug_abbrev  0x0000d957      0x1ea ../WebServer_bsp/\libucosii_bsp.a(altera_avalon_jtag_uart_write.o)
 .debug_abbrev  0x0000db41      0x235 ../WebServer_bsp/\libucosii_bsp.a(altera_avalon_lcd_16207.o)
 .debug_abbrev  0x0000dd76      0x12f ../WebServer_bsp/\libucosii_bsp.a(altera_avalon_lcd_16207_fd.o)
 .debug_abbrev  0x0000dea5      0x137 ../WebServer_bsp/\libucosii_bsp.a(altera_avalon_timer_sc.o)
 .debug_abbrev  0x0000dfdc      0x124 ../WebServer_bsp/\libucosii_bsp.a(altera_avalon_uart_fd.o)
 .debug_abbrev  0x0000e100      0x204 ../WebServer_bsp/\libucosii_bsp.a(altera_avalon_uart_init.o)
 .debug_abbrev  0x0000e304      0x1b9 ../WebServer_bsp/\libucosii_bsp.a(altera_avalon_uart_read.o)
 .debug_abbrev  0x0000e4bd      0x1c0 ../WebServer_bsp/\libucosii_bsp.a(altera_avalon_uart_write.o)
 .debug_abbrev  0x0000e67d      0x20a ../WebServer_bsp/\libucosii_bsp.a(altera_ro_zipfs.o)
 .debug_abbrev  0x0000e887      0x145 ../WebServer_bsp/\libucosii_bsp.a(epcs_commands.o)
 .debug_abbrev  0x0000e9cc       0x77 ../WebServer_bsp/\libucosii_bsp.a(alt_iniche_close.o)
 .debug_abbrev  0x0000ea43      0x11f ../WebServer_bsp/\libucosii_bsp.a(alt_iniche_dev.o)
 .debug_abbrev  0x0000eb62       0x7e ../WebServer_bsp/\libucosii_bsp.a(alt_iniche_read.o)
 .debug_abbrev  0x0000ebe0       0x85 ../WebServer_bsp/\libucosii_bsp.a(alt_iniche_write.o)
 .debug_abbrev  0x0000ec65      0x184 ../WebServer_bsp/\libucosii_bsp.a(ipnet.o)
 .debug_abbrev  0x0000ede9      0x18b ../WebServer_bsp/\libucosii_bsp.a(ipstart.o)
 .debug_abbrev  0x0000ef74      0x191 ../WebServer_bsp/\libucosii_bsp.a(igmp_cmn.o)
 .debug_abbrev  0x0000f105      0x1a3 ../WebServer_bsp/\libucosii_bsp.a(bsdsock.o)
 .debug_abbrev  0x0000f2a8       0x96 ../WebServer_bsp/\libucosii_bsp.a(cksum.o)
 .debug_abbrev  0x0000f33e      0x18b ../WebServer_bsp/\libucosii_bsp.a(in_utils.o)
 .debug_abbrev  0x0000f4c9      0x152 ../WebServer_bsp/\libucosii_bsp.a(netmain.o)
 .debug_abbrev  0x0000f61b      0x144 ../WebServer_bsp/\libucosii_bsp.a(tk_crnos.o)
 .debug_abbrev  0x0000f75f      0x217 ../WebServer_bsp/\libucosii_bsp.a(dhcpclnt.o)
 .debug_abbrev  0x0000f976       0x8f ../WebServer_bsp/\libucosii_bsp.a(dhcputil.o)
 .debug_abbrev  0x0000fa05      0x196 ../WebServer_bsp/\libucosii_bsp.a(pktalloc.o)
 .debug_abbrev  0x0000fb9b       0xcb ../WebServer_bsp/\libucosii_bsp.a(q.o)
 .debug_abbrev  0x0000fc66      0x144 ../WebServer_bsp/\libucosii_bsp.a(udp_open.o)
 .debug_abbrev  0x0000fdaa       0x14 ../WebServer_bsp/\libucosii_bsp.a(asm_cksum.o)
 .debug_abbrev  0x0000fdbe      0x242 ../WebServer_bsp/\libucosii_bsp.a(brdutils.o)
 .debug_abbrev  0x00010000      0x194 ../WebServer_bsp/\libucosii_bsp.a(osportco.o)
 .debug_abbrev  0x00010194      0x199 ../WebServer_bsp/\libucosii_bsp.a(targnios.o)
 .debug_abbrev  0x0001032d      0x1dc ../WebServer_bsp/\libucosii_bsp.a(nptcp.o)
 .debug_abbrev  0x00010509      0x136 ../WebServer_bsp/\libucosii_bsp.a(rawsock.o)
 .debug_abbrev  0x0001063f      0x1de ../WebServer_bsp/\libucosii_bsp.a(sockcall.o)
 .debug_abbrev  0x0001081d      0x1ef ../WebServer_bsp/\libucosii_bsp.a(socket.o)
 .debug_abbrev  0x00010a0c      0x1ac ../WebServer_bsp/\libucosii_bsp.a(socket2.o)
 .debug_abbrev  0x00010bb8      0x17f ../WebServer_bsp/\libucosii_bsp.a(soselect.o)
 .debug_abbrev  0x00010d37      0x1ca ../WebServer_bsp/\libucosii_bsp.a(tcp_in.o)
 .debug_abbrev  0x00010f01      0x1a4 ../WebServer_bsp/\libucosii_bsp.a(tcp_out.o)
 .debug_abbrev  0x000110a5      0x1c3 ../WebServer_bsp/\libucosii_bsp.a(tcp_subr.o)
 .debug_abbrev  0x00011268      0x19e ../WebServer_bsp/\libucosii_bsp.a(tcp_timr.o)
 .debug_abbrev  0x00011406      0x175 ../WebServer_bsp/\libucosii_bsp.a(tcp_usr.o)
 .debug_abbrev  0x0001157b       0x77 ../WebServer_bsp/\libucosii_bsp.a(tcpport.o)
 .debug_abbrev  0x000115f2      0x190 ../WebServer_bsp/\libucosii_bsp.a(udpsock.o)
 .debug_abbrev  0x00011782      0x172 ../WebServer_bsp/\libucosii_bsp.a(alt_alarm_start.o)
 .debug_abbrev  0x000118f4       0x6c ../WebServer_bsp/\libucosii_bsp.a(alt_busy_sleep.o)
 .debug_abbrev  0x00011960      0x102 ../WebServer_bsp/\libucosii_bsp.a(alt_close.o)
 .debug_abbrev  0x00011a62      0x10a ../WebServer_bsp/\libucosii_bsp.a(alt_dev.o)
 .debug_abbrev  0x00011b6c       0xf6 ../WebServer_bsp/\libucosii_bsp.a(alt_dev_llist_insert.o)
 .debug_abbrev  0x00011c62       0x76 ../WebServer_bsp/\libucosii_bsp.a(alt_do_ctors.o)
 .debug_abbrev  0x00011cd8       0x76 ../WebServer_bsp/\libucosii_bsp.a(alt_do_dtors.o)
 .debug_abbrev  0x00011d4e       0x5e ../WebServer_bsp/\libucosii_bsp.a(alt_errno.o)
 .debug_abbrev  0x00011dac       0xd6 ../WebServer_bsp/\libucosii_bsp.a(alt_find_dev.o)
 .debug_abbrev  0x00011e82       0xd6 ../WebServer_bsp/\libucosii_bsp.a(alt_find_file.o)
 .debug_abbrev  0x00011f58       0xf4 ../WebServer_bsp/\libucosii_bsp.a(alt_fs_reg.o)
 .debug_abbrev  0x0001204c      0x173 ../WebServer_bsp/\libucosii_bsp.a(alt_get_fd.o)
 .debug_abbrev  0x000121bf      0x134 ../WebServer_bsp/\libucosii_bsp.a(alt_iic.o)
 .debug_abbrev  0x000122f3      0x14e ../WebServer_bsp/\libucosii_bsp.a(alt_iic_isr_register.o)
 .debug_abbrev  0x00012441       0xf7 ../WebServer_bsp/\libucosii_bsp.a(alt_io_redirect.o)
 .debug_abbrev  0x00012538       0x12 ../WebServer_bsp/\libucosii_bsp.a(alt_irq_entry.o)
 .debug_abbrev  0x0001254a      0x124 ../WebServer_bsp/\libucosii_bsp.a(alt_irq_handler.o)
 .debug_abbrev  0x0001266e      0x102 ../WebServer_bsp/\libucosii_bsp.a(alt_read.o)
 .debug_abbrev  0x00012770       0x74 ../WebServer_bsp/\libucosii_bsp.a(alt_remap_cached.o)
 .debug_abbrev  0x000127e4       0x74 ../WebServer_bsp/\libucosii_bsp.a(alt_remap_uncached.o)
 .debug_abbrev  0x00012858      0x107 ../WebServer_bsp/\libucosii_bsp.a(alt_write.o)
 .debug_abbrev  0x0001295f       0x3f ../WebServer_bsp/\libucosii_bsp.a(altera_nios2_qsys_irq.o)
 .debug_abbrev  0x0001299e       0x14 ../WebServer_bsp/\libucosii_bsp.a(os_cpu_a.o)
 .debug_abbrev  0x000129b2      0x1d0 ../WebServer_bsp/\libucosii_bsp.a(os_cpu_c.o)
 .debug_abbrev  0x00012b82      0x14d ../WebServer_bsp/\libucosii_bsp.a(altera_avalon_cfi_flash_amd.o)
 .debug_abbrev  0x00012ccf      0x14d ../WebServer_bsp/\libucosii_bsp.a(altera_avalon_cfi_flash_intel.o)
 .debug_abbrev  0x00012e1c       0x7c ../WebServer_bsp/\libucosii_bsp.a(altera_avalon_spi.o)
 .debug_abbrev  0x00012e98      0x173 ../WebServer_bsp/\libucosii_bsp.a(allports.o)
 .debug_abbrev  0x0001300b      0x151 ../WebServer_bsp/\libucosii_bsp.a(timeouts.o)
 .debug_abbrev  0x0001315c       0xa4 ../WebServer_bsp/\libucosii_bsp.a(tk_misc.o)
 .debug_abbrev  0x00013200       0x92 ../WebServer_bsp/\libucosii_bsp.a(alt_iniche_fcntl.o)
 .debug_abbrev  0x00013292      0x1eb ../WebServer_bsp/\libucosii_bsp.a(et_arp.o)
 .debug_abbrev  0x0001347d      0x13d ../WebServer_bsp/\libucosii_bsp.a(iface.o)
 .debug_abbrev  0x000135ba      0x1ed ../WebServer_bsp/\libucosii_bsp.a(ip.o)
 .debug_abbrev  0x000137a7      0x1ca ../WebServer_bsp/\libucosii_bsp.a(ip_reasm.o)
 .debug_abbrev  0x00013971      0x166 ../WebServer_bsp/\libucosii_bsp.a(ipdemux.o)
 .debug_abbrev  0x00013ad7      0x114 ../WebServer_bsp/\libucosii_bsp.a(ipmc.o)
 .debug_abbrev  0x00013beb       0xe9 ../WebServer_bsp/\libucosii_bsp.a(ipport.o)
 .debug_abbrev  0x00013cd4      0x19c ../WebServer_bsp/\libucosii_bsp.a(ipraw.o)
 .debug_abbrev  0x00013e70      0x156 ../WebServer_bsp/\libucosii_bsp.a(iproute.o)
 .debug_abbrev  0x00013fc6      0x1c0 ../WebServer_bsp/\libucosii_bsp.a(udp.o)
 .debug_abbrev  0x00014186      0x10e ../WebServer_bsp/\libucosii_bsp.a(igmp.o)
 .debug_abbrev  0x00014294      0x17a ../WebServer_bsp/\libucosii_bsp.a(igmp2.o)
 .debug_abbrev  0x0001440e      0x189 ../WebServer_bsp/\libucosii_bsp.a(ipopt.o)
 .debug_abbrev  0x00014597      0x15a ../WebServer_bsp/\libucosii_bsp.a(u_mctest.o)
 .debug_abbrev  0x000146f1      0x12e ../WebServer_bsp/\libucosii_bsp.a(dhcsetup.o)
 .debug_abbrev  0x0001481f      0x175 ../WebServer_bsp/\libucosii_bsp.a(memdev.o)
 .debug_abbrev  0x00014994      0x154 ../WebServer_bsp/\libucosii_bsp.a(parseip.o)
 .debug_abbrev  0x00014ae8       0xad ../WebServer_bsp/\libucosii_bsp.a(tcpcksum.o)
 .debug_abbrev  0x00014b95      0x19f ../WebServer_bsp/\libucosii_bsp.a(in_pcb.o)
 .debug_abbrev  0x00014d34      0x1b6 ../WebServer_bsp/\libucosii_bsp.a(vfsfiles.o)
 .debug_abbrev  0x00014eea       0x77 ../WebServer_bsp/\libucosii_bsp.a(vfsport.o)
 .debug_abbrev  0x00014f61       0x12 ../WebServer_bsp/\libucosii_bsp.a(alt_exception_entry.o)
 .debug_abbrev  0x00014f73      0x107 ../WebServer_bsp/\libucosii_bsp.a(alt_fcntl.o)
 .debug_abbrev  0x0001507a      0x15d ../WebServer_bsp/\libucosii_bsp.a(icmp.o)
 .debug_abbrev  0x000151d7       0xb7 c:/altera/13.0/nios2eds/bin/gnu/h-i686-mingw32/bin/../lib/gcc/nios2-elf/4.1.2/../../../../nios2-elf/lib\libc.a(lib_a-atexit.o)
 .debug_abbrev  0x0001528e      0x17f c:/altera/13.0/nios2eds/bin/gnu/h-i686-mingw32/bin/../lib/gcc/nios2-elf/4.1.2/../../../../nios2-elf/lib\libc.a(lib_a-calloc.o)
 .debug_abbrev  0x0001540d      0x16e c:/altera/13.0/nios2eds/bin/gnu/h-i686-mingw32/bin/../lib/gcc/nios2-elf/4.1.2/../../../../nios2-elf/lib\libc.a(lib_a-exit.o)
 .debug_abbrev  0x0001557b      0x187 c:/altera/13.0/nios2eds/bin/gnu/h-i686-mingw32/bin/../lib/gcc/nios2-elf/4.1.2/../../../../nios2-elf/lib\libc.a(lib_a-malloc.o)
 .debug_abbrev  0x00015702      0x170 c:/altera/13.0/nios2eds/bin/gnu/h-i686-mingw32/bin/../lib/gcc/nios2-elf/4.1.2/../../../../nios2-elf/lib\libc.a(lib_a-vprintf.o)
 .debug_abbrev  0x00015872      0x1a5 c:/altera/13.0/nios2eds/bin/gnu/h-i686-mingw32/bin/../lib/gcc/nios2-elf/4.1.2/../../../../nios2-elf/lib\libc.a(lib_a-vsprintf.o)
 .debug_abbrev  0x00015a17      0x1ae c:/altera/13.0/nios2eds/bin/gnu/h-i686-mingw32/bin/../lib/gcc/nios2-elf/4.1.2/../../../../nios2-elf/lib\libc.a(lib_a-__atexit.o)
 .debug_abbrev  0x00015bc5      0x1de c:/altera/13.0/nios2eds/bin/gnu/h-i686-mingw32/bin/../lib/gcc/nios2-elf/4.1.2/../../../../nios2-elf/lib\libc.a(lib_a-__call_atexit.o)
 .debug_abbrev  0x00015da3       0xaa ../WebServer_bsp/\libucosii_bsp.a(alt_exit.o)

.debug_line     0x00000000    0x4b405
 *(.debug_line)
 .debug_line    0x00000000       0x57 ../WebServer_bsp//obj/HAL/src/crt0.o
 .debug_line    0x00000057      0x4c4 obj/default/alt_error_handler.o
 .debug_line    0x0000051b      0xabb obj/default/dm9000a.o
 .debug_line    0x00000fd6     0x12e9 obj/default/http.o
 .debug_line    0x000022bf      0x882 obj/default/network_utilities.o
 .debug_line    0x00002b41      0x6a5 obj/default/srec_flash.o
 .debug_line    0x000031e6      0x64e obj/default/web_server.o
 .debug_line    0x00003834       0xff c:/altera/13.0/nios2eds/bin/gnu/h-i686-mingw32/bin/../lib/gcc/nios2-elf/4.1.2\libgcc.a(_fixunsdfsi.o)
 .debug_line    0x00003933      0x430 c:/altera/13.0/nios2eds/bin/gnu/h-i686-mingw32/bin/../lib/gcc/nios2-elf/4.1.2\libgcc.a(_addsub_df.o)
 .debug_line    0x00003d63      0x3e5 c:/altera/13.0/nios2eds/bin/gnu/h-i686-mingw32/bin/../lib/gcc/nios2-elf/4.1.2\libgcc.a(_mul_df.o)
 .debug_line    0x00004148      0x129 c:/altera/13.0/nios2eds/bin/gnu/h-i686-mingw32/bin/../lib/gcc/nios2-elf/4.1.2\libgcc.a(_ge_df.o)
 .debug_line    0x00004271      0x149 c:/altera/13.0/nios2eds/bin/gnu/h-i686-mingw32/bin/../lib/gcc/nios2-elf/4.1.2\libgcc.a(_df_to_si.o)
 .debug_line    0x000043ba       0x94 c:/altera/13.0/nios2eds/bin/gnu/h-i686-mingw32/bin/../lib/gcc/nios2-elf/4.1.2\libgcc.a(_thenan_df.o)
 .debug_line    0x0000444e      0x189 c:/altera/13.0/nios2eds/bin/gnu/h-i686-mingw32/bin/../lib/gcc/nios2-elf/4.1.2\libgcc.a(_usi_to_df.o)
 .debug_line    0x000045d7      0x24f c:/altera/13.0/nios2eds/bin/gnu/h-i686-mingw32/bin/../lib/gcc/nios2-elf/4.1.2\libgcc.a(lib2-divmod.o)
 .debug_line    0x00004826      0x11f c:/altera/13.0/nios2eds/bin/gnu/h-i686-mingw32/bin/../lib/gcc/nios2-elf/4.1.2\libgcc.a(_muldi3.o)
 .debug_line    0x00004945      0x105 c:/altera/13.0/nios2eds/bin/gnu/h-i686-mingw32/bin/../lib/gcc/nios2-elf/4.1.2\libgcc.a(_clzsi2.o)
 .debug_line    0x00004a4a      0x222 c:/altera/13.0/nios2eds/bin/gnu/h-i686-mingw32/bin/../lib/gcc/nios2-elf/4.1.2\libgcc.a(_pack_df.o)
 .debug_line    0x00004c6c      0x1e4 c:/altera/13.0/nios2eds/bin/gnu/h-i686-mingw32/bin/../lib/gcc/nios2-elf/4.1.2\libgcc.a(_unpack_df.o)
 .debug_line    0x00004e50      0x187 c:/altera/13.0/nios2eds/bin/gnu/h-i686-mingw32/bin/../lib/gcc/nios2-elf/4.1.2\libgcc.a(_fpcmp_parts_df.o)
 .debug_line    0x00004fd7       0xaa c:/altera/13.0/nios2eds/bin/gnu/h-i686-mingw32/bin/../lib/gcc/nios2-elf/4.1.2\libgcc.a(_clz.o)
 .debug_line    0x00005081      0x204 c:/altera/13.0/nios2eds/bin/gnu/h-i686-mingw32/bin/../lib/gcc/nios2-elf/4.1.2/../../../../nios2-elf/lib\libc.a(lib_a-atoi.o)
 .debug_line    0x00005285       0x7e c:/altera/13.0/nios2eds/bin/gnu/h-i686-mingw32/bin/../lib/gcc/nios2-elf/4.1.2/../../../../nios2-elf/lib\libc.a(lib_a-ctype_.o)
 .debug_line    0x00005303      0x2e2 c:/altera/13.0/nios2eds/bin/gnu/h-i686-mingw32/bin/../lib/gcc/nios2-elf/4.1.2/../../../../nios2-elf/lib\libc.a(lib_a-fclose.o)
 .debug_line    0x000055e5      0x407 c:/altera/13.0/nios2eds/bin/gnu/h-i686-mingw32/bin/../lib/gcc/nios2-elf/4.1.2/../../../../nios2-elf/lib\libc.a(lib_a-fflush.o)
 .debug_line    0x000059ec      0x253 c:/altera/13.0/nios2eds/bin/gnu/h-i686-mingw32/bin/../lib/gcc/nios2-elf/4.1.2/../../../../nios2-elf/lib\libc.a(lib_a-fgetpos.o)
 .debug_line    0x00005c3f      0x5fb c:/altera/13.0/nios2eds/bin/gnu/h-i686-mingw32/bin/../lib/gcc/nios2-elf/4.1.2/../../../../nios2-elf/lib\libc.a(lib_a-findfp.o)
 .debug_line    0x0000623a      0x33c c:/altera/13.0/nios2eds/bin/gnu/h-i686-mingw32/bin/../lib/gcc/nios2-elf/4.1.2/../../../../nios2-elf/lib\libc.a(lib_a-fopen.o)
 .debug_line    0x00006576      0x27e c:/altera/13.0/nios2eds/bin/gnu/h-i686-mingw32/bin/../lib/gcc/nios2-elf/4.1.2/../../../../nios2-elf/lib\libc.a(lib_a-fprintf.o)
 .debug_line    0x000067f4      0x450 c:/altera/13.0/nios2eds/bin/gnu/h-i686-mingw32/bin/../lib/gcc/nios2-elf/4.1.2/../../../../nios2-elf/lib\libc.a(lib_a-fread.o)
 .debug_line    0x00006c44      0x5e5 c:/altera/13.0/nios2eds/bin/gnu/h-i686-mingw32/bin/../lib/gcc/nios2-elf/4.1.2/../../../../nios2-elf/lib\libc.a(lib_a-freer.o)
 .debug_line    0x00007229      0x5a5 c:/altera/13.0/nios2eds/bin/gnu/h-i686-mingw32/bin/../lib/gcc/nios2-elf/4.1.2/../../../../nios2-elf/lib\libc.a(lib_a-fseek.o)
 .debug_line    0x000077ce      0x25e c:/altera/13.0/nios2eds/bin/gnu/h-i686-mingw32/bin/../lib/gcc/nios2-elf/4.1.2/../../../../nios2-elf/lib\libc.a(lib_a-fstatr.o)
 .debug_line    0x00007a2c      0x2e4 c:/altera/13.0/nios2eds/bin/gnu/h-i686-mingw32/bin/../lib/gcc/nios2-elf/4.1.2/../../../../nios2-elf/lib\libc.a(lib_a-ftell.o)
 .debug_line    0x00007d10      0x344 c:/altera/13.0/nios2eds/bin/gnu/h-i686-mingw32/bin/../lib/gcc/nios2-elf/4.1.2/../../../../nios2-elf/lib\libc.a(lib_a-fwalk.o)
 .debug_line    0x00008054      0x2d3 c:/altera/13.0/nios2eds/bin/gnu/h-i686-mingw32/bin/../lib/gcc/nios2-elf/4.1.2/../../../../nios2-elf/lib\libc.a(lib_a-fwrite.o)
 .debug_line    0x00008327      0x29e c:/altera/13.0/nios2eds/bin/gnu/h-i686-mingw32/bin/../lib/gcc/nios2-elf/4.1.2/../../../../nios2-elf/lib\libc.a(lib_a-getc.o)
 .debug_line    0x000085c5      0x224 c:/altera/13.0/nios2eds/bin/gnu/h-i686-mingw32/bin/../lib/gcc/nios2-elf/4.1.2/../../../../nios2-elf/lib\libc.a(lib_a-impure.o)
 .debug_line    0x000087e9      0x1d9 c:/altera/13.0/nios2eds/bin/gnu/h-i686-mingw32/bin/../lib/gcc/nios2-elf/4.1.2/../../../../nios2-elf/lib\libc.a(lib_a-int_errno.o)
 .debug_line    0x000089c2      0x3bd c:/altera/13.0/nios2eds/bin/gnu/h-i686-mingw32/bin/../lib/gcc/nios2-elf/4.1.2/../../../../nios2-elf/lib\libc.a(lib_a-makebuf.o)
 .debug_line    0x00008d7f      0x804 c:/altera/13.0/nios2eds/bin/gnu/h-i686-mingw32/bin/../lib/gcc/nios2-elf/4.1.2/../../../../nios2-elf/lib\libc.a(lib_a-mallocr.o)
 .debug_line    0x00009583      0x1a9 c:/altera/13.0/nios2eds/bin/gnu/h-i686-mingw32/bin/../lib/gcc/nios2-elf/4.1.2/../../../../nios2-elf/lib\libc.a(lib_a-memcpy.o)
 .debug_line    0x0000972c      0x301 c:/altera/13.0/nios2eds/bin/gnu/h-i686-mingw32/bin/../lib/gcc/nios2-elf/4.1.2/../../../../nios2-elf/lib\libc.a(lib_a-memmove.o)
 .debug_line    0x00009a2d      0x2f8 c:/altera/13.0/nios2eds/bin/gnu/h-i686-mingw32/bin/../lib/gcc/nios2-elf/4.1.2/../../../../nios2-elf/lib\libc.a(lib_a-memset.o)
 .debug_line    0x00009d25      0x275 c:/altera/13.0/nios2eds/bin/gnu/h-i686-mingw32/bin/../lib/gcc/nios2-elf/4.1.2/../../../../nios2-elf/lib\libc.a(lib_a-openr.o)
 .debug_line    0x00009f9a      0x29e c:/altera/13.0/nios2eds/bin/gnu/h-i686-mingw32/bin/../lib/gcc/nios2-elf/4.1.2/../../../../nios2-elf/lib\libc.a(lib_a-perror.o)
 .debug_line    0x0000a238      0x295 c:/altera/13.0/nios2eds/bin/gnu/h-i686-mingw32/bin/../lib/gcc/nios2-elf/4.1.2/../../../../nios2-elf/lib\libc.a(lib_a-printf.o)
 .debug_line    0x0000a4cd      0x2be c:/altera/13.0/nios2eds/bin/gnu/h-i686-mingw32/bin/../lib/gcc/nios2-elf/4.1.2/../../../../nios2-elf/lib\libc.a(lib_a-putc.o)
 .debug_line    0x0000a78b      0x25e c:/altera/13.0/nios2eds/bin/gnu/h-i686-mingw32/bin/../lib/gcc/nios2-elf/4.1.2/../../../../nios2-elf/lib\libc.a(lib_a-putchar.o)
 .debug_line    0x0000a9e9      0x2f1 c:/altera/13.0/nios2eds/bin/gnu/h-i686-mingw32/bin/../lib/gcc/nios2-elf/4.1.2/../../../../nios2-elf/lib\libc.a(lib_a-puts.o)
 .debug_line    0x0000acda      0x3be c:/altera/13.0/nios2eds/bin/gnu/h-i686-mingw32/bin/../lib/gcc/nios2-elf/4.1.2/../../../../nios2-elf/lib\libc.a(lib_a-refill.o)
 .debug_line    0x0000b098      0x287 c:/altera/13.0/nios2eds/bin/gnu/h-i686-mingw32/bin/../lib/gcc/nios2-elf/4.1.2/../../../../nios2-elf/lib\libc.a(lib_a-rget.o)
 .debug_line    0x0000b31f      0x290 c:/altera/13.0/nios2eds/bin/gnu/h-i686-mingw32/bin/../lib/gcc/nios2-elf/4.1.2/../../../../nios2-elf/lib\libc.a(lib_a-sbrkr.o)
 .debug_line    0x0000b5af      0x31c c:/altera/13.0/nios2eds/bin/gnu/h-i686-mingw32/bin/../lib/gcc/nios2-elf/4.1.2/../../../../nios2-elf/lib\libc.a(lib_a-sprintf.o)
 .debug_line    0x0000b8cb      0x35b c:/altera/13.0/nios2eds/bin/gnu/h-i686-mingw32/bin/../lib/gcc/nios2-elf/4.1.2/../../../../nios2-elf/lib\libc.a(lib_a-sscanf.o)
 .debug_line    0x0000bc26      0x386 c:/altera/13.0/nios2eds/bin/gnu/h-i686-mingw32/bin/../lib/gcc/nios2-elf/4.1.2/../../../../nios2-elf/lib\libc.a(lib_a-stdio.o)
 .debug_line    0x0000bfac      0x209 c:/altera/13.0/nios2eds/bin/gnu/h-i686-mingw32/bin/../lib/gcc/nios2-elf/4.1.2/../../../../nios2-elf/lib\libc.a(lib_a-strcasecmp.o)
 .debug_line    0x0000c1b5      0x286 c:/altera/13.0/nios2eds/bin/gnu/h-i686-mingw32/bin/../lib/gcc/nios2-elf/4.1.2/../../../../nios2-elf/lib\libc.a(lib_a-strcat.o)
 .debug_line    0x0000c43b      0x2be c:/altera/13.0/nios2eds/bin/gnu/h-i686-mingw32/bin/../lib/gcc/nios2-elf/4.1.2/../../../../nios2-elf/lib\libc.a(lib_a-strchr.o)
 .debug_line    0x0000c6f9      0x2cc c:/altera/13.0/nios2eds/bin/gnu/h-i686-mingw32/bin/../lib/gcc/nios2-elf/4.1.2/../../../../nios2-elf/lib\libc.a(lib_a-strcmp.o)
 .debug_line    0x0000c9c5      0x27e c:/altera/13.0/nios2eds/bin/gnu/h-i686-mingw32/bin/../lib/gcc/nios2-elf/4.1.2/../../../../nios2-elf/lib\libc.a(lib_a-strcpy.o)
 .debug_line    0x0000cc43      0x4db c:/altera/13.0/nios2eds/bin/gnu/h-i686-mingw32/bin/../lib/gcc/nios2-elf/4.1.2/../../../../nios2-elf/lib\libc.a(lib_a-strerror.o)
 .debug_line    0x0000d11e      0x264 c:/altera/13.0/nios2eds/bin/gnu/h-i686-mingw32/bin/../lib/gcc/nios2-elf/4.1.2/../../../../nios2-elf/lib\libc.a(lib_a-strlen.o)
 .debug_line    0x0000d382      0x2f5 c:/altera/13.0/nios2eds/bin/gnu/h-i686-mingw32/bin/../lib/gcc/nios2-elf/4.1.2/../../../../nios2-elf/lib\libc.a(lib_a-strncmp.o)
 .debug_line    0x0000d677      0x2c7 c:/altera/13.0/nios2eds/bin/gnu/h-i686-mingw32/bin/../lib/gcc/nios2-elf/4.1.2/../../../../nios2-elf/lib\libc.a(lib_a-strncpy.o)
 .debug_line    0x0000d93e      0x6c7 c:/altera/13.0/nios2eds/bin/gnu/h-i686-mingw32/bin/../lib/gcc/nios2-elf/4.1.2/../../../../nios2-elf/lib\libc.a(lib_a-strstr.o)
 .debug_line    0x0000e005      0x247 c:/altera/13.0/nios2eds/bin/gnu/h-i686-mingw32/bin/../lib/gcc/nios2-elf/4.1.2/../../../../nios2-elf/lib\libc.a(lib_a-strtok.o)
 .debug_line    0x0000e24c      0x302 c:/altera/13.0/nios2eds/bin/gnu/h-i686-mingw32/bin/../lib/gcc/nios2-elf/4.1.2/../../../../nios2-elf/lib\libc.a(lib_a-strtok_r.o)
 .debug_line    0x0000e54e      0x3fd c:/altera/13.0/nios2eds/bin/gnu/h-i686-mingw32/bin/../lib/gcc/nios2-elf/4.1.2/../../../../nios2-elf/lib\libc.a(lib_a-strtol.o)
 .debug_line    0x0000e94b       0x91 c:/altera/13.0/nios2eds/bin/gnu/h-i686-mingw32/bin/../lib/gcc/nios2-elf/4.1.2/../../../../nios2-elf/lib\libc.a(lib_a-u_strerr.o)
 .debug_line    0x0000e9dc     0x1106 c:/altera/13.0/nios2eds/bin/gnu/h-i686-mingw32/bin/../lib/gcc/nios2-elf/4.1.2/../../../../nios2-elf/lib\libc.a(lib_a-vfprintf.o)
 .debug_line    0x0000fae2     0x1037 c:/altera/13.0/nios2eds/bin/gnu/h-i686-mingw32/bin/../lib/gcc/nios2-elf/4.1.2/../../../../nios2-elf/lib\libc.a(lib_a-vfscanf.o)
 .debug_line    0x00010b19      0x34a c:/altera/13.0/nios2eds/bin/gnu/h-i686-mingw32/bin/../lib/gcc/nios2-elf/4.1.2/../../../../nios2-elf/lib\libc.a(lib_a-wbuf.o)
 .debug_line    0x00010e63      0x291 c:/altera/13.0/nios2eds/bin/gnu/h-i686-mingw32/bin/../lib/gcc/nios2-elf/4.1.2/../../../../nios2-elf/lib\libc.a(lib_a-writer.o)
 .debug_line    0x000110f4      0x2ea c:/altera/13.0/nios2eds/bin/gnu/h-i686-mingw32/bin/../lib/gcc/nios2-elf/4.1.2/../../../../nios2-elf/lib\libc.a(lib_a-wsetup.o)
 .debug_line    0x000113de      0x291 c:/altera/13.0/nios2eds/bin/gnu/h-i686-mingw32/bin/../lib/gcc/nios2-elf/4.1.2/../../../../nios2-elf/lib\libc.a(lib_a-closer.o)
 .debug_line    0x0001166f     0x12c0 c:/altera/13.0/nios2eds/bin/gnu/h-i686-mingw32/bin/../lib/gcc/nios2-elf/4.1.2/../../../../nios2-elf/lib\libc.a(lib_a-dtoa.o)
 .debug_line    0x0001292f      0x290 c:/altera/13.0/nios2eds/bin/gnu/h-i686-mingw32/bin/../lib/gcc/nios2-elf/4.1.2/../../../../nios2-elf/lib\libc.a(lib_a-flags.o)
 .debug_line    0x00012bbf      0x27f c:/altera/13.0/nios2eds/bin/gnu/h-i686-mingw32/bin/../lib/gcc/nios2-elf/4.1.2/../../../../nios2-elf/lib\libc.a(lib_a-fputc.o)
 .debug_line    0x00012e3e      0x2c2 c:/altera/13.0/nios2eds/bin/gnu/h-i686-mingw32/bin/../lib/gcc/nios2-elf/4.1.2/../../../../nios2-elf/lib\libc.a(lib_a-fputs.o)
 .debug_line    0x00013100      0x63b c:/altera/13.0/nios2eds/bin/gnu/h-i686-mingw32/bin/../lib/gcc/nios2-elf/4.1.2/../../../../nios2-elf/lib\libc.a(lib_a-fvwrite.o)
 .debug_line    0x0001373b      0x292 c:/altera/13.0/nios2eds/bin/gnu/h-i686-mingw32/bin/../lib/gcc/nios2-elf/4.1.2/../../../../nios2-elf/lib\libc.a(lib_a-isattyr.o)
 .debug_line    0x000139cd      0x1f5 c:/altera/13.0/nios2eds/bin/gnu/h-i686-mingw32/bin/../lib/gcc/nios2-elf/4.1.2/../../../../nios2-elf/lib\libc.a(lib_a-iswspace.o)
 .debug_line    0x00013bc2      0x2c2 c:/altera/13.0/nios2eds/bin/gnu/h-i686-mingw32/bin/../lib/gcc/nios2-elf/4.1.2/../../../../nios2-elf/lib\libc.a(lib_a-locale.o)
 .debug_line    0x00013e84      0x291 c:/altera/13.0/nios2eds/bin/gnu/h-i686-mingw32/bin/../lib/gcc/nios2-elf/4.1.2/../../../../nios2-elf/lib\libc.a(lib_a-lseekr.o)
 .debug_line    0x00014115      0x2c0 c:/altera/13.0/nios2eds/bin/gnu/h-i686-mingw32/bin/../lib/gcc/nios2-elf/4.1.2/../../../../nios2-elf/lib\libc.a(lib_a-mbrtowc.o)
 .debug_line    0x000143d5      0x230 c:/altera/13.0/nios2eds/bin/gnu/h-i686-mingw32/bin/../lib/gcc/nios2-elf/4.1.2/../../../../nios2-elf/lib\libc.a(lib_a-mbtowc_r.o)
 .debug_line    0x00014605      0x2fa c:/altera/13.0/nios2eds/bin/gnu/h-i686-mingw32/bin/../lib/gcc/nios2-elf/4.1.2/../../../../nios2-elf/lib\libc.a(lib_a-memchr.o)
 .debug_line    0x000148ff      0x296 c:/altera/13.0/nios2eds/bin/gnu/h-i686-mingw32/bin/../lib/gcc/nios2-elf/4.1.2/../../../../nios2-elf/lib\libc.a(lib_a-memcmp.o)
 .debug_line    0x00014b95     0x123d c:/altera/13.0/nios2eds/bin/gnu/h-i686-mingw32/bin/../lib/gcc/nios2-elf/4.1.2/../../../../nios2-elf/lib\libc.a(lib_a-mprec.o)
 .debug_line    0x00015dd2      0x290 c:/altera/13.0/nios2eds/bin/gnu/h-i686-mingw32/bin/../lib/gcc/nios2-elf/4.1.2/../../../../nios2-elf/lib\libc.a(lib_a-readr.o)
 .debug_line    0x00016062      0x584 c:/altera/13.0/nios2eds/bin/gnu/h-i686-mingw32/bin/../lib/gcc/nios2-elf/4.1.2/../../../../nios2-elf/lib\libc.a(lib_a-reallocr.o)
 .debug_line    0x000165e6      0x21c c:/altera/13.0/nios2eds/bin/gnu/h-i686-mingw32/bin/../lib/gcc/nios2-elf/4.1.2/../../../../nios2-elf/lib\libc.a(lib_a-s_isinfd.o)
 .debug_line    0x00016802      0x214 c:/altera/13.0/nios2eds/bin/gnu/h-i686-mingw32/bin/../lib/gcc/nios2-elf/4.1.2/../../../../nios2-elf/lib\libc.a(lib_a-s_isnand.o)
 .debug_line    0x00016a16      0x2c3 c:/altera/13.0/nios2eds/bin/gnu/h-i686-mingw32/bin/../lib/gcc/nios2-elf/4.1.2/../../../../nios2-elf/lib\libc.a(lib_a-sccl.o)
 .debug_line    0x00016cd9      0x202 c:/altera/13.0/nios2eds/bin/gnu/h-i686-mingw32/bin/../lib/gcc/nios2-elf/4.1.2/../../../../nios2-elf/lib\libc.a(lib_a-sf_nan.o)
 .debug_line    0x00016edb      0xfde c:/altera/13.0/nios2eds/bin/gnu/h-i686-mingw32/bin/../lib/gcc/nios2-elf/4.1.2/../../../../nios2-elf/lib\libc.a(lib_a-strtod.o)
 .debug_line    0x00017eb9      0x400 c:/altera/13.0/nios2eds/bin/gnu/h-i686-mingw32/bin/../lib/gcc/nios2-elf/4.1.2/../../../../nios2-elf/lib\libc.a(lib_a-strtoll_r.o)
 .debug_line    0x000182b9      0x3b4 c:/altera/13.0/nios2eds/bin/gnu/h-i686-mingw32/bin/../lib/gcc/nios2-elf/4.1.2/../../../../nios2-elf/lib\libc.a(lib_a-strtoul.o)
 .debug_line    0x0001866d      0x3a9 c:/altera/13.0/nios2eds/bin/gnu/h-i686-mingw32/bin/../lib/gcc/nios2-elf/4.1.2/../../../../nios2-elf/lib\libc.a(lib_a-strtoull_r.o)
 .debug_line    0x00018a16      0x499 c:/altera/13.0/nios2eds/bin/gnu/h-i686-mingw32/bin/../lib/gcc/nios2-elf/4.1.2/../../../../nios2-elf/lib\libc.a(lib_a-ungetc.o)
 .debug_line    0x00018eaf      0x256 c:/altera/13.0/nios2eds/bin/gnu/h-i686-mingw32/bin/../lib/gcc/nios2-elf/4.1.2/../../../../nios2-elf/lib\libc.a(lib_a-callocr.o)
 .debug_line    0x00019105      0x8bf c:/altera/13.0/nios2eds/bin/gnu/h-i686-mingw32/bin/../lib/gcc/nios2-elf/4.1.2/../../../../nios2-elf/lib\libc.a(lib_a-gdtoa-gethex.o)
 .debug_line    0x000199c4      0x475 c:/altera/13.0/nios2eds/bin/gnu/h-i686-mingw32/bin/../lib/gcc/nios2-elf/4.1.2/../../../../nios2-elf/lib\libc.a(lib_a-gdtoa-hexnan.o)
 .debug_line    0x00019e39      0x2f2 c:/altera/13.0/nios2eds/bin/gnu/h-i686-mingw32/bin/../lib/gcc/nios2-elf/4.1.2\libgcc.a(_udivdi3.o)
 .debug_line    0x0001a12b      0x37d c:/altera/13.0/nios2eds/bin/gnu/h-i686-mingw32/bin/../lib/gcc/nios2-elf/4.1.2\libgcc.a(_umoddi3.o)
 .debug_line    0x0001a4a8      0x121 c:/altera/13.0/nios2eds/bin/gnu/h-i686-mingw32/bin/../lib/gcc/nios2-elf/4.1.2\libgcc.a(_ne_sf.o)
 .debug_line    0x0001a5c9      0x121 c:/altera/13.0/nios2eds/bin/gnu/h-i686-mingw32/bin/../lib/gcc/nios2-elf/4.1.2\libgcc.a(_gt_sf.o)
 .debug_line    0x0001a6ea      0x121 c:/altera/13.0/nios2eds/bin/gnu/h-i686-mingw32/bin/../lib/gcc/nios2-elf/4.1.2\libgcc.a(_lt_sf.o)
 .debug_line    0x0001a80b      0x301 c:/altera/13.0/nios2eds/bin/gnu/h-i686-mingw32/bin/../lib/gcc/nios2-elf/4.1.2\libgcc.a(_div_df.o)
 .debug_line    0x0001ab0c      0x129 c:/altera/13.0/nios2eds/bin/gnu/h-i686-mingw32/bin/../lib/gcc/nios2-elf/4.1.2\libgcc.a(_eq_df.o)
 .debug_line    0x0001ac35      0x129 c:/altera/13.0/nios2eds/bin/gnu/h-i686-mingw32/bin/../lib/gcc/nios2-elf/4.1.2\libgcc.a(_ne_df.o)
 .debug_line    0x0001ad5e      0x129 c:/altera/13.0/nios2eds/bin/gnu/h-i686-mingw32/bin/../lib/gcc/nios2-elf/4.1.2\libgcc.a(_gt_df.o)
 .debug_line    0x0001ae87      0x129 c:/altera/13.0/nios2eds/bin/gnu/h-i686-mingw32/bin/../lib/gcc/nios2-elf/4.1.2\libgcc.a(_lt_df.o)
 .debug_line    0x0001afb0      0x129 c:/altera/13.0/nios2eds/bin/gnu/h-i686-mingw32/bin/../lib/gcc/nios2-elf/4.1.2\libgcc.a(_le_df.o)
 .debug_line    0x0001b0d9      0x175 c:/altera/13.0/nios2eds/bin/gnu/h-i686-mingw32/bin/../lib/gcc/nios2-elf/4.1.2\libgcc.a(_si_to_df.o)
 .debug_line    0x0001b24e      0x121 c:/altera/13.0/nios2eds/bin/gnu/h-i686-mingw32/bin/../lib/gcc/nios2-elf/4.1.2\libgcc.a(_df_to_sf.o)
 .debug_line    0x0001b36f      0x197 c:/altera/13.0/nios2eds/bin/gnu/h-i686-mingw32/bin/../lib/gcc/nios2-elf/4.1.2\libgcc.a(_unpack_sf.o)
 .debug_line    0x0001b506      0x177 c:/altera/13.0/nios2eds/bin/gnu/h-i686-mingw32/bin/../lib/gcc/nios2-elf/4.1.2\libgcc.a(_fpcmp_parts_sf.o)
 .debug_line    0x0001b67d       0xe1 c:/altera/13.0/nios2eds/bin/gnu/h-i686-mingw32/bin/../lib/gcc/nios2-elf/4.1.2\libgcc.a(_make_sf.o)
 .debug_line    0x0001b75e      0x1ca c:/altera/13.0/nios2eds/bin/gnu/h-i686-mingw32/bin/../lib/gcc/nios2-elf/4.1.2\libgcc.a(_pack_sf.o)
 .debug_line    0x0001b928      0x1db ../WebServer_bsp/\libucosii_bsp.a(alt_dcache_flush.o)
 .debug_line    0x0001bb03      0x2c2 ../WebServer_bsp/\libucosii_bsp.a(alt_flash_dev.o)
 .debug_line    0x0001bdc5      0x2fb ../WebServer_bsp/\libucosii_bsp.a(alt_fstat.o)
 .debug_line    0x0001c0c0      0x367 ../WebServer_bsp/\libucosii_bsp.a(alt_irq_register.o)
 .debug_line    0x0001c427       0x72 ../WebServer_bsp/\libucosii_bsp.a(alt_irq_vars.o)
 .debug_line    0x0001c499      0x2fc ../WebServer_bsp/\libucosii_bsp.a(alt_isatty.o)
 .debug_line    0x0001c795      0x2fb ../WebServer_bsp/\libucosii_bsp.a(alt_lseek.o)
 .debug_line    0x0001ca90      0x343 ../WebServer_bsp/\libucosii_bsp.a(alt_main.o)
 .debug_line    0x0001cdd3      0x359 ../WebServer_bsp/\libucosii_bsp.a(alt_open.o)
 .debug_line    0x0001d12c      0x273 ../WebServer_bsp/\libucosii_bsp.a(alt_release_fd.o)
 .debug_line    0x0001d39f      0x25b ../WebServer_bsp/\libucosii_bsp.a(alt_sbrk.o)
 .debug_line    0x0001d5fa      0x310 ../WebServer_bsp/\libucosii_bsp.a(alt_tick.o)
 .debug_line    0x0001d90a      0x2a7 ../WebServer_bsp/\libucosii_bsp.a(alt_usleep.o)
 .debug_line    0x0001dbb1      0x2b9 ../WebServer_bsp/\libucosii_bsp.a(alt_env_lock.o)
 .debug_line    0x0001de6a      0x375 ../WebServer_bsp/\libucosii_bsp.a(alt_malloc_lock.o)
 .debug_line    0x0001e1df     0x165d ../WebServer_bsp/\libucosii_bsp.a(os_core.o)
 .debug_line    0x0001f83c      0x382 ../WebServer_bsp/\libucosii_bsp.a(os_dbg.o)
 .debug_line    0x0001fbbe     0x11e1 ../WebServer_bsp/\libucosii_bsp.a(os_flag.o)
 .debug_line    0x00020d9f      0xab0 ../WebServer_bsp/\libucosii_bsp.a(os_mbox.o)
 .debug_line    0x0002184f      0x784 ../WebServer_bsp/\libucosii_bsp.a(os_mem.o)
 .debug_line    0x00021fd3      0xe65 ../WebServer_bsp/\libucosii_bsp.a(os_q.o)
 .debug_line    0x00022e38      0xa1d ../WebServer_bsp/\libucosii_bsp.a(os_sem.o)
 .debug_line    0x00023855     0x1126 ../WebServer_bsp/\libucosii_bsp.a(os_task.o)
 .debug_line    0x0002497b      0x529 ../WebServer_bsp/\libucosii_bsp.a(os_time.o)
 .debug_line    0x00024ea4      0x41d ../WebServer_bsp/\libucosii_bsp.a(alt_sys_init.o)
 .debug_line    0x000252c1      0x56d ../WebServer_bsp/\libucosii_bsp.a(altera_avalon_cfi_flash.o)
 .debug_line    0x0002582e      0x973 ../WebServer_bsp/\libucosii_bsp.a(altera_avalon_cfi_flash_table.o)
 .debug_line    0x000261a1      0x6e9 ../WebServer_bsp/\libucosii_bsp.a(altera_avalon_epcs_flash_controller.o)
 .debug_line    0x0002688a      0x313 ../WebServer_bsp/\libucosii_bsp.a(altera_avalon_jtag_uart_fd.o)
 .debug_line    0x00026b9d      0x592 ../WebServer_bsp/\libucosii_bsp.a(altera_avalon_jtag_uart_init.o)
 .debug_line    0x0002712f      0x350 ../WebServer_bsp/\libucosii_bsp.a(altera_avalon_jtag_uart_ioctl.o)
 .debug_line    0x0002747f      0x48e ../WebServer_bsp/\libucosii_bsp.a(altera_avalon_jtag_uart_read.o)
 .debug_line    0x0002790d      0x49c ../WebServer_bsp/\libucosii_bsp.a(altera_avalon_jtag_uart_write.o)
 .debug_line    0x00027da9      0x93a ../WebServer_bsp/\libucosii_bsp.a(altera_avalon_lcd_16207.o)
 .debug_line    0x000286e3      0x2b3 ../WebServer_bsp/\libucosii_bsp.a(altera_avalon_lcd_16207_fd.o)
 .debug_line    0x00028996      0x2ad ../WebServer_bsp/\libucosii_bsp.a(altera_avalon_timer_sc.o)
 .debug_line    0x00028c43      0x2f1 ../WebServer_bsp/\libucosii_bsp.a(altera_avalon_uart_fd.o)
 .debug_line    0x00028f34      0x561 ../WebServer_bsp/\libucosii_bsp.a(altera_avalon_uart_init.o)
 .debug_line    0x00029495      0x4ad ../WebServer_bsp/\libucosii_bsp.a(altera_avalon_uart_read.o)
 .debug_line    0x00029942      0x48f ../WebServer_bsp/\libucosii_bsp.a(altera_avalon_uart_write.o)
 .debug_line    0x00029dd1      0x81c ../WebServer_bsp/\libucosii_bsp.a(altera_ro_zipfs.o)
 .debug_line    0x0002a5ed      0x405 ../WebServer_bsp/\libucosii_bsp.a(epcs_commands.o)
 .debug_line    0x0002a9f2      0x341 ../WebServer_bsp/\libucosii_bsp.a(alt_iniche_close.o)
 .debug_line    0x0002ad33      0x3e4 ../WebServer_bsp/\libucosii_bsp.a(alt_iniche_dev.o)
 .debug_line    0x0002b117      0x340 ../WebServer_bsp/\libucosii_bsp.a(alt_iniche_read.o)
 .debug_line    0x0002b457      0x351 ../WebServer_bsp/\libucosii_bsp.a(alt_iniche_write.o)
 .debug_line    0x0002b7a8      0x7a0 ../WebServer_bsp/\libucosii_bsp.a(ipnet.o)
 .debug_line    0x0002bf48      0x4e1 ../WebServer_bsp/\libucosii_bsp.a(ipstart.o)
 .debug_line    0x0002c429      0x916 ../WebServer_bsp/\libucosii_bsp.a(igmp_cmn.o)
 .debug_line    0x0002cd3f      0x6c1 ../WebServer_bsp/\libucosii_bsp.a(bsdsock.o)
 .debug_line    0x0002d400      0x304 ../WebServer_bsp/\libucosii_bsp.a(cksum.o)
 .debug_line    0x0002d704      0x7a3 ../WebServer_bsp/\libucosii_bsp.a(in_utils.o)
 .debug_line    0x0002dea7      0x439 ../WebServer_bsp/\libucosii_bsp.a(netmain.o)
 .debug_line    0x0002e2e0      0x5a2 ../WebServer_bsp/\libucosii_bsp.a(tk_crnos.o)
 .debug_line    0x0002e882     0x1063 ../WebServer_bsp/\libucosii_bsp.a(dhcpclnt.o)
 .debug_line    0x0002f8e5      0x2f9 ../WebServer_bsp/\libucosii_bsp.a(dhcputil.o)
 .debug_line    0x0002fbde      0x643 ../WebServer_bsp/\libucosii_bsp.a(pktalloc.o)
 .debug_line    0x00030221      0x3d5 ../WebServer_bsp/\libucosii_bsp.a(q.o)
 .debug_line    0x000305f6      0x468 ../WebServer_bsp/\libucosii_bsp.a(udp_open.o)
 .debug_line    0x00030a5e       0xaf ../WebServer_bsp/\libucosii_bsp.a(asm_cksum.o)
 .debug_line    0x00030b0d      0x46c ../WebServer_bsp/\libucosii_bsp.a(brdutils.o)
 .debug_line    0x00030f79      0x4f9 ../WebServer_bsp/\libucosii_bsp.a(osportco.o)
 .debug_line    0x00031472      0x638 ../WebServer_bsp/\libucosii_bsp.a(targnios.o)
 .debug_line    0x00031aaa      0xf1d ../WebServer_bsp/\libucosii_bsp.a(nptcp.o)
 .debug_line    0x000329c7      0x842 ../WebServer_bsp/\libucosii_bsp.a(rawsock.o)
 .debug_line    0x00033209      0xe30 ../WebServer_bsp/\libucosii_bsp.a(sockcall.o)
 .debug_line    0x00034039     0x12b2 ../WebServer_bsp/\libucosii_bsp.a(socket.o)
 .debug_line    0x000352eb      0xbe6 ../WebServer_bsp/\libucosii_bsp.a(socket2.o)
 .debug_line    0x00035ed1      0x727 ../WebServer_bsp/\libucosii_bsp.a(soselect.o)
 .debug_line    0x000365f8     0x15e8 ../WebServer_bsp/\libucosii_bsp.a(tcp_in.o)
 .debug_line    0x00037be0      0xa53 ../WebServer_bsp/\libucosii_bsp.a(tcp_out.o)
 .debug_line    0x00038633      0x7bd ../WebServer_bsp/\libucosii_bsp.a(tcp_subr.o)
 .debug_line    0x00038df0      0x60d ../WebServer_bsp/\libucosii_bsp.a(tcp_timr.o)
 .debug_line    0x000393fd      0x89c ../WebServer_bsp/\libucosii_bsp.a(tcp_usr.o)
 .debug_line    0x00039c99      0x339 ../WebServer_bsp/\libucosii_bsp.a(tcpport.o)
 .debug_line    0x00039fd2      0x953 ../WebServer_bsp/\libucosii_bsp.a(udpsock.o)
 .debug_line    0x0003a925      0x2d6 ../WebServer_bsp/\libucosii_bsp.a(alt_alarm_start.o)
 .debug_line    0x0003abfb      0x253 ../WebServer_bsp/\libucosii_bsp.a(alt_busy_sleep.o)
 .debug_line    0x0003ae4e      0x2f3 ../WebServer_bsp/\libucosii_bsp.a(alt_close.o)
 .debug_line    0x0003b141      0x2b4 ../WebServer_bsp/\libucosii_bsp.a(alt_dev.o)
 .debug_line    0x0003b3f5      0x254 ../WebServer_bsp/\libucosii_bsp.a(alt_dev_llist_insert.o)
 .debug_line    0x0003b649       0x83 ../WebServer_bsp/\libucosii_bsp.a(alt_do_ctors.o)
 .debug_line    0x0003b6cc       0x83 ../WebServer_bsp/\libucosii_bsp.a(alt_do_dtors.o)
 .debug_line    0x0003b74f      0x1a4 ../WebServer_bsp/\libucosii_bsp.a(alt_errno.o)
 .debug_line    0x0003b8f3      0x2d4 ../WebServer_bsp/\libucosii_bsp.a(alt_find_dev.o)
 .debug_line    0x0003bbc7      0x2e5 ../WebServer_bsp/\libucosii_bsp.a(alt_find_file.o)
 .debug_line    0x0003beac      0x29d ../WebServer_bsp/\libucosii_bsp.a(alt_fs_reg.o)
 .debug_line    0x0003c149      0x315 ../WebServer_bsp/\libucosii_bsp.a(alt_get_fd.o)
 .debug_line    0x0003c45e      0x2c2 ../WebServer_bsp/\libucosii_bsp.a(alt_iic.o)
 .debug_line    0x0003c720      0x243 ../WebServer_bsp/\libucosii_bsp.a(alt_iic_isr_register.o)
 .debug_line    0x0003c963      0x31d ../WebServer_bsp/\libucosii_bsp.a(alt_io_redirect.o)
 .debug_line    0x0003cc80       0x6b ../WebServer_bsp/\libucosii_bsp.a(alt_irq_entry.o)
 .debug_line    0x0003cceb      0x2be ../WebServer_bsp/\libucosii_bsp.a(alt_irq_handler.o)
 .debug_line    0x0003cfa9      0x322 ../WebServer_bsp/\libucosii_bsp.a(alt_read.o)
 .debug_line    0x0003d2cb      0x1b3 ../WebServer_bsp/\libucosii_bsp.a(alt_remap_cached.o)
 .debug_line    0x0003d47e      0x1bd ../WebServer_bsp/\libucosii_bsp.a(alt_remap_uncached.o)
 .debug_line    0x0003d63b      0x323 ../WebServer_bsp/\libucosii_bsp.a(alt_write.o)
 .debug_line    0x0003d95e      0x1c8 ../WebServer_bsp/\libucosii_bsp.a(altera_nios2_qsys_irq.o)
 .debug_line    0x0003db26       0x86 ../WebServer_bsp/\libucosii_bsp.a(os_cpu_a.o)
 .debug_line    0x0003dbac      0x32a ../WebServer_bsp/\libucosii_bsp.a(os_cpu_c.o)
 .debug_line    0x0003ded6      0x43f ../WebServer_bsp/\libucosii_bsp.a(altera_avalon_cfi_flash_amd.o)
 .debug_line    0x0003e315      0x431 ../WebServer_bsp/\libucosii_bsp.a(altera_avalon_cfi_flash_intel.o)
 .debug_line    0x0003e746      0x1ef ../WebServer_bsp/\libucosii_bsp.a(altera_avalon_spi.o)
 .debug_line    0x0003e935      0x519 ../WebServer_bsp/\libucosii_bsp.a(allports.o)
 .debug_line    0x0003ee4e      0x47d ../WebServer_bsp/\libucosii_bsp.a(timeouts.o)
 .debug_line    0x0003f2cb      0x36a ../WebServer_bsp/\libucosii_bsp.a(tk_misc.o)
 .debug_line    0x0003f635      0x389 ../WebServer_bsp/\libucosii_bsp.a(alt_iniche_fcntl.o)
 .debug_line    0x0003f9be      0xc9c ../WebServer_bsp/\libucosii_bsp.a(et_arp.o)
 .debug_line    0x0004065a      0x473 ../WebServer_bsp/\libucosii_bsp.a(iface.o)
 .debug_line    0x00040acd      0xf8f ../WebServer_bsp/\libucosii_bsp.a(ip.o)
 .debug_line    0x00041a5c      0xf76 ../WebServer_bsp/\libucosii_bsp.a(ip_reasm.o)
 .debug_line    0x000429d2      0x780 ../WebServer_bsp/\libucosii_bsp.a(ipdemux.o)
 .debug_line    0x00043152      0x462 ../WebServer_bsp/\libucosii_bsp.a(ipmc.o)
 .debug_line    0x000435b4      0x332 ../WebServer_bsp/\libucosii_bsp.a(ipport.o)
 .debug_line    0x000438e6      0x5b3 ../WebServer_bsp/\libucosii_bsp.a(ipraw.o)
 .debug_line    0x00043e99      0x5b5 ../WebServer_bsp/\libucosii_bsp.a(iproute.o)
 .debug_line    0x0004444e      0x7f0 ../WebServer_bsp/\libucosii_bsp.a(udp.o)
 .debug_line    0x00044c3e      0x434 ../WebServer_bsp/\libucosii_bsp.a(igmp.o)
 .debug_line    0x00045072      0x627 ../WebServer_bsp/\libucosii_bsp.a(igmp2.o)
 .debug_line    0x00045699      0x70b ../WebServer_bsp/\libucosii_bsp.a(ipopt.o)
 .debug_line    0x00045da4      0x5f5 ../WebServer_bsp/\libucosii_bsp.a(u_mctest.o)
 .debug_line    0x00046399      0x439 ../WebServer_bsp/\libucosii_bsp.a(dhcsetup.o)
 .debug_line    0x000467d2      0x443 ../WebServer_bsp/\libucosii_bsp.a(memdev.o)
 .debug_line    0x00046c15      0x647 ../WebServer_bsp/\libucosii_bsp.a(parseip.o)
 .debug_line    0x0004725c      0x3b3 ../WebServer_bsp/\libucosii_bsp.a(tcpcksum.o)
 .debug_line    0x0004760f      0x767 ../WebServer_bsp/\libucosii_bsp.a(in_pcb.o)
 .debug_line    0x00047d76      0xff1 ../WebServer_bsp/\libucosii_bsp.a(vfsfiles.o)
 .debug_line    0x00048d67      0x2be ../WebServer_bsp/\libucosii_bsp.a(vfsport.o)
 .debug_line    0x00049025       0xab ../WebServer_bsp/\libucosii_bsp.a(alt_exception_entry.o)
 .debug_line    0x000490d0      0x352 ../WebServer_bsp/\libucosii_bsp.a(alt_fcntl.o)
 .debug_line    0x00049422      0x952 ../WebServer_bsp/\libucosii_bsp.a(icmp.o)
 .debug_line    0x00049d74      0x1fa c:/altera/13.0/nios2eds/bin/gnu/h-i686-mingw32/bin/../lib/gcc/nios2-elf/4.1.2/../../../../nios2-elf/lib\libc.a(lib_a-atexit.o)
 .debug_line    0x00049f6e      0x206 c:/altera/13.0/nios2eds/bin/gnu/h-i686-mingw32/bin/../lib/gcc/nios2-elf/4.1.2/../../../../nios2-elf/lib\libc.a(lib_a-calloc.o)
 .debug_line    0x0004a174      0x232 c:/altera/13.0/nios2eds/bin/gnu/h-i686-mingw32/bin/../lib/gcc/nios2-elf/4.1.2/../../../../nios2-elf/lib\libc.a(lib_a-exit.o)
 .debug_line    0x0004a3a6      0x245 c:/altera/13.0/nios2eds/bin/gnu/h-i686-mingw32/bin/../lib/gcc/nios2-elf/4.1.2/../../../../nios2-elf/lib\libc.a(lib_a-malloc.o)
 .debug_line    0x0004a5eb      0x269 c:/altera/13.0/nios2eds/bin/gnu/h-i686-mingw32/bin/../lib/gcc/nios2-elf/4.1.2/../../../../nios2-elf/lib\libc.a(lib_a-vprintf.o)
 .debug_line    0x0004a854      0x2d3 c:/altera/13.0/nios2eds/bin/gnu/h-i686-mingw32/bin/../lib/gcc/nios2-elf/4.1.2/../../../../nios2-elf/lib\libc.a(lib_a-vsprintf.o)
 .debug_line    0x0004ab27      0x30d c:/altera/13.0/nios2eds/bin/gnu/h-i686-mingw32/bin/../lib/gcc/nios2-elf/4.1.2/../../../../nios2-elf/lib\libc.a(lib_a-__atexit.o)
 .debug_line    0x0004ae34      0x361 c:/altera/13.0/nios2eds/bin/gnu/h-i686-mingw32/bin/../lib/gcc/nios2-elf/4.1.2/../../../../nios2-elf/lib\libc.a(lib_a-__call_atexit.o)
 .debug_line    0x0004b195      0x270 ../WebServer_bsp/\libucosii_bsp.a(alt_exit.o)

.debug_frame    0x00000000     0x732c
 *(.debug_frame)
 .debug_frame   0x00000000       0x2c obj/default/alt_error_handler.o
 .debug_frame   0x0000002c      0x19c obj/default/dm9000a.o
 .debug_frame   0x000001c8      0x2a0 obj/default/http.o
 .debug_frame   0x00000468       0xf4 obj/default/network_utilities.o
 .debug_frame   0x0000055c       0x70 obj/default/srec_flash.o
 .debug_frame   0x000005cc       0xd4 obj/default/web_server.o
 .debug_frame   0x000006a0       0x30 c:/altera/13.0/nios2eds/bin/gnu/h-i686-mingw32/bin/../lib/gcc/nios2-elf/4.1.2\libgcc.a(_fixunsdfsi.o)
 .debug_frame   0x000006d0       0x70 c:/altera/13.0/nios2eds/bin/gnu/h-i686-mingw32/bin/../lib/gcc/nios2-elf/4.1.2\libgcc.a(_addsub_df.o)
 .debug_frame   0x00000740       0x3c c:/altera/13.0/nios2eds/bin/gnu/h-i686-mingw32/bin/../lib/gcc/nios2-elf/4.1.2\libgcc.a(_mul_df.o)
 .debug_frame   0x0000077c       0x2c c:/altera/13.0/nios2eds/bin/gnu/h-i686-mingw32/bin/../lib/gcc/nios2-elf/4.1.2\libgcc.a(_ge_df.o)
 .debug_frame   0x000007a8       0x28 c:/altera/13.0/nios2eds/bin/gnu/h-i686-mingw32/bin/../lib/gcc/nios2-elf/4.1.2\libgcc.a(_df_to_si.o)
 .debug_frame   0x000007d0       0x38 c:/altera/13.0/nios2eds/bin/gnu/h-i686-mingw32/bin/../lib/gcc/nios2-elf/4.1.2\libgcc.a(_usi_to_df.o)
 .debug_frame   0x00000808       0x70 c:/altera/13.0/nios2eds/bin/gnu/h-i686-mingw32/bin/../lib/gcc/nios2-elf/4.1.2\libgcc.a(lib2-divmod.o)
 .debug_frame   0x00000878       0x2c c:/altera/13.0/nios2eds/bin/gnu/h-i686-mingw32/bin/../lib/gcc/nios2-elf/4.1.2\libgcc.a(_muldi3.o)
 .debug_frame   0x000008a4       0x20 c:/altera/13.0/nios2eds/bin/gnu/h-i686-mingw32/bin/../lib/gcc/nios2-elf/4.1.2\libgcc.a(_clzsi2.o)
 .debug_frame   0x000008c4       0x2c c:/altera/13.0/nios2eds/bin/gnu/h-i686-mingw32/bin/../lib/gcc/nios2-elf/4.1.2\libgcc.a(_pack_df.o)
 .debug_frame   0x000008f0       0x20 c:/altera/13.0/nios2eds/bin/gnu/h-i686-mingw32/bin/../lib/gcc/nios2-elf/4.1.2\libgcc.a(_unpack_df.o)
 .debug_frame   0x00000910       0x20 c:/altera/13.0/nios2eds/bin/gnu/h-i686-mingw32/bin/../lib/gcc/nios2-elf/4.1.2\libgcc.a(_fpcmp_parts_df.o)
 .debug_frame   0x00000930       0x30 c:/altera/13.0/nios2eds/bin/gnu/h-i686-mingw32/bin/../lib/gcc/nios2-elf/4.1.2/../../../../nios2-elf/lib\libc.a(lib_a-atoi.o)
 .debug_frame   0x00000960       0x3c c:/altera/13.0/nios2eds/bin/gnu/h-i686-mingw32/bin/../lib/gcc/nios2-elf/4.1.2/../../../../nios2-elf/lib\libc.a(lib_a-fclose.o)
 .debug_frame   0x0000099c       0x40 c:/altera/13.0/nios2eds/bin/gnu/h-i686-mingw32/bin/../lib/gcc/nios2-elf/4.1.2/../../../../nios2-elf/lib\libc.a(lib_a-fflush.o)
 .debug_frame   0x000009dc       0x38 c:/altera/13.0/nios2eds/bin/gnu/h-i686-mingw32/bin/../lib/gcc/nios2-elf/4.1.2/../../../../nios2-elf/lib\libc.a(lib_a-fgetpos.o)
 .debug_frame   0x00000a14      0x118 c:/altera/13.0/nios2eds/bin/gnu/h-i686-mingw32/bin/../lib/gcc/nios2-elf/4.1.2/../../../../nios2-elf/lib\libc.a(lib_a-findfp.o)
 .debug_frame   0x00000b2c       0x40 c:/altera/13.0/nios2eds/bin/gnu/h-i686-mingw32/bin/../lib/gcc/nios2-elf/4.1.2/../../../../nios2-elf/lib\libc.a(lib_a-fopen.o)
 .debug_frame   0x00000b6c       0x40 c:/altera/13.0/nios2eds/bin/gnu/h-i686-mingw32/bin/../lib/gcc/nios2-elf/4.1.2/../../../../nios2-elf/lib\libc.a(lib_a-fprintf.o)
 .debug_frame   0x00000bac       0x54 c:/altera/13.0/nios2eds/bin/gnu/h-i686-mingw32/bin/../lib/gcc/nios2-elf/4.1.2/../../../../nios2-elf/lib\libc.a(lib_a-fread.o)
 .debug_frame   0x00000c00       0x4c c:/altera/13.0/nios2eds/bin/gnu/h-i686-mingw32/bin/../lib/gcc/nios2-elf/4.1.2/../../../../nios2-elf/lib\libc.a(lib_a-freer.o)
 .debug_frame   0x00000c4c       0x48 c:/altera/13.0/nios2eds/bin/gnu/h-i686-mingw32/bin/../lib/gcc/nios2-elf/4.1.2/../../../../nios2-elf/lib\libc.a(lib_a-fseek.o)
 .debug_frame   0x00000c94       0x2c c:/altera/13.0/nios2eds/bin/gnu/h-i686-mingw32/bin/../lib/gcc/nios2-elf/4.1.2/../../../../nios2-elf/lib\libc.a(lib_a-fstatr.o)
 .debug_frame   0x00000cc0       0x3c c:/altera/13.0/nios2eds/bin/gnu/h-i686-mingw32/bin/../lib/gcc/nios2-elf/4.1.2/../../../../nios2-elf/lib\libc.a(lib_a-ftell.o)
 .debug_frame   0x00000cfc       0x60 c:/altera/13.0/nios2eds/bin/gnu/h-i686-mingw32/bin/../lib/gcc/nios2-elf/4.1.2/../../../../nios2-elf/lib\libc.a(lib_a-fwalk.o)
 .debug_frame   0x00000d5c       0x48 c:/altera/13.0/nios2eds/bin/gnu/h-i686-mingw32/bin/../lib/gcc/nios2-elf/4.1.2/../../../../nios2-elf/lib\libc.a(lib_a-fwrite.o)
 .debug_frame   0x00000da4       0x48 c:/altera/13.0/nios2eds/bin/gnu/h-i686-mingw32/bin/../lib/gcc/nios2-elf/4.1.2/../../../../nios2-elf/lib\libc.a(lib_a-getc.o)
 .debug_frame   0x00000dec       0x2c c:/altera/13.0/nios2eds/bin/gnu/h-i686-mingw32/bin/../lib/gcc/nios2-elf/4.1.2/../../../../nios2-elf/lib\libc.a(lib_a-makebuf.o)
 .debug_frame   0x00000e18       0x38 c:/altera/13.0/nios2eds/bin/gnu/h-i686-mingw32/bin/../lib/gcc/nios2-elf/4.1.2/../../../../nios2-elf/lib\libc.a(lib_a-mallocr.o)
 .debug_frame   0x00000e50       0x20 c:/altera/13.0/nios2eds/bin/gnu/h-i686-mingw32/bin/../lib/gcc/nios2-elf/4.1.2/../../../../nios2-elf/lib\libc.a(lib_a-memcpy.o)
 .debug_frame   0x00000e70       0x20 c:/altera/13.0/nios2eds/bin/gnu/h-i686-mingw32/bin/../lib/gcc/nios2-elf/4.1.2/../../../../nios2-elf/lib\libc.a(lib_a-memmove.o)
 .debug_frame   0x00000e90       0x20 c:/altera/13.0/nios2eds/bin/gnu/h-i686-mingw32/bin/../lib/gcc/nios2-elf/4.1.2/../../../../nios2-elf/lib\libc.a(lib_a-memset.o)
 .debug_frame   0x00000eb0       0x2c c:/altera/13.0/nios2eds/bin/gnu/h-i686-mingw32/bin/../lib/gcc/nios2-elf/4.1.2/../../../../nios2-elf/lib\libc.a(lib_a-openr.o)
 .debug_frame   0x00000edc       0x38 c:/altera/13.0/nios2eds/bin/gnu/h-i686-mingw32/bin/../lib/gcc/nios2-elf/4.1.2/../../../../nios2-elf/lib\libc.a(lib_a-perror.o)
 .debug_frame   0x00000f14       0x40 c:/altera/13.0/nios2eds/bin/gnu/h-i686-mingw32/bin/../lib/gcc/nios2-elf/4.1.2/../../../../nios2-elf/lib\libc.a(lib_a-printf.o)
 .debug_frame   0x00000f54       0x4c c:/altera/13.0/nios2eds/bin/gnu/h-i686-mingw32/bin/../lib/gcc/nios2-elf/4.1.2/../../../../nios2-elf/lib\libc.a(lib_a-putc.o)
 .debug_frame   0x00000fa0       0x30 c:/altera/13.0/nios2eds/bin/gnu/h-i686-mingw32/bin/../lib/gcc/nios2-elf/4.1.2/../../../../nios2-elf/lib\libc.a(lib_a-putchar.o)
 .debug_frame   0x00000fd0       0x3c c:/altera/13.0/nios2eds/bin/gnu/h-i686-mingw32/bin/../lib/gcc/nios2-elf/4.1.2/../../../../nios2-elf/lib\libc.a(lib_a-puts.o)
 .debug_frame   0x0000100c       0x3c c:/altera/13.0/nios2eds/bin/gnu/h-i686-mingw32/bin/../lib/gcc/nios2-elf/4.1.2/../../../../nios2-elf/lib\libc.a(lib_a-refill.o)
 .debug_frame   0x00001048       0x38 c:/altera/13.0/nios2eds/bin/gnu/h-i686-mingw32/bin/../lib/gcc/nios2-elf/4.1.2/../../../../nios2-elf/lib\libc.a(lib_a-rget.o)
 .debug_frame   0x00001080       0x2c c:/altera/13.0/nios2eds/bin/gnu/h-i686-mingw32/bin/../lib/gcc/nios2-elf/4.1.2/../../../../nios2-elf/lib\libc.a(lib_a-sbrkr.o)
 .debug_frame   0x000010ac       0x40 c:/altera/13.0/nios2eds/bin/gnu/h-i686-mingw32/bin/../lib/gcc/nios2-elf/4.1.2/../../../../nios2-elf/lib\libc.a(lib_a-sprintf.o)
 .debug_frame   0x000010ec       0x54 c:/altera/13.0/nios2eds/bin/gnu/h-i686-mingw32/bin/../lib/gcc/nios2-elf/4.1.2/../../../../nios2-elf/lib\libc.a(lib_a-sscanf.o)
 .debug_frame   0x00001140       0x78 c:/altera/13.0/nios2eds/bin/gnu/h-i686-mingw32/bin/../lib/gcc/nios2-elf/4.1.2/../../../../nios2-elf/lib\libc.a(lib_a-stdio.o)
 .debug_frame   0x000011b8       0x20 c:/altera/13.0/nios2eds/bin/gnu/h-i686-mingw32/bin/../lib/gcc/nios2-elf/4.1.2/../../../../nios2-elf/lib\libc.a(lib_a-strcasecmp.o)
 .debug_frame   0x000011d8       0x28 c:/altera/13.0/nios2eds/bin/gnu/h-i686-mingw32/bin/../lib/gcc/nios2-elf/4.1.2/../../../../nios2-elf/lib\libc.a(lib_a-strcat.o)
 .debug_frame   0x00001200       0x20 c:/altera/13.0/nios2eds/bin/gnu/h-i686-mingw32/bin/../lib/gcc/nios2-elf/4.1.2/../../../../nios2-elf/lib\libc.a(lib_a-strchr.o)
 .debug_frame   0x00001220       0x20 c:/altera/13.0/nios2eds/bin/gnu/h-i686-mingw32/bin/../lib/gcc/nios2-elf/4.1.2/../../../../nios2-elf/lib\libc.a(lib_a-strcmp.o)
 .debug_frame   0x00001240       0x20 c:/altera/13.0/nios2eds/bin/gnu/h-i686-mingw32/bin/../lib/gcc/nios2-elf/4.1.2/../../../../nios2-elf/lib\libc.a(lib_a-strcpy.o)
 .debug_frame   0x00001260       0x28 c:/altera/13.0/nios2eds/bin/gnu/h-i686-mingw32/bin/../lib/gcc/nios2-elf/4.1.2/../../../../nios2-elf/lib\libc.a(lib_a-strerror.o)
 .debug_frame   0x00001288       0x20 c:/altera/13.0/nios2eds/bin/gnu/h-i686-mingw32/bin/../lib/gcc/nios2-elf/4.1.2/../../../../nios2-elf/lib\libc.a(lib_a-strlen.o)
 .debug_frame   0x000012a8       0x20 c:/altera/13.0/nios2eds/bin/gnu/h-i686-mingw32/bin/../lib/gcc/nios2-elf/4.1.2/../../../../nios2-elf/lib\libc.a(lib_a-strncmp.o)
 .debug_frame   0x000012c8       0x20 c:/altera/13.0/nios2eds/bin/gnu/h-i686-mingw32/bin/../lib/gcc/nios2-elf/4.1.2/../../../../nios2-elf/lib\libc.a(lib_a-strncpy.o)
 .debug_frame   0x000012e8       0x4c c:/altera/13.0/nios2eds/bin/gnu/h-i686-mingw32/bin/../lib/gcc/nios2-elf/4.1.2/../../../../nios2-elf/lib\libc.a(lib_a-strstr.o)
 .debug_frame   0x00001334       0x20 c:/altera/13.0/nios2eds/bin/gnu/h-i686-mingw32/bin/../lib/gcc/nios2-elf/4.1.2/../../../../nios2-elf/lib\libc.a(lib_a-strtok.o)
 .debug_frame   0x00001354       0x30 c:/altera/13.0/nios2eds/bin/gnu/h-i686-mingw32/bin/../lib/gcc/nios2-elf/4.1.2/../../../../nios2-elf/lib\libc.a(lib_a-strtok_r.o)
 .debug_frame   0x00001384       0x4c c:/altera/13.0/nios2eds/bin/gnu/h-i686-mingw32/bin/../lib/gcc/nios2-elf/4.1.2/../../../../nios2-elf/lib\libc.a(lib_a-strtol.o)
 .debug_frame   0x000013d0       0x20 c:/altera/13.0/nios2eds/bin/gnu/h-i686-mingw32/bin/../lib/gcc/nios2-elf/4.1.2/../../../../nios2-elf/lib\libc.a(lib_a-u_strerr.o)
 .debug_frame   0x000013f0       0x64 c:/altera/13.0/nios2eds/bin/gnu/h-i686-mingw32/bin/../lib/gcc/nios2-elf/4.1.2/../../../../nios2-elf/lib\libc.a(lib_a-vfprintf.o)
 .debug_frame   0x00001454       0x8c c:/altera/13.0/nios2eds/bin/gnu/h-i686-mingw32/bin/../lib/gcc/nios2-elf/4.1.2/../../../../nios2-elf/lib\libc.a(lib_a-vfscanf.o)
 .debug_frame   0x000014e0       0x3c c:/altera/13.0/nios2eds/bin/gnu/h-i686-mingw32/bin/../lib/gcc/nios2-elf/4.1.2/../../../../nios2-elf/lib\libc.a(lib_a-wbuf.o)
 .debug_frame   0x0000151c       0x2c c:/altera/13.0/nios2eds/bin/gnu/h-i686-mingw32/bin/../lib/gcc/nios2-elf/4.1.2/../../../../nios2-elf/lib\libc.a(lib_a-writer.o)
 .debug_frame   0x00001548       0x2c c:/altera/13.0/nios2eds/bin/gnu/h-i686-mingw32/bin/../lib/gcc/nios2-elf/4.1.2/../../../../nios2-elf/lib\libc.a(lib_a-wsetup.o)
 .debug_frame   0x00001574       0x2c c:/altera/13.0/nios2eds/bin/gnu/h-i686-mingw32/bin/../lib/gcc/nios2-elf/4.1.2/../../../../nios2-elf/lib\libc.a(lib_a-closer.o)
 .debug_frame   0x000015a0       0x64 c:/altera/13.0/nios2eds/bin/gnu/h-i686-mingw32/bin/../lib/gcc/nios2-elf/4.1.2/../../../../nios2-elf/lib\libc.a(lib_a-dtoa.o)
 .debug_frame   0x00001604       0x20 c:/altera/13.0/nios2eds/bin/gnu/h-i686-mingw32/bin/../lib/gcc/nios2-elf/4.1.2/../../../../nios2-elf/lib\libc.a(lib_a-flags.o)
 .debug_frame   0x00001624       0x4c c:/altera/13.0/nios2eds/bin/gnu/h-i686-mingw32/bin/../lib/gcc/nios2-elf/4.1.2/../../../../nios2-elf/lib\libc.a(lib_a-fputc.o)
 .debug_frame   0x00001670       0x3c c:/altera/13.0/nios2eds/bin/gnu/h-i686-mingw32/bin/../lib/gcc/nios2-elf/4.1.2/../../../../nios2-elf/lib\libc.a(lib_a-fputs.o)
 .debug_frame   0x000016ac       0x38 c:/altera/13.0/nios2eds/bin/gnu/h-i686-mingw32/bin/../lib/gcc/nios2-elf/4.1.2/../../../../nios2-elf/lib\libc.a(lib_a-fvwrite.o)
 .debug_frame   0x000016e4       0x2c c:/altera/13.0/nios2eds/bin/gnu/h-i686-mingw32/bin/../lib/gcc/nios2-elf/4.1.2/../../../../nios2-elf/lib\libc.a(lib_a-isattyr.o)
 .debug_frame   0x00001710       0x20 c:/altera/13.0/nios2eds/bin/gnu/h-i686-mingw32/bin/../lib/gcc/nios2-elf/4.1.2/../../../../nios2-elf/lib\libc.a(lib_a-iswspace.o)
 .debug_frame   0x00001730       0x70 c:/altera/13.0/nios2eds/bin/gnu/h-i686-mingw32/bin/../lib/gcc/nios2-elf/4.1.2/../../../../nios2-elf/lib\libc.a(lib_a-locale.o)
 .debug_frame   0x000017a0       0x2c c:/altera/13.0/nios2eds/bin/gnu/h-i686-mingw32/bin/../lib/gcc/nios2-elf/4.1.2/../../../../nios2-elf/lib\libc.a(lib_a-lseekr.o)
 .debug_frame   0x000017cc       0x44 c:/altera/13.0/nios2eds/bin/gnu/h-i686-mingw32/bin/../lib/gcc/nios2-elf/4.1.2/../../../../nios2-elf/lib\libc.a(lib_a-mbrtowc.o)
 .debug_frame   0x00001810       0x24 c:/altera/13.0/nios2eds/bin/gnu/h-i686-mingw32/bin/../lib/gcc/nios2-elf/4.1.2/../../../../nios2-elf/lib\libc.a(lib_a-mbtowc_r.o)
 .debug_frame   0x00001834       0x20 c:/altera/13.0/nios2eds/bin/gnu/h-i686-mingw32/bin/../lib/gcc/nios2-elf/4.1.2/../../../../nios2-elf/lib\libc.a(lib_a-memchr.o)
 .debug_frame   0x00001854       0x20 c:/altera/13.0/nios2eds/bin/gnu/h-i686-mingw32/bin/../lib/gcc/nios2-elf/4.1.2/../../../../nios2-elf/lib\libc.a(lib_a-memcmp.o)
 .debug_frame   0x00001874      0x218 c:/altera/13.0/nios2eds/bin/gnu/h-i686-mingw32/bin/../lib/gcc/nios2-elf/4.1.2/../../../../nios2-elf/lib\libc.a(lib_a-mprec.o)
 .debug_frame   0x00001a8c       0x2c c:/altera/13.0/nios2eds/bin/gnu/h-i686-mingw32/bin/../lib/gcc/nios2-elf/4.1.2/../../../../nios2-elf/lib\libc.a(lib_a-readr.o)
 .debug_frame   0x00001ab8       0x38 c:/altera/13.0/nios2eds/bin/gnu/h-i686-mingw32/bin/../lib/gcc/nios2-elf/4.1.2/../../../../nios2-elf/lib\libc.a(lib_a-reallocr.o)
 .debug_frame   0x00001af0       0x20 c:/altera/13.0/nios2eds/bin/gnu/h-i686-mingw32/bin/../lib/gcc/nios2-elf/4.1.2/../../../../nios2-elf/lib\libc.a(lib_a-s_isinfd.o)
 .debug_frame   0x00001b10       0x20 c:/altera/13.0/nios2eds/bin/gnu/h-i686-mingw32/bin/../lib/gcc/nios2-elf/4.1.2/../../../../nios2-elf/lib\libc.a(lib_a-s_isnand.o)
 .debug_frame   0x00001b30       0x20 c:/altera/13.0/nios2eds/bin/gnu/h-i686-mingw32/bin/../lib/gcc/nios2-elf/4.1.2/../../../../nios2-elf/lib\libc.a(lib_a-sccl.o)
 .debug_frame   0x00001b50       0x20 c:/altera/13.0/nios2eds/bin/gnu/h-i686-mingw32/bin/../lib/gcc/nios2-elf/4.1.2/../../../../nios2-elf/lib\libc.a(lib_a-sf_nan.o)
 .debug_frame   0x00001b70       0x80 c:/altera/13.0/nios2eds/bin/gnu/h-i686-mingw32/bin/../lib/gcc/nios2-elf/4.1.2/../../../../nios2-elf/lib\libc.a(lib_a-strtod.o)
 .debug_frame   0x00001bf0       0x3c c:/altera/13.0/nios2eds/bin/gnu/h-i686-mingw32/bin/../lib/gcc/nios2-elf/4.1.2/../../../../nios2-elf/lib\libc.a(lib_a-strtoll_r.o)
 .debug_frame   0x00001c2c       0x4c c:/altera/13.0/nios2eds/bin/gnu/h-i686-mingw32/bin/../lib/gcc/nios2-elf/4.1.2/../../../../nios2-elf/lib\libc.a(lib_a-strtoul.o)
 .debug_frame   0x00001c78       0x3c c:/altera/13.0/nios2eds/bin/gnu/h-i686-mingw32/bin/../lib/gcc/nios2-elf/4.1.2/../../../../nios2-elf/lib\libc.a(lib_a-strtoull_r.o)
 .debug_frame   0x00001cb4       0x60 c:/altera/13.0/nios2eds/bin/gnu/h-i686-mingw32/bin/../lib/gcc/nios2-elf/4.1.2/../../../../nios2-elf/lib\libc.a(lib_a-ungetc.o)
 .debug_frame   0x00001d14       0x28 c:/altera/13.0/nios2eds/bin/gnu/h-i686-mingw32/bin/../lib/gcc/nios2-elf/4.1.2/../../../../nios2-elf/lib\libc.a(lib_a-callocr.o)
 .debug_frame   0x00001d3c       0x74 c:/altera/13.0/nios2eds/bin/gnu/h-i686-mingw32/bin/../lib/gcc/nios2-elf/4.1.2/../../../../nios2-elf/lib\libc.a(lib_a-gdtoa-gethex.o)
 .debug_frame   0x00001db0       0x4c c:/altera/13.0/nios2eds/bin/gnu/h-i686-mingw32/bin/../lib/gcc/nios2-elf/4.1.2/../../../../nios2-elf/lib\libc.a(lib_a-gdtoa-hexnan.o)
 .debug_frame   0x00001dfc       0x38 c:/altera/13.0/nios2eds/bin/gnu/h-i686-mingw32/bin/../lib/gcc/nios2-elf/4.1.2\libgcc.a(_udivdi3.o)
 .debug_frame   0x00001e34       0x38 c:/altera/13.0/nios2eds/bin/gnu/h-i686-mingw32/bin/../lib/gcc/nios2-elf/4.1.2\libgcc.a(_umoddi3.o)
 .debug_frame   0x00001e6c       0x2c c:/altera/13.0/nios2eds/bin/gnu/h-i686-mingw32/bin/../lib/gcc/nios2-elf/4.1.2\libgcc.a(_ne_sf.o)
 .debug_frame   0x00001e98       0x2c c:/altera/13.0/nios2eds/bin/gnu/h-i686-mingw32/bin/../lib/gcc/nios2-elf/4.1.2\libgcc.a(_gt_sf.o)
 .debug_frame   0x00001ec4       0x2c c:/altera/13.0/nios2eds/bin/gnu/h-i686-mingw32/bin/../lib/gcc/nios2-elf/4.1.2\libgcc.a(_lt_sf.o)
 .debug_frame   0x00001ef0       0x30 c:/altera/13.0/nios2eds/bin/gnu/h-i686-mingw32/bin/../lib/gcc/nios2-elf/4.1.2\libgcc.a(_div_df.o)
 .debug_frame   0x00001f20       0x2c c:/altera/13.0/nios2eds/bin/gnu/h-i686-mingw32/bin/../lib/gcc/nios2-elf/4.1.2\libgcc.a(_eq_df.o)
 .debug_frame   0x00001f4c       0x2c c:/altera/13.0/nios2eds/bin/gnu/h-i686-mingw32/bin/../lib/gcc/nios2-elf/4.1.2\libgcc.a(_ne_df.o)
 .debug_frame   0x00001f78       0x2c c:/altera/13.0/nios2eds/bin/gnu/h-i686-mingw32/bin/../lib/gcc/nios2-elf/4.1.2\libgcc.a(_gt_df.o)
 .debug_frame   0x00001fa4       0x2c c:/altera/13.0/nios2eds/bin/gnu/h-i686-mingw32/bin/../lib/gcc/nios2-elf/4.1.2\libgcc.a(_lt_df.o)
 .debug_frame   0x00001fd0       0x2c c:/altera/13.0/nios2eds/bin/gnu/h-i686-mingw32/bin/../lib/gcc/nios2-elf/4.1.2\libgcc.a(_le_df.o)
 .debug_frame   0x00001ffc       0x30 c:/altera/13.0/nios2eds/bin/gnu/h-i686-mingw32/bin/../lib/gcc/nios2-elf/4.1.2\libgcc.a(_si_to_df.o)
 .debug_frame   0x0000202c       0x28 c:/altera/13.0/nios2eds/bin/gnu/h-i686-mingw32/bin/../lib/gcc/nios2-elf/4.1.2\libgcc.a(_df_to_sf.o)
 .debug_frame   0x00002054       0x20 c:/altera/13.0/nios2eds/bin/gnu/h-i686-mingw32/bin/../lib/gcc/nios2-elf/4.1.2\libgcc.a(_unpack_sf.o)
 .debug_frame   0x00002074       0x20 c:/altera/13.0/nios2eds/bin/gnu/h-i686-mingw32/bin/../lib/gcc/nios2-elf/4.1.2\libgcc.a(_fpcmp_parts_sf.o)
 .debug_frame   0x00002094       0x28 c:/altera/13.0/nios2eds/bin/gnu/h-i686-mingw32/bin/../lib/gcc/nios2-elf/4.1.2\libgcc.a(_make_sf.o)
 .debug_frame   0x000020bc       0x20 c:/altera/13.0/nios2eds/bin/gnu/h-i686-mingw32/bin/../lib/gcc/nios2-elf/4.1.2\libgcc.a(_pack_sf.o)
 .debug_frame   0x000020dc       0x2c ../WebServer_bsp/\libucosii_bsp.a(alt_dcache_flush.o)
 .debug_frame   0x00002108       0x48 ../WebServer_bsp/\libucosii_bsp.a(alt_flash_dev.o)
 .debug_frame   0x00002150       0x48 ../WebServer_bsp/\libucosii_bsp.a(alt_fstat.o)
 .debug_frame   0x00002198       0x2c ../WebServer_bsp/\libucosii_bsp.a(alt_irq_register.o)
 .debug_frame   0x000021c4       0x48 ../WebServer_bsp/\libucosii_bsp.a(alt_isatty.o)
 .debug_frame   0x0000220c       0x48 ../WebServer_bsp/\libucosii_bsp.a(alt_lseek.o)
 .debug_frame   0x00002254       0x2c ../WebServer_bsp/\libucosii_bsp.a(alt_main.o)
 .debug_frame   0x00002280       0x64 ../WebServer_bsp/\libucosii_bsp.a(alt_open.o)
 .debug_frame   0x000022e4       0x2c ../WebServer_bsp/\libucosii_bsp.a(alt_release_fd.o)
 .debug_frame   0x00002310       0x2c ../WebServer_bsp/\libucosii_bsp.a(alt_sbrk.o)
 .debug_frame   0x0000233c       0x48 ../WebServer_bsp/\libucosii_bsp.a(alt_tick.o)
 .debug_frame   0x00002384       0x30 ../WebServer_bsp/\libucosii_bsp.a(alt_usleep.o)
 .debug_frame   0x000023b4       0x4c ../WebServer_bsp/\libucosii_bsp.a(alt_env_lock.o)
 .debug_frame   0x00002400       0x4c ../WebServer_bsp/\libucosii_bsp.a(alt_malloc_lock.o)
 .debug_frame   0x0000244c      0x3e4 ../WebServer_bsp/\libucosii_bsp.a(os_core.o)
 .debug_frame   0x00002830       0x2c ../WebServer_bsp/\libucosii_bsp.a(os_dbg.o)
 .debug_frame   0x0000285c      0x180 ../WebServer_bsp/\libucosii_bsp.a(os_flag.o)
 .debug_frame   0x000029dc       0xf0 ../WebServer_bsp/\libucosii_bsp.a(os_mbox.o)
 .debug_frame   0x00002acc       0xd4 ../WebServer_bsp/\libucosii_bsp.a(os_mem.o)
 .debug_frame   0x00002ba0      0x144 ../WebServer_bsp/\libucosii_bsp.a(os_q.o)
 .debug_frame   0x00002ce4       0xf0 ../WebServer_bsp/\libucosii_bsp.a(os_sem.o)
 .debug_frame   0x00002dd4      0x160 ../WebServer_bsp/\libucosii_bsp.a(os_task.o)
 .debug_frame   0x00002f34       0xa0 ../WebServer_bsp/\libucosii_bsp.a(os_time.o)
 .debug_frame   0x00002fd4       0x64 ../WebServer_bsp/\libucosii_bsp.a(alt_sys_init.o)
 .debug_frame   0x00003038       0xd4 ../WebServer_bsp/\libucosii_bsp.a(altera_avalon_cfi_flash.o)
 .debug_frame   0x0000310c      0x210 ../WebServer_bsp/\libucosii_bsp.a(altera_avalon_cfi_flash_table.o)
 .debug_frame   0x0000331c      0x128 ../WebServer_bsp/\libucosii_bsp.a(altera_avalon_epcs_flash_controller.o)
 .debug_frame   0x00003444       0x80 ../WebServer_bsp/\libucosii_bsp.a(altera_avalon_jtag_uart_fd.o)
 .debug_frame   0x000034c4       0x80 ../WebServer_bsp/\libucosii_bsp.a(altera_avalon_jtag_uart_init.o)
 .debug_frame   0x00003544       0x2c ../WebServer_bsp/\libucosii_bsp.a(altera_avalon_jtag_uart_ioctl.o)
 .debug_frame   0x00003570       0x2c ../WebServer_bsp/\libucosii_bsp.a(altera_avalon_jtag_uart_read.o)
 .debug_frame   0x0000359c       0x2c ../WebServer_bsp/\libucosii_bsp.a(altera_avalon_jtag_uart_write.o)
 .debug_frame   0x000035c8      0x114 ../WebServer_bsp/\libucosii_bsp.a(altera_avalon_lcd_16207.o)
 .debug_frame   0x000036dc       0x2c ../WebServer_bsp/\libucosii_bsp.a(altera_avalon_lcd_16207_fd.o)
 .debug_frame   0x00003708       0x48 ../WebServer_bsp/\libucosii_bsp.a(altera_avalon_timer_sc.o)
 .debug_frame   0x00003750       0x64 ../WebServer_bsp/\libucosii_bsp.a(altera_avalon_uart_fd.o)
 .debug_frame   0x000037b4       0x9c ../WebServer_bsp/\libucosii_bsp.a(altera_avalon_uart_init.o)
 .debug_frame   0x00003850       0x48 ../WebServer_bsp/\libucosii_bsp.a(altera_avalon_uart_read.o)
 .debug_frame   0x00003898       0x48 ../WebServer_bsp/\libucosii_bsp.a(altera_avalon_uart_write.o)
 .debug_frame   0x000038e0      0x1b4 ../WebServer_bsp/\libucosii_bsp.a(altera_ro_zipfs.o)
 .debug_frame   0x00003a94      0x160 ../WebServer_bsp/\libucosii_bsp.a(epcs_commands.o)
 .debug_frame   0x00003bf4       0x2c ../WebServer_bsp/\libucosii_bsp.a(alt_iniche_close.o)
 .debug_frame   0x00003c20       0x2c ../WebServer_bsp/\libucosii_bsp.a(alt_iniche_dev.o)
 .debug_frame   0x00003c4c       0x2c ../WebServer_bsp/\libucosii_bsp.a(alt_iniche_read.o)
 .debug_frame   0x00003c78       0x2c ../WebServer_bsp/\libucosii_bsp.a(alt_iniche_write.o)
 .debug_frame   0x00003ca4       0xb8 ../WebServer_bsp/\libucosii_bsp.a(ipnet.o)
 .debug_frame   0x00003d5c       0x80 ../WebServer_bsp/\libucosii_bsp.a(ipstart.o)
 .debug_frame   0x00003ddc       0xf8 ../WebServer_bsp/\libucosii_bsp.a(igmp_cmn.o)
 .debug_frame   0x00003ed4      0x12c ../WebServer_bsp/\libucosii_bsp.a(bsdsock.o)
 .debug_frame   0x00004000       0x48 ../WebServer_bsp/\libucosii_bsp.a(cksum.o)
 .debug_frame   0x00004048      0x164 ../WebServer_bsp/\libucosii_bsp.a(in_utils.o)
 .debug_frame   0x000041ac       0x64 ../WebServer_bsp/\libucosii_bsp.a(netmain.o)
 .debug_frame   0x00004210       0xd4 ../WebServer_bsp/\libucosii_bsp.a(tk_crnos.o)
 .debug_frame   0x000042e4      0x250 ../WebServer_bsp/\libucosii_bsp.a(dhcpclnt.o)
 .debug_frame   0x00004534       0x2c ../WebServer_bsp/\libucosii_bsp.a(dhcputil.o)
 .debug_frame   0x00004560       0xb8 ../WebServer_bsp/\libucosii_bsp.a(pktalloc.o)
 .debug_frame   0x00004618       0x64 ../WebServer_bsp/\libucosii_bsp.a(q.o)
 .debug_frame   0x0000467c       0x48 ../WebServer_bsp/\libucosii_bsp.a(udp_open.o)
 .debug_frame   0x000046c4       0xf0 ../WebServer_bsp/\libucosii_bsp.a(brdutils.o)
 .debug_frame   0x000047b4       0x9c ../WebServer_bsp/\libucosii_bsp.a(osportco.o)
 .debug_frame   0x00004850      0x110 ../WebServer_bsp/\libucosii_bsp.a(targnios.o)
 .debug_frame   0x00004960      0x208 ../WebServer_bsp/\libucosii_bsp.a(nptcp.o)
 .debug_frame   0x00004b68       0x68 ../WebServer_bsp/\libucosii_bsp.a(rawsock.o)
 .debug_frame   0x00004bd0      0x224 ../WebServer_bsp/\libucosii_bsp.a(sockcall.o)
 .debug_frame   0x00004df4      0x1d4 ../WebServer_bsp/\libucosii_bsp.a(socket.o)
 .debug_frame   0x00004fc8      0x294 ../WebServer_bsp/\libucosii_bsp.a(socket2.o)
 .debug_frame   0x0000525c      0x110 ../WebServer_bsp/\libucosii_bsp.a(soselect.o)
 .debug_frame   0x0000536c       0xd8 ../WebServer_bsp/\libucosii_bsp.a(tcp_in.o)
 .debug_frame   0x00005444       0x68 ../WebServer_bsp/\libucosii_bsp.a(tcp_out.o)
 .debug_frame   0x000054ac      0x10c ../WebServer_bsp/\libucosii_bsp.a(tcp_subr.o)
 .debug_frame   0x000055b8       0x64 ../WebServer_bsp/\libucosii_bsp.a(tcp_timr.o)
 .debug_frame   0x0000561c       0x80 ../WebServer_bsp/\libucosii_bsp.a(tcp_usr.o)
 .debug_frame   0x0000569c       0x2c ../WebServer_bsp/\libucosii_bsp.a(tcpport.o)
 .debug_frame   0x000056c8       0xbc ../WebServer_bsp/\libucosii_bsp.a(udpsock.o)
 .debug_frame   0x00005784       0x2c ../WebServer_bsp/\libucosii_bsp.a(alt_alarm_start.o)
 .debug_frame   0x000057b0       0x2c ../WebServer_bsp/\libucosii_bsp.a(alt_busy_sleep.o)
 .debug_frame   0x000057dc       0x48 ../WebServer_bsp/\libucosii_bsp.a(alt_close.o)
 .debug_frame   0x00005824       0x2c ../WebServer_bsp/\libucosii_bsp.a(alt_dev.o)
 .debug_frame   0x00005850       0x48 ../WebServer_bsp/\libucosii_bsp.a(alt_dev_llist_insert.o)
 .debug_frame   0x00005898       0x2c ../WebServer_bsp/\libucosii_bsp.a(alt_do_ctors.o)
 .debug_frame   0x000058c4       0x2c ../WebServer_bsp/\libucosii_bsp.a(alt_do_dtors.o)
 .debug_frame   0x000058f0       0x2c ../WebServer_bsp/\libucosii_bsp.a(alt_find_dev.o)
 .debug_frame   0x0000591c       0x2c ../WebServer_bsp/\libucosii_bsp.a(alt_find_file.o)
 .debug_frame   0x00005948       0x2c ../WebServer_bsp/\libucosii_bsp.a(alt_fs_reg.o)
 .debug_frame   0x00005974       0x2c ../WebServer_bsp/\libucosii_bsp.a(alt_get_fd.o)
 .debug_frame   0x000059a0       0x80 ../WebServer_bsp/\libucosii_bsp.a(alt_iic.o)
 .debug_frame   0x00005a20       0x2c ../WebServer_bsp/\libucosii_bsp.a(alt_iic_isr_register.o)
 .debug_frame   0x00005a4c       0x48 ../WebServer_bsp/\libucosii_bsp.a(alt_io_redirect.o)
 .debug_frame   0x00005a94       0x2c ../WebServer_bsp/\libucosii_bsp.a(alt_irq_handler.o)
 .debug_frame   0x00005ac0       0x48 ../WebServer_bsp/\libucosii_bsp.a(alt_read.o)
 .debug_frame   0x00005b08       0x2c ../WebServer_bsp/\libucosii_bsp.a(alt_remap_cached.o)
 .debug_frame   0x00005b34       0x2c ../WebServer_bsp/\libucosii_bsp.a(alt_remap_uncached.o)
 .debug_frame   0x00005b60       0x48 ../WebServer_bsp/\libucosii_bsp.a(alt_write.o)
 .debug_frame   0x00005ba8       0x2c ../WebServer_bsp/\libucosii_bsp.a(altera_nios2_qsys_irq.o)
 .debug_frame   0x00005bd4      0x128 ../WebServer_bsp/\libucosii_bsp.a(os_cpu_c.o)
 .debug_frame   0x00005cfc       0x80 ../WebServer_bsp/\libucosii_bsp.a(altera_avalon_cfi_flash_amd.o)
 .debug_frame   0x00005d7c       0x80 ../WebServer_bsp/\libucosii_bsp.a(altera_avalon_cfi_flash_intel.o)
 .debug_frame   0x00005dfc       0x2c ../WebServer_bsp/\libucosii_bsp.a(altera_avalon_spi.o)
 .debug_frame   0x00005e28       0xe0 ../WebServer_bsp/\libucosii_bsp.a(allports.o)
 .debug_frame   0x00005f08       0x88 ../WebServer_bsp/\libucosii_bsp.a(timeouts.o)
 .debug_frame   0x00005f90       0x48 ../WebServer_bsp/\libucosii_bsp.a(tk_misc.o)
 .debug_frame   0x00005fd8       0x2c ../WebServer_bsp/\libucosii_bsp.a(alt_iniche_fcntl.o)
 .debug_frame   0x00006004      0x160 ../WebServer_bsp/\libucosii_bsp.a(et_arp.o)
 .debug_frame   0x00006164       0x80 ../WebServer_bsp/\libucosii_bsp.a(iface.o)
 .debug_frame   0x000061e4      0x160 ../WebServer_bsp/\libucosii_bsp.a(ip.o)
 .debug_frame   0x00006344      0x1d4 ../WebServer_bsp/\libucosii_bsp.a(ip_reasm.o)
 .debug_frame   0x00006518       0x68 ../WebServer_bsp/\libucosii_bsp.a(ipdemux.o)
 .debug_frame   0x00006580       0x64 ../WebServer_bsp/\libucosii_bsp.a(ipmc.o)
 .debug_frame   0x000065e4       0x64 ../WebServer_bsp/\libucosii_bsp.a(ipport.o)
 .debug_frame   0x00006648       0xb8 ../WebServer_bsp/\libucosii_bsp.a(ipraw.o)
 .debug_frame   0x00006700       0x64 ../WebServer_bsp/\libucosii_bsp.a(iproute.o)
 .debug_frame   0x00006764       0xd4 ../WebServer_bsp/\libucosii_bsp.a(udp.o)
 .debug_frame   0x00006838       0x2c ../WebServer_bsp/\libucosii_bsp.a(igmp.o)
 .debug_frame   0x00006864       0x9c ../WebServer_bsp/\libucosii_bsp.a(igmp2.o)
 .debug_frame   0x00006900       0x84 ../WebServer_bsp/\libucosii_bsp.a(ipopt.o)
 .debug_frame   0x00006984       0x4c ../WebServer_bsp/\libucosii_bsp.a(u_mctest.o)
 .debug_frame   0x000069d0       0x48 ../WebServer_bsp/\libucosii_bsp.a(dhcsetup.o)
 .debug_frame   0x00006a18      0x10c ../WebServer_bsp/\libucosii_bsp.a(memdev.o)
 .debug_frame   0x00006b24      0x10c ../WebServer_bsp/\libucosii_bsp.a(parseip.o)
 .debug_frame   0x00006c30       0x2c ../WebServer_bsp/\libucosii_bsp.a(tcpcksum.o)
 .debug_frame   0x00006c5c       0xf0 ../WebServer_bsp/\libucosii_bsp.a(in_pcb.o)
 .debug_frame   0x00006d4c      0x320 ../WebServer_bsp/\libucosii_bsp.a(vfsfiles.o)
 .debug_frame   0x0000706c       0x2c ../WebServer_bsp/\libucosii_bsp.a(vfsport.o)
 .debug_frame   0x00007098       0x48 ../WebServer_bsp/\libucosii_bsp.a(alt_fcntl.o)
 .debug_frame   0x000070e0       0x84 ../WebServer_bsp/\libucosii_bsp.a(icmp.o)
 .debug_frame   0x00007164       0x20 c:/altera/13.0/nios2eds/bin/gnu/h-i686-mingw32/bin/../lib/gcc/nios2-elf/4.1.2/../../../../nios2-elf/lib\libc.a(lib_a-atexit.o)
 .debug_frame   0x00007184       0x20 c:/altera/13.0/nios2eds/bin/gnu/h-i686-mingw32/bin/../lib/gcc/nios2-elf/4.1.2/../../../../nios2-elf/lib\libc.a(lib_a-calloc.o)
 .debug_frame   0x000071a4       0x28 c:/altera/13.0/nios2eds/bin/gnu/h-i686-mingw32/bin/../lib/gcc/nios2-elf/4.1.2/../../../../nios2-elf/lib\libc.a(lib_a-exit.o)
 .debug_frame   0x000071cc       0x30 c:/altera/13.0/nios2eds/bin/gnu/h-i686-mingw32/bin/../lib/gcc/nios2-elf/4.1.2/../../../../nios2-elf/lib\libc.a(lib_a-malloc.o)
 .debug_frame   0x000071fc       0x30 c:/altera/13.0/nios2eds/bin/gnu/h-i686-mingw32/bin/../lib/gcc/nios2-elf/4.1.2/../../../../nios2-elf/lib\libc.a(lib_a-vprintf.o)
 .debug_frame   0x0000722c       0x38 c:/altera/13.0/nios2eds/bin/gnu/h-i686-mingw32/bin/../lib/gcc/nios2-elf/4.1.2/../../../../nios2-elf/lib\libc.a(lib_a-vsprintf.o)
 .debug_frame   0x00007264       0x34 c:/altera/13.0/nios2eds/bin/gnu/h-i686-mingw32/bin/../lib/gcc/nios2-elf/4.1.2/../../../../nios2-elf/lib\libc.a(lib_a-__atexit.o)
 .debug_frame   0x00007298       0x4c c:/altera/13.0/nios2eds/bin/gnu/h-i686-mingw32/bin/../lib/gcc/nios2-elf/4.1.2/../../../../nios2-elf/lib\libc.a(lib_a-__call_atexit.o)
 .debug_frame   0x000072e4       0x48 ../WebServer_bsp/\libucosii_bsp.a(alt_exit.o)

.debug_str      0x00000000     0x4239
 *(.debug_str)
 .debug_str     0x00000000       0x20 obj/default/alt_error_handler.o
 .debug_str     0x00000020       0x33 obj/default/dm9000a.o
 .debug_str     0x00000053       0xaf obj/default/http.o
 .debug_str     0x00000102       0x64 obj/default/network_utilities.o
 .debug_str     0x00000166       0x6f obj/default/srec_flash.o
 .debug_str     0x000001d5       0x2b obj/default/web_server.o
 .debug_str     0x00000200      0x122 c:/altera/13.0/nios2eds/bin/gnu/h-i686-mingw32/bin/../lib/gcc/nios2-elf/4.1.2\libgcc.a(_fixunsdfsi.o)
                                0x168 (size before relaxing)
 .debug_str     0x00000322      0x138 c:/altera/13.0/nios2eds/bin/gnu/h-i686-mingw32/bin/../lib/gcc/nios2-elf/4.1.2\libgcc.a(_addsub_df.o)
                                0x26c (size before relaxing)
 .debug_str     0x0000045a       0x45 c:/altera/13.0/nios2eds/bin/gnu/h-i686-mingw32/bin/../lib/gcc/nios2-elf/4.1.2\libgcc.a(_mul_df.o)
                                0x23e (size before relaxing)
 .debug_str     0x0000049f        0x8 c:/altera/13.0/nios2eds/bin/gnu/h-i686-mingw32/bin/../lib/gcc/nios2-elf/4.1.2\libgcc.a(_ge_df.o)
                                0x1fb (size before relaxing)
 .debug_str     0x000004a7        0xa c:/altera/13.0/nios2eds/bin/gnu/h-i686-mingw32/bin/../lib/gcc/nios2-elf/4.1.2\libgcc.a(_df_to_si.o)
                                0x204 (size before relaxing)
 .debug_str     0x00000000      0x1a0 c:/altera/13.0/nios2eds/bin/gnu/h-i686-mingw32/bin/../lib/gcc/nios2-elf/4.1.2\libgcc.a(_thenan_df.o)
 .debug_str     0x000004b1       0x1b c:/altera/13.0/nios2eds/bin/gnu/h-i686-mingw32/bin/../lib/gcc/nios2-elf/4.1.2\libgcc.a(_usi_to_df.o)
                                0x1d7 (size before relaxing)
 .debug_str     0x000004cc       0x76 c:/altera/13.0/nios2eds/bin/gnu/h-i686-mingw32/bin/../lib/gcc/nios2-elf/4.1.2\libgcc.a(lib2-divmod.o)
                                0x1b1 (size before relaxing)
 .debug_str     0x00000542       0x42 c:/altera/13.0/nios2eds/bin/gnu/h-i686-mingw32/bin/../lib/gcc/nios2-elf/4.1.2\libgcc.a(_muldi3.o)
                                0x1a9 (size before relaxing)
 .debug_str     0x00000584       0x20 c:/altera/13.0/nios2eds/bin/gnu/h-i686-mingw32/bin/../lib/gcc/nios2-elf/4.1.2\libgcc.a(_clzsi2.o)
                                0x17b (size before relaxing)
 .debug_str     0x000005a4       0x10 c:/altera/13.0/nios2eds/bin/gnu/h-i686-mingw32/bin/../lib/gcc/nios2-elf/4.1.2\libgcc.a(_pack_df.o)
                                0x203 (size before relaxing)
 .debug_str     0x000005b4        0xb c:/altera/13.0/nios2eds/bin/gnu/h-i686-mingw32/bin/../lib/gcc/nios2-elf/4.1.2\libgcc.a(_unpack_df.o)
                                0x1e5 (size before relaxing)
 .debug_str     0x000005bf       0x10 c:/altera/13.0/nios2eds/bin/gnu/h-i686-mingw32/bin/../lib/gcc/nios2-elf/4.1.2\libgcc.a(_fpcmp_parts_df.o)
                                0x1c3 (size before relaxing)
 .debug_str     0x00000000      0x15e c:/altera/13.0/nios2eds/bin/gnu/h-i686-mingw32/bin/../lib/gcc/nios2-elf/4.1.2\libgcc.a(_clz.o)
 .debug_str     0x000005cf      0x430 c:/altera/13.0/nios2eds/bin/gnu/h-i686-mingw32/bin/../lib/gcc/nios2-elf/4.1.2/../../../../nios2-elf/lib\libc.a(lib_a-atoi.o)
                                0x4f9 (size before relaxing)
 .debug_str     0x000009ff       0xdf c:/altera/13.0/nios2eds/bin/gnu/h-i686-mingw32/bin/../lib/gcc/nios2-elf/4.1.2/../../../../nios2-elf/lib\libc.a(lib_a-ctype_.o)
                                0x102 (size before relaxing)
 .debug_str     0x00000ade       0xd8 c:/altera/13.0/nios2eds/bin/gnu/h-i686-mingw32/bin/../lib/gcc/nios2-elf/4.1.2/../../../../nios2-elf/lib\libc.a(lib_a-fclose.o)
                                0x513 (size before relaxing)
 .debug_str     0x00000bb6       0x65 c:/altera/13.0/nios2eds/bin/gnu/h-i686-mingw32/bin/../lib/gcc/nios2-elf/4.1.2/../../../../nios2-elf/lib\libc.a(lib_a-fflush.o)
                                0x52f (size before relaxing)
 .debug_str     0x00000c1b       0x4e c:/altera/13.0/nios2eds/bin/gnu/h-i686-mingw32/bin/../lib/gcc/nios2-elf/4.1.2/../../../../nios2-elf/lib\libc.a(lib_a-fgetpos.o)
                                0x511 (size before relaxing)
 .debug_str     0x00000c69      0x102 c:/altera/13.0/nios2eds/bin/gnu/h-i686-mingw32/bin/../lib/gcc/nios2-elf/4.1.2/../../../../nios2-elf/lib\libc.a(lib_a-findfp.o)
                                0x5f1 (size before relaxing)
 .debug_str     0x00000d6b       0x4f c:/altera/13.0/nios2eds/bin/gnu/h-i686-mingw32/bin/../lib/gcc/nios2-elf/4.1.2/../../../../nios2-elf/lib\libc.a(lib_a-fopen.o)
                                0x522 (size before relaxing)
 .debug_str     0x00000dba       0x5d c:/altera/13.0/nios2eds/bin/gnu/h-i686-mingw32/bin/../lib/gcc/nios2-elf/4.1.2/../../../../nios2-elf/lib\libc.a(lib_a-fprintf.o)
                                0x51c (size before relaxing)
 .debug_str     0x00000e17       0x6a c:/altera/13.0/nios2eds/bin/gnu/h-i686-mingw32/bin/../lib/gcc/nios2-elf/4.1.2/../../../../nios2-elf/lib\libc.a(lib_a-fread.o)
                                0x54b (size before relaxing)
 .debug_str     0x00000e81      0x15b c:/altera/13.0/nios2eds/bin/gnu/h-i686-mingw32/bin/../lib/gcc/nios2-elf/4.1.2/../../../../nios2-elf/lib\libc.a(lib_a-freer.o)
                                0x640 (size before relaxing)
 .debug_str     0x00000fdc      0x13a c:/altera/13.0/nios2eds/bin/gnu/h-i686-mingw32/bin/../lib/gcc/nios2-elf/4.1.2/../../../../nios2-elf/lib\libc.a(lib_a-fseek.o)
                                0x62f (size before relaxing)
 .debug_str     0x00001116       0xd1 c:/altera/13.0/nios2eds/bin/gnu/h-i686-mingw32/bin/../lib/gcc/nios2-elf/4.1.2/../../../../nios2-elf/lib\libc.a(lib_a-fstatr.o)
                                0x5ee (size before relaxing)
 .debug_str     0x000011e7       0x48 c:/altera/13.0/nios2eds/bin/gnu/h-i686-mingw32/bin/../lib/gcc/nios2-elf/4.1.2/../../../../nios2-elf/lib\libc.a(lib_a-ftell.o)
                                0x50b (size before relaxing)
 .debug_str     0x0000122f       0x5e c:/altera/13.0/nios2eds/bin/gnu/h-i686-mingw32/bin/../lib/gcc/nios2-elf/4.1.2/../../../../nios2-elf/lib\libc.a(lib_a-fwalk.o)
                                0x532 (size before relaxing)
 .debug_str     0x0000128d       0x87 c:/altera/13.0/nios2eds/bin/gnu/h-i686-mingw32/bin/../lib/gcc/nios2-elf/4.1.2/../../../../nios2-elf/lib\libc.a(lib_a-fwrite.o)
                                0x55c (size before relaxing)
 .debug_str     0x00001314       0x40 c:/altera/13.0/nios2eds/bin/gnu/h-i686-mingw32/bin/../lib/gcc/nios2-elf/4.1.2/../../../../nios2-elf/lib\libc.a(lib_a-getc.o)
                                0x50f (size before relaxing)
 .debug_str     0x00001354       0x46 c:/altera/13.0/nios2eds/bin/gnu/h-i686-mingw32/bin/../lib/gcc/nios2-elf/4.1.2/../../../../nios2-elf/lib\libc.a(lib_a-impure.o)
                                0x517 (size before relaxing)
 .debug_str     0x0000139a       0x3d c:/altera/13.0/nios2eds/bin/gnu/h-i686-mingw32/bin/../lib/gcc/nios2-elf/4.1.2/../../../../nios2-elf/lib\libc.a(lib_a-int_errno.o)
                                0x160 (size before relaxing)
 .debug_str     0x000013d7       0x53 c:/altera/13.0/nios2eds/bin/gnu/h-i686-mingw32/bin/../lib/gcc/nios2-elf/4.1.2/../../../../nios2-elf/lib\libc.a(lib_a-makebuf.o)
                                0x603 (size before relaxing)
 .debug_str     0x0000142a       0xe9 c:/altera/13.0/nios2eds/bin/gnu/h-i686-mingw32/bin/../lib/gcc/nios2-elf/4.1.2/../../../../nios2-elf/lib\libc.a(lib_a-mallocr.o)
                                0x6ee (size before relaxing)
 .debug_str     0x00001513       0xf2 c:/altera/13.0/nios2eds/bin/gnu/h-i686-mingw32/bin/../lib/gcc/nios2-elf/4.1.2/../../../../nios2-elf/lib\libc.a(lib_a-memcpy.o)
                                0x125 (size before relaxing)
 .debug_str     0x00001605       0x5d c:/altera/13.0/nios2eds/bin/gnu/h-i686-mingw32/bin/../lib/gcc/nios2-elf/4.1.2/../../../../nios2-elf/lib\libc.a(lib_a-memmove.o)
                                0x19a (size before relaxing)
 .debug_str     0x00001662       0x56 c:/altera/13.0/nios2eds/bin/gnu/h-i686-mingw32/bin/../lib/gcc/nios2-elf/4.1.2/../../../../nios2-elf/lib\libc.a(lib_a-memset.o)
                                0x17b (size before relaxing)
 .debug_str     0x000016b8       0x41 c:/altera/13.0/nios2eds/bin/gnu/h-i686-mingw32/bin/../lib/gcc/nios2-elf/4.1.2/../../../../nios2-elf/lib\libc.a(lib_a-openr.o)
                                0x509 (size before relaxing)
 .debug_str     0x000016f9       0x4b c:/altera/13.0/nios2eds/bin/gnu/h-i686-mingw32/bin/../lib/gcc/nios2-elf/4.1.2/../../../../nios2-elf/lib\libc.a(lib_a-perror.o)
                                0x50f (size before relaxing)
 .debug_str     0x00001744       0x44 c:/altera/13.0/nios2eds/bin/gnu/h-i686-mingw32/bin/../lib/gcc/nios2-elf/4.1.2/../../../../nios2-elf/lib\libc.a(lib_a-printf.o)
                                0x520 (size before relaxing)
 .debug_str     0x00001788       0x40 c:/altera/13.0/nios2eds/bin/gnu/h-i686-mingw32/bin/../lib/gcc/nios2-elf/4.1.2/../../../../nios2-elf/lib\libc.a(lib_a-putc.o)
                                0x50f (size before relaxing)
 .debug_str     0x000017c8       0x4e c:/altera/13.0/nios2eds/bin/gnu/h-i686-mingw32/bin/../lib/gcc/nios2-elf/4.1.2/../../../../nios2-elf/lib\libc.a(lib_a-putchar.o)
                                0x50c (size before relaxing)
 .debug_str     0x00001816       0x40 c:/altera/13.0/nios2eds/bin/gnu/h-i686-mingw32/bin/../lib/gcc/nios2-elf/4.1.2/../../../../nios2-elf/lib\libc.a(lib_a-puts.o)
                                0x546 (size before relaxing)
 .debug_str     0x00001856       0x4d c:/altera/13.0/nios2eds/bin/gnu/h-i686-mingw32/bin/../lib/gcc/nios2-elf/4.1.2/../../../../nios2-elf/lib\libc.a(lib_a-refill.o)
                                0x517 (size before relaxing)
 .debug_str     0x000018a3       0x4a c:/altera/13.0/nios2eds/bin/gnu/h-i686-mingw32/bin/../lib/gcc/nios2-elf/4.1.2/../../../../nios2-elf/lib\libc.a(lib_a-rget.o)
                                0x50d (size before relaxing)
 .debug_str     0x000018ed       0x50 c:/altera/13.0/nios2eds/bin/gnu/h-i686-mingw32/bin/../lib/gcc/nios2-elf/4.1.2/../../../../nios2-elf/lib\libc.a(lib_a-sbrkr.o)
                                0x508 (size before relaxing)
 .debug_str     0x0000193d       0x46 c:/altera/13.0/nios2eds/bin/gnu/h-i686-mingw32/bin/../lib/gcc/nios2-elf/4.1.2/../../../../nios2-elf/lib\libc.a(lib_a-sprintf.o)
                                0x528 (size before relaxing)
 .debug_str     0x00001983       0x53 c:/altera/13.0/nios2eds/bin/gnu/h-i686-mingw32/bin/../lib/gcc/nios2-elf/4.1.2/../../../../nios2-elf/lib\libc.a(lib_a-sscanf.o)
                                0x534 (size before relaxing)
 .debug_str     0x000019d6       0x5b c:/altera/13.0/nios2eds/bin/gnu/h-i686-mingw32/bin/../lib/gcc/nios2-elf/4.1.2/../../../../nios2-elf/lib\libc.a(lib_a-stdio.o)
                                0x52e (size before relaxing)
 .debug_str     0x00001a31       0x4a c:/altera/13.0/nios2eds/bin/gnu/h-i686-mingw32/bin/../lib/gcc/nios2-elf/4.1.2/../../../../nios2-elf/lib\libc.a(lib_a-strcasecmp.o)
                                0x174 (size before relaxing)
 .debug_str     0x00001a7b       0x4d c:/altera/13.0/nios2eds/bin/gnu/h-i686-mingw32/bin/../lib/gcc/nios2-elf/4.1.2/../../../../nios2-elf/lib\libc.a(lib_a-strcat.o)
                                0x16b (size before relaxing)
 .debug_str     0x00001ac8       0x47 c:/altera/13.0/nios2eds/bin/gnu/h-i686-mingw32/bin/../lib/gcc/nios2-elf/4.1.2/../../../../nios2-elf/lib\libc.a(lib_a-strchr.o)
                                0x172 (size before relaxing)
 .debug_str     0x00001b0f       0x42 c:/altera/13.0/nios2eds/bin/gnu/h-i686-mingw32/bin/../lib/gcc/nios2-elf/4.1.2/../../../../nios2-elf/lib\libc.a(lib_a-strcmp.o)
                                0x160 (size before relaxing)
 .debug_str     0x00001b51       0x42 c:/altera/13.0/nios2eds/bin/gnu/h-i686-mingw32/bin/../lib/gcc/nios2-elf/4.1.2/../../../../nios2-elf/lib\libc.a(lib_a-strcpy.o)
                                0x182 (size before relaxing)
 .debug_str     0x00001b93       0x44 c:/altera/13.0/nios2eds/bin/gnu/h-i686-mingw32/bin/../lib/gcc/nios2-elf/4.1.2/../../../../nios2-elf/lib\libc.a(lib_a-strerror.o)
                                0x171 (size before relaxing)
 .debug_str     0x00001bd7       0x42 c:/altera/13.0/nios2eds/bin/gnu/h-i686-mingw32/bin/../lib/gcc/nios2-elf/4.1.2/../../../../nios2-elf/lib\libc.a(lib_a-strlen.o)
                                0x17a (size before relaxing)
 .debug_str     0x00001c19       0x44 c:/altera/13.0/nios2eds/bin/gnu/h-i686-mingw32/bin/../lib/gcc/nios2-elf/4.1.2/../../../../nios2-elf/lib\libc.a(lib_a-strncmp.o)
                                0x169 (size before relaxing)
 .debug_str     0x00001c5d       0x44 c:/altera/13.0/nios2eds/bin/gnu/h-i686-mingw32/bin/../lib/gcc/nios2-elf/4.1.2/../../../../nios2-elf/lib\libc.a(lib_a-strncpy.o)
                                0x191 (size before relaxing)
 .debug_str     0x00001ca1       0xe8 c:/altera/13.0/nios2eds/bin/gnu/h-i686-mingw32/bin/../lib/gcc/nios2-elf/4.1.2/../../../../nios2-elf/lib\libc.a(lib_a-strstr.o)
                                0x221 (size before relaxing)
 .debug_str     0x00001d89       0x42 c:/altera/13.0/nios2eds/bin/gnu/h-i686-mingw32/bin/../lib/gcc/nios2-elf/4.1.2/../../../../nios2-elf/lib\libc.a(lib_a-strtok.o)
                                0x507 (size before relaxing)
 .debug_str     0x00001dcb       0x6c c:/altera/13.0/nios2eds/bin/gnu/h-i686-mingw32/bin/../lib/gcc/nios2-elf/4.1.2/../../../../nios2-elf/lib\libc.a(lib_a-strtok_r.o)
                                0x199 (size before relaxing)
 .debug_str     0x00001e37       0x61 c:/altera/13.0/nios2eds/bin/gnu/h-i686-mingw32/bin/../lib/gcc/nios2-elf/4.1.2/../../../../nios2-elf/lib\libc.a(lib_a-strtol.o)
                                0x53b (size before relaxing)
 .debug_str     0x00001e98       0x4c c:/altera/13.0/nios2eds/bin/gnu/h-i686-mingw32/bin/../lib/gcc/nios2-elf/4.1.2/../../../../nios2-elf/lib\libc.a(lib_a-u_strerr.o)
                                 0xed (size before relaxing)
 .debug_str     0x00001ee4      0x167 c:/altera/13.0/nios2eds/bin/gnu/h-i686-mingw32/bin/../lib/gcc/nios2-elf/4.1.2/../../../../nios2-elf/lib\libc.a(lib_a-vfprintf.o)
                                0x6f5 (size before relaxing)
 .debug_str     0x0000204b      0x144 c:/altera/13.0/nios2eds/bin/gnu/h-i686-mingw32/bin/../lib/gcc/nios2-elf/4.1.2/../../../../nios2-elf/lib\libc.a(lib_a-vfscanf.o)
                                0x68e (size before relaxing)
 .debug_str     0x0000218f       0x4a c:/altera/13.0/nios2eds/bin/gnu/h-i686-mingw32/bin/../lib/gcc/nios2-elf/4.1.2/../../../../nios2-elf/lib\libc.a(lib_a-wbuf.o)
                                0x50d (size before relaxing)
 .debug_str     0x000021d9       0x4c c:/altera/13.0/nios2eds/bin/gnu/h-i686-mingw32/bin/../lib/gcc/nios2-elf/4.1.2/../../../../nios2-elf/lib\libc.a(lib_a-writer.o)
                                0x50b (size before relaxing)
 .debug_str     0x00002225       0x46 c:/altera/13.0/nios2eds/bin/gnu/h-i686-mingw32/bin/../lib/gcc/nios2-elf/4.1.2/../../../../nios2-elf/lib\libc.a(lib_a-wsetup.o)
                                0x509 (size before relaxing)
 .debug_str     0x0000226b       0x43 c:/altera/13.0/nios2eds/bin/gnu/h-i686-mingw32/bin/../lib/gcc/nios2-elf/4.1.2/../../../../nios2-elf/lib\libc.a(lib_a-closer.o)
                                0x4fb (size before relaxing)
 .debug_str     0x000022ae       0xfc c:/altera/13.0/nios2eds/bin/gnu/h-i686-mingw32/bin/../lib/gcc/nios2-elf/4.1.2/../../../../nios2-elf/lib\libc.a(lib_a-dtoa.o)
                                0x5fe (size before relaxing)
 .debug_str     0x000023aa       0x47 c:/altera/13.0/nios2eds/bin/gnu/h-i686-mingw32/bin/../lib/gcc/nios2-elf/4.1.2/../../../../nios2-elf/lib\libc.a(lib_a-flags.o)
                                0x4fe (size before relaxing)
 .debug_str     0x000023f1       0x48 c:/altera/13.0/nios2eds/bin/gnu/h-i686-mingw32/bin/../lib/gcc/nios2-elf/4.1.2/../../../../nios2-elf/lib\libc.a(lib_a-fputc.o)
                                0x517 (size before relaxing)
 .debug_str     0x00002439       0x48 c:/altera/13.0/nios2eds/bin/gnu/h-i686-mingw32/bin/../lib/gcc/nios2-elf/4.1.2/../../../../nios2-elf/lib\libc.a(lib_a-fputs.o)
                                0x555 (size before relaxing)
 .debug_str     0x00002481       0x66 c:/altera/13.0/nios2eds/bin/gnu/h-i686-mingw32/bin/../lib/gcc/nios2-elf/4.1.2/../../../../nios2-elf/lib\libc.a(lib_a-fvwrite.o)
                                0x560 (size before relaxing)
 .debug_str     0x000024e7       0x45 c:/altera/13.0/nios2eds/bin/gnu/h-i686-mingw32/bin/../lib/gcc/nios2-elf/4.1.2/../../../../nios2-elf/lib\libc.a(lib_a-isattyr.o)
                                0x4fd (size before relaxing)
 .debug_str     0x0000252c       0x58 c:/altera/13.0/nios2eds/bin/gnu/h-i686-mingw32/bin/../lib/gcc/nios2-elf/4.1.2/../../../../nios2-elf/lib\libc.a(lib_a-iswspace.o)
                                0x188 (size before relaxing)
 .debug_str     0x00002584      0x20a c:/altera/13.0/nios2eds/bin/gnu/h-i686-mingw32/bin/../lib/gcc/nios2-elf/4.1.2/../../../../nios2-elf/lib\libc.a(lib_a-locale.o)
                                0x6a6 (size before relaxing)
 .debug_str     0x0000278e       0x43 c:/altera/13.0/nios2eds/bin/gnu/h-i686-mingw32/bin/../lib/gcc/nios2-elf/4.1.2/../../../../nios2-elf/lib\libc.a(lib_a-lseekr.o)
                                0x509 (size before relaxing)
 .debug_str     0x000027d1       0x56 c:/altera/13.0/nios2eds/bin/gnu/h-i686-mingw32/bin/../lib/gcc/nios2-elf/4.1.2/../../../../nios2-elf/lib\libc.a(lib_a-mbrtowc.o)
                                0x52e (size before relaxing)
 .debug_str     0x00002827       0x4d c:/altera/13.0/nios2eds/bin/gnu/h-i686-mingw32/bin/../lib/gcc/nios2-elf/4.1.2/../../../../nios2-elf/lib\libc.a(lib_a-mbtowc_r.o)
                                0x51f (size before relaxing)
 .debug_str     0x00002874       0x47 c:/altera/13.0/nios2eds/bin/gnu/h-i686-mingw32/bin/../lib/gcc/nios2-elf/4.1.2/../../../../nios2-elf/lib\libc.a(lib_a-memchr.o)
                                0x188 (size before relaxing)
 .debug_str     0x000028bb       0x42 c:/altera/13.0/nios2eds/bin/gnu/h-i686-mingw32/bin/../lib/gcc/nios2-elf/4.1.2/../../../../nios2-elf/lib\libc.a(lib_a-memcmp.o)
                                0x167 (size before relaxing)
 .debug_str     0x000028fd       0xf8 c:/altera/13.0/nios2eds/bin/gnu/h-i686-mingw32/bin/../lib/gcc/nios2-elf/4.1.2/../../../../nios2-elf/lib\libc.a(lib_a-mprec.o)
                                0x60b (size before relaxing)
 .debug_str     0x000029f5       0x41 c:/altera/13.0/nios2eds/bin/gnu/h-i686-mingw32/bin/../lib/gcc/nios2-elf/4.1.2/../../../../nios2-elf/lib\libc.a(lib_a-readr.o)
                                0x509 (size before relaxing)
 .debug_str     0x00002a36       0x59 c:/altera/13.0/nios2eds/bin/gnu/h-i686-mingw32/bin/../lib/gcc/nios2-elf/4.1.2/../../../../nios2-elf/lib\libc.a(lib_a-reallocr.o)
                                0x5c0 (size before relaxing)
 .debug_str     0x00002a8f       0xd9 c:/altera/13.0/nios2eds/bin/gnu/h-i686-mingw32/bin/../lib/gcc/nios2-elf/4.1.2/../../../../nios2-elf/lib\libc.a(lib_a-s_isinfd.o)
                                0x187 (size before relaxing)
 .debug_str     0x00002b68       0x46 c:/altera/13.0/nios2eds/bin/gnu/h-i686-mingw32/bin/../lib/gcc/nios2-elf/4.1.2/../../../../nios2-elf/lib\libc.a(lib_a-s_isnand.o)
                                0x187 (size before relaxing)
 .debug_str     0x00002bae       0x4f c:/altera/13.0/nios2eds/bin/gnu/h-i686-mingw32/bin/../lib/gcc/nios2-elf/4.1.2/../../../../nios2-elf/lib\libc.a(lib_a-sccl.o)
                                0x16c (size before relaxing)
 .debug_str     0x00002bfd       0x40 c:/altera/13.0/nios2eds/bin/gnu/h-i686-mingw32/bin/../lib/gcc/nios2-elf/4.1.2/../../../../nios2-elf/lib\libc.a(lib_a-sf_nan.o)
                                0x17e (size before relaxing)
 .debug_str     0x00002c3d       0xef c:/altera/13.0/nios2eds/bin/gnu/h-i686-mingw32/bin/../lib/gcc/nios2-elf/4.1.2/../../../../nios2-elf/lib\libc.a(lib_a-strtod.o)
                                0x61e (size before relaxing)
 .debug_str     0x00002d2c       0x49 c:/altera/13.0/nios2eds/bin/gnu/h-i686-mingw32/bin/../lib/gcc/nios2-elf/4.1.2/../../../../nios2-elf/lib\libc.a(lib_a-strtoll_r.o)
                                0x52c (size before relaxing)
 .debug_str     0x00002d75       0x4f c:/altera/13.0/nios2eds/bin/gnu/h-i686-mingw32/bin/../lib/gcc/nios2-elf/4.1.2/../../../../nios2-elf/lib\libc.a(lib_a-strtoul.o)
                                0x53e (size before relaxing)
 .debug_str     0x00002dc4       0x4b c:/altera/13.0/nios2eds/bin/gnu/h-i686-mingw32/bin/../lib/gcc/nios2-elf/4.1.2/../../../../nios2-elf/lib\libc.a(lib_a-strtoull_r.o)
                                0x52e (size before relaxing)
 .debug_str     0x00002e0f       0x55 c:/altera/13.0/nios2eds/bin/gnu/h-i686-mingw32/bin/../lib/gcc/nios2-elf/4.1.2/../../../../nios2-elf/lib\libc.a(lib_a-ungetc.o)
                                0x51d (size before relaxing)
 .debug_str     0x00002e64       0x19 c:/altera/13.0/nios2eds/bin/gnu/h-i686-mingw32/bin/../lib/gcc/nios2-elf/4.1.2/../../../../nios2-elf/lib\libc.a(lib_a-callocr.o)
                                0x53f (size before relaxing)
 .debug_str     0x00002e7d       0x9e c:/altera/13.0/nios2eds/bin/gnu/h-i686-mingw32/bin/../lib/gcc/nios2-elf/4.1.2/../../../../nios2-elf/lib\libc.a(lib_a-gdtoa-gethex.o)
                                0x5b9 (size before relaxing)
 .debug_str     0x00002f1b       0x52 c:/altera/13.0/nios2eds/bin/gnu/h-i686-mingw32/bin/../lib/gcc/nios2-elf/4.1.2/../../../../nios2-elf/lib\libc.a(lib_a-gdtoa-hexnan.o)
                                0x1cc (size before relaxing)
 .debug_str     0x00002f6d       0x35 c:/altera/13.0/nios2eds/bin/gnu/h-i686-mingw32/bin/../lib/gcc/nios2-elf/4.1.2\libgcc.a(_udivdi3.o)
                                0x1f4 (size before relaxing)
 .debug_str     0x00002fa2        0xa c:/altera/13.0/nios2eds/bin/gnu/h-i686-mingw32/bin/../lib/gcc/nios2-elf/4.1.2\libgcc.a(_umoddi3.o)
                                0x1f4 (size before relaxing)
 .debug_str     0x00002fac       0x2c c:/altera/13.0/nios2eds/bin/gnu/h-i686-mingw32/bin/../lib/gcc/nios2-elf/4.1.2\libgcc.a(_ne_sf.o)
                                0x1f5 (size before relaxing)
 .debug_str     0x00002fd8        0x8 c:/altera/13.0/nios2eds/bin/gnu/h-i686-mingw32/bin/../lib/gcc/nios2-elf/4.1.2\libgcc.a(_gt_sf.o)
                                0x1f5 (size before relaxing)
 .debug_str     0x00002fe0        0x8 c:/altera/13.0/nios2eds/bin/gnu/h-i686-mingw32/bin/../lib/gcc/nios2-elf/4.1.2\libgcc.a(_lt_sf.o)
                                0x1f5 (size before relaxing)
 .debug_str     0x00002fe8       0x35 c:/altera/13.0/nios2eds/bin/gnu/h-i686-mingw32/bin/../lib/gcc/nios2-elf/4.1.2\libgcc.a(_div_df.o)
                                0x22e (size before relaxing)
 .debug_str     0x0000301d        0x8 c:/altera/13.0/nios2eds/bin/gnu/h-i686-mingw32/bin/../lib/gcc/nios2-elf/4.1.2\libgcc.a(_eq_df.o)
                                0x1fb (size before relaxing)
 .debug_str     0x00003025        0x8 c:/altera/13.0/nios2eds/bin/gnu/h-i686-mingw32/bin/../lib/gcc/nios2-elf/4.1.2\libgcc.a(_ne_df.o)
                                0x1fb (size before relaxing)
 .debug_str     0x0000302d        0x8 c:/altera/13.0/nios2eds/bin/gnu/h-i686-mingw32/bin/../lib/gcc/nios2-elf/4.1.2\libgcc.a(_gt_df.o)
                                0x1fb (size before relaxing)
 .debug_str     0x00003035        0x8 c:/altera/13.0/nios2eds/bin/gnu/h-i686-mingw32/bin/../lib/gcc/nios2-elf/4.1.2\libgcc.a(_lt_df.o)
                                0x1fb (size before relaxing)
 .debug_str     0x0000303d        0x8 c:/altera/13.0/nios2eds/bin/gnu/h-i686-mingw32/bin/../lib/gcc/nios2-elf/4.1.2\libgcc.a(_le_df.o)
                                0x1fb (size before relaxing)
 .debug_str     0x00003045       0x11 c:/altera/13.0/nios2eds/bin/gnu/h-i686-mingw32/bin/../lib/gcc/nios2-elf/4.1.2\libgcc.a(_si_to_df.o)
                                0x1db (size before relaxing)
 .debug_str     0x00003056       0x14 c:/altera/13.0/nios2eds/bin/gnu/h-i686-mingw32/bin/../lib/gcc/nios2-elf/4.1.2\libgcc.a(_df_to_sf.o)
                                0x1fb (size before relaxing)
 .debug_str     0x0000306a        0xb c:/altera/13.0/nios2eds/bin/gnu/h-i686-mingw32/bin/../lib/gcc/nios2-elf/4.1.2\libgcc.a(_unpack_sf.o)
                                0x1df (size before relaxing)
 .debug_str     0x00003075       0x10 c:/altera/13.0/nios2eds/bin/gnu/h-i686-mingw32/bin/../lib/gcc/nios2-elf/4.1.2\libgcc.a(_fpcmp_parts_sf.o)
                                0x1c3 (size before relaxing)
 .debug_str     0x00003085        0xa c:/altera/13.0/nios2eds/bin/gnu/h-i686-mingw32/bin/../lib/gcc/nios2-elf/4.1.2\libgcc.a(_make_sf.o)
                                0x1b6 (size before relaxing)
 .debug_str     0x0000308f        0x9 c:/altera/13.0/nios2eds/bin/gnu/h-i686-mingw32/bin/../lib/gcc/nios2-elf/4.1.2\libgcc.a(_pack_sf.o)
                                0x1fd (size before relaxing)
 .debug_str     0x00003098       0x12 ../WebServer_bsp/\libucosii_bsp.a(alt_dcache_flush.o)
 .debug_str     0x000030aa       0x2d ../WebServer_bsp/\libucosii_bsp.a(alt_flash_dev.o)
 .debug_str     0x000030d7       0x12 ../WebServer_bsp/\libucosii_bsp.a(alt_fstat.o)
 .debug_str     0x000030e9       0x21 ../WebServer_bsp/\libucosii_bsp.a(alt_irq_register.o)
 .debug_str     0x0000310a       0x12 ../WebServer_bsp/\libucosii_bsp.a(alt_isatty.o)
 .debug_str     0x0000311c       0x12 ../WebServer_bsp/\libucosii_bsp.a(alt_lseek.o)
 .debug_str     0x0000312e       0x12 ../WebServer_bsp/\libucosii_bsp.a(alt_main.o)
 .debug_str     0x00003140       0x12 ../WebServer_bsp/\libucosii_bsp.a(alt_open.o)
 .debug_str     0x00003152       0x12 ../WebServer_bsp/\libucosii_bsp.a(alt_release_fd.o)
 .debug_str     0x00003164       0x1a ../WebServer_bsp/\libucosii_bsp.a(alt_sbrk.o)
 .debug_str     0x0000317e       0x1a ../WebServer_bsp/\libucosii_bsp.a(alt_tick.o)
 .debug_str     0x00003198       0x12 ../WebServer_bsp/\libucosii_bsp.a(alt_usleep.o)
 .debug_str     0x000031aa       0x36 ../WebServer_bsp/\libucosii_bsp.a(alt_env_lock.o)
 .debug_str     0x000031e0       0x36 ../WebServer_bsp/\libucosii_bsp.a(alt_malloc_lock.o)
 .debug_str     0x00003216       0x46 ../WebServer_bsp/\libucosii_bsp.a(os_core.o)
 .debug_str     0x0000325c       0x2b ../WebServer_bsp/\libucosii_bsp.a(os_dbg.o)
 .debug_str     0x00003287       0x4e ../WebServer_bsp/\libucosii_bsp.a(os_flag.o)
 .debug_str     0x000032d5       0x36 ../WebServer_bsp/\libucosii_bsp.a(os_mbox.o)
 .debug_str     0x0000330b       0x2c ../WebServer_bsp/\libucosii_bsp.a(os_mem.o)
 .debug_str     0x00003337       0x36 ../WebServer_bsp/\libucosii_bsp.a(os_q.o)
 .debug_str     0x0000336d       0x36 ../WebServer_bsp/\libucosii_bsp.a(os_sem.o)
 .debug_str     0x000033a3       0x23 ../WebServer_bsp/\libucosii_bsp.a(os_task.o)
 .debug_str     0x000033c6       0x1f ../WebServer_bsp/\libucosii_bsp.a(os_time.o)
 .debug_str     0x000033e5       0x67 ../WebServer_bsp/\libucosii_bsp.a(alt_sys_init.o)
 .debug_str     0x0000344c       0x82 ../WebServer_bsp/\libucosii_bsp.a(altera_avalon_cfi_flash.o)
 .debug_str     0x000034ce       0x6d ../WebServer_bsp/\libucosii_bsp.a(altera_avalon_cfi_flash_table.o)
 .debug_str     0x0000353b       0x90 ../WebServer_bsp/\libucosii_bsp.a(altera_avalon_epcs_flash_controller.o)
 .debug_str     0x000035cb       0x12 ../WebServer_bsp/\libucosii_bsp.a(altera_avalon_jtag_uart_fd.o)
 .debug_str     0x000035dd       0x1a ../WebServer_bsp/\libucosii_bsp.a(altera_avalon_jtag_uart_init.o)
 .debug_str     0x000035f7       0x12 ../WebServer_bsp/\libucosii_bsp.a(altera_avalon_jtag_uart_ioctl.o)
 .debug_str     0x00003609       0x22 ../WebServer_bsp/\libucosii_bsp.a(altera_avalon_jtag_uart_read.o)
 .debug_str     0x0000362b       0x22 ../WebServer_bsp/\libucosii_bsp.a(altera_avalon_jtag_uart_write.o)
 .debug_str     0x0000364d       0x25 ../WebServer_bsp/\libucosii_bsp.a(altera_avalon_lcd_16207.o)
 .debug_str     0x00003672       0x12 ../WebServer_bsp/\libucosii_bsp.a(altera_avalon_lcd_16207_fd.o)
 .debug_str     0x00003684       0x12 ../WebServer_bsp/\libucosii_bsp.a(altera_avalon_timer_sc.o)
 .debug_str     0x00003696       0x12 ../WebServer_bsp/\libucosii_bsp.a(altera_avalon_uart_fd.o)
 .debug_str     0x000036a8       0x1f ../WebServer_bsp/\libucosii_bsp.a(altera_avalon_uart_init.o)
 .debug_str     0x000036c7       0x1a ../WebServer_bsp/\libucosii_bsp.a(altera_avalon_uart_read.o)
 .debug_str     0x000036e1       0x1a ../WebServer_bsp/\libucosii_bsp.a(altera_avalon_uart_write.o)
 .debug_str     0x000036fb       0x95 ../WebServer_bsp/\libucosii_bsp.a(altera_ro_zipfs.o)
 .debug_str     0x00003790       0x2e ../WebServer_bsp/\libucosii_bsp.a(epcs_commands.o)
 .debug_str     0x000037be       0x12 ../WebServer_bsp/\libucosii_bsp.a(alt_iniche_close.o)
 .debug_str     0x000037d0       0x12 ../WebServer_bsp/\libucosii_bsp.a(alt_iniche_dev.o)
 .debug_str     0x000037e2       0x12 ../WebServer_bsp/\libucosii_bsp.a(alt_iniche_read.o)
 .debug_str     0x000037f4       0x12 ../WebServer_bsp/\libucosii_bsp.a(alt_iniche_write.o)
 .debug_str     0x00003806       0x12 ../WebServer_bsp/\libucosii_bsp.a(ipnet.o)
 .debug_str     0x00003818       0x12 ../WebServer_bsp/\libucosii_bsp.a(ipstart.o)
 .debug_str     0x0000382a       0x12 ../WebServer_bsp/\libucosii_bsp.a(igmp_cmn.o)
 .debug_str     0x0000383c       0x20 ../WebServer_bsp/\libucosii_bsp.a(bsdsock.o)
 .debug_str     0x0000385c       0x12 ../WebServer_bsp/\libucosii_bsp.a(cksum.o)
 .debug_str     0x0000386e       0x12 ../WebServer_bsp/\libucosii_bsp.a(in_utils.o)
 .debug_str     0x00003880       0x12 ../WebServer_bsp/\libucosii_bsp.a(netmain.o)
 .debug_str     0x00003892       0x12 ../WebServer_bsp/\libucosii_bsp.a(tk_crnos.o)
 .debug_str     0x000038a4       0x2e ../WebServer_bsp/\libucosii_bsp.a(dhcpclnt.o)
 .debug_str     0x000038d2       0x12 ../WebServer_bsp/\libucosii_bsp.a(dhcputil.o)
 .debug_str     0x000038e4       0x12 ../WebServer_bsp/\libucosii_bsp.a(pktalloc.o)
 .debug_str     0x000038f6       0x12 ../WebServer_bsp/\libucosii_bsp.a(q.o)
 .debug_str     0x00003908       0x12 ../WebServer_bsp/\libucosii_bsp.a(udp_open.o)
 .debug_str     0x0000391a       0x20 ../WebServer_bsp/\libucosii_bsp.a(brdutils.o)
 .debug_str     0x0000393a       0x22 ../WebServer_bsp/\libucosii_bsp.a(osportco.o)
 .debug_str     0x0000395c       0x12 ../WebServer_bsp/\libucosii_bsp.a(targnios.o)
 .debug_str     0x0000396e       0x1e ../WebServer_bsp/\libucosii_bsp.a(nptcp.o)
 .debug_str     0x0000398c       0x12 ../WebServer_bsp/\libucosii_bsp.a(rawsock.o)
 .debug_str     0x0000399e       0x34 ../WebServer_bsp/\libucosii_bsp.a(sockcall.o)
 .debug_str     0x000039d2       0x18 ../WebServer_bsp/\libucosii_bsp.a(socket.o)
 .debug_str     0x000039ea       0x12 ../WebServer_bsp/\libucosii_bsp.a(socket2.o)
 .debug_str     0x000039fc       0x12 ../WebServer_bsp/\libucosii_bsp.a(soselect.o)
 .debug_str     0x00003a0e       0x12 ../WebServer_bsp/\libucosii_bsp.a(tcp_in.o)
 .debug_str     0x00003a20       0x12 ../WebServer_bsp/\libucosii_bsp.a(tcp_out.o)
 .debug_str     0x00003a32       0x12 ../WebServer_bsp/\libucosii_bsp.a(tcp_subr.o)
 .debug_str     0x00003a44       0x12 ../WebServer_bsp/\libucosii_bsp.a(tcp_timr.o)
 .debug_str     0x00003a56       0x12 ../WebServer_bsp/\libucosii_bsp.a(tcp_usr.o)
 .debug_str     0x00003a68       0x12 ../WebServer_bsp/\libucosii_bsp.a(tcpport.o)
 .debug_str     0x00003a7a       0x1a ../WebServer_bsp/\libucosii_bsp.a(udpsock.o)
 .debug_str     0x00003a94       0x23 ../WebServer_bsp/\libucosii_bsp.a(alt_alarm_start.o)
 .debug_str     0x00003ab7       0x12 ../WebServer_bsp/\libucosii_bsp.a(alt_busy_sleep.o)
 .debug_str     0x00003ac9       0x12 ../WebServer_bsp/\libucosii_bsp.a(alt_close.o)
 .debug_str     0x00003adb       0x12 ../WebServer_bsp/\libucosii_bsp.a(alt_dev.o)
 .debug_str     0x00003aed       0x12 ../WebServer_bsp/\libucosii_bsp.a(alt_dev_llist_insert.o)
 .debug_str     0x00003aff       0x12 ../WebServer_bsp/\libucosii_bsp.a(alt_errno.o)
 .debug_str     0x00003b11       0x12 ../WebServer_bsp/\libucosii_bsp.a(alt_find_dev.o)
 .debug_str     0x00003b23       0x12 ../WebServer_bsp/\libucosii_bsp.a(alt_find_file.o)
 .debug_str     0x00003b35       0x12 ../WebServer_bsp/\libucosii_bsp.a(alt_fs_reg.o)
 .debug_str     0x00003b47       0x12 ../WebServer_bsp/\libucosii_bsp.a(alt_get_fd.o)
 .debug_str     0x00003b59       0x18 ../WebServer_bsp/\libucosii_bsp.a(alt_iic.o)
 .debug_str     0x00003b71       0x1a ../WebServer_bsp/\libucosii_bsp.a(alt_iic_isr_register.o)
 .debug_str     0x00003b8b       0x12 ../WebServer_bsp/\libucosii_bsp.a(alt_io_redirect.o)
 .debug_str     0x00003b9d       0x12 ../WebServer_bsp/\libucosii_bsp.a(alt_irq_handler.o)
 .debug_str     0x00003baf       0x12 ../WebServer_bsp/\libucosii_bsp.a(alt_read.o)
 .debug_str     0x00003bc1       0x12 ../WebServer_bsp/\libucosii_bsp.a(alt_remap_cached.o)
 .debug_str     0x00003bd3       0x12 ../WebServer_bsp/\libucosii_bsp.a(alt_remap_uncached.o)
 .debug_str     0x00003be5       0x12 ../WebServer_bsp/\libucosii_bsp.a(alt_write.o)
 .debug_str     0x00003bf7       0x12 ../WebServer_bsp/\libucosii_bsp.a(altera_nios2_qsys_irq.o)
 .debug_str     0x00003c09       0x20 ../WebServer_bsp/\libucosii_bsp.a(os_cpu_c.o)
 .debug_str     0x00003c29       0x76 ../WebServer_bsp/\libucosii_bsp.a(altera_avalon_cfi_flash_amd.o)
 .debug_str     0x00003c9f       0x7d ../WebServer_bsp/\libucosii_bsp.a(altera_avalon_cfi_flash_intel.o)
 .debug_str     0x00003d1c       0x12 ../WebServer_bsp/\libucosii_bsp.a(allports.o)
 .debug_str     0x00003d2e       0x1b ../WebServer_bsp/\libucosii_bsp.a(timeouts.o)
 .debug_str     0x00003d49       0x12 ../WebServer_bsp/\libucosii_bsp.a(tk_misc.o)
 .debug_str     0x00003d5b       0x12 ../WebServer_bsp/\libucosii_bsp.a(alt_iniche_fcntl.o)
 .debug_str     0x00003d6d       0x3d ../WebServer_bsp/\libucosii_bsp.a(et_arp.o)
 .debug_str     0x00003daa       0x12 ../WebServer_bsp/\libucosii_bsp.a(iface.o)
 .debug_str     0x00003dbc       0x2c ../WebServer_bsp/\libucosii_bsp.a(ip.o)
 .debug_str     0x00003de8       0x4e ../WebServer_bsp/\libucosii_bsp.a(ip_reasm.o)
 .debug_str     0x00003e36       0x12 ../WebServer_bsp/\libucosii_bsp.a(ipdemux.o)
 .debug_str     0x00003e48       0x12 ../WebServer_bsp/\libucosii_bsp.a(ipmc.o)
 .debug_str     0x00003e5a       0x12 ../WebServer_bsp/\libucosii_bsp.a(ipport.o)
 .debug_str     0x00003e6c       0x12 ../WebServer_bsp/\libucosii_bsp.a(ipraw.o)
 .debug_str     0x00003e7e       0x12 ../WebServer_bsp/\libucosii_bsp.a(iproute.o)
 .debug_str     0x00003e90       0x12 ../WebServer_bsp/\libucosii_bsp.a(udp.o)
 .debug_str     0x00003ea2       0x12 ../WebServer_bsp/\libucosii_bsp.a(igmp.o)
 .debug_str     0x00003eb4       0x20 ../WebServer_bsp/\libucosii_bsp.a(igmp2.o)
 .debug_str     0x00003ed4       0x12 ../WebServer_bsp/\libucosii_bsp.a(ipopt.o)
 .debug_str     0x00003ee6       0x12 ../WebServer_bsp/\libucosii_bsp.a(u_mctest.o)
 .debug_str     0x00003ef8       0x12 ../WebServer_bsp/\libucosii_bsp.a(dhcsetup.o)
 .debug_str     0x00003f0a       0x1b ../WebServer_bsp/\libucosii_bsp.a(memdev.o)
 .debug_str     0x00003f25       0x12 ../WebServer_bsp/\libucosii_bsp.a(parseip.o)
 .debug_str     0x00003f37       0x12 ../WebServer_bsp/\libucosii_bsp.a(tcpcksum.o)
 .debug_str     0x00003f49       0x12 ../WebServer_bsp/\libucosii_bsp.a(in_pcb.o)
 .debug_str     0x00003f5b       0x2b ../WebServer_bsp/\libucosii_bsp.a(vfsfiles.o)
 .debug_str     0x00003f86       0x12 ../WebServer_bsp/\libucosii_bsp.a(vfsport.o)
 .debug_str     0x00003f98       0x12 ../WebServer_bsp/\libucosii_bsp.a(alt_fcntl.o)
 .debug_str     0x00003faa       0x12 ../WebServer_bsp/\libucosii_bsp.a(icmp.o)
 .debug_str     0x00003fbc       0x3b c:/altera/13.0/nios2eds/bin/gnu/h-i686-mingw32/bin/../lib/gcc/nios2-elf/4.1.2/../../../../nios2-elf/lib\libc.a(lib_a-atexit.o)
                                0x1bc (size before relaxing)
 .debug_str     0x00003ff7       0x42 c:/altera/13.0/nios2eds/bin/gnu/h-i686-mingw32/bin/../lib/gcc/nios2-elf/4.1.2/../../../../nios2-elf/lib\libc.a(lib_a-calloc.o)
                                0x50d (size before relaxing)
 .debug_str     0x00004039       0x39 c:/altera/13.0/nios2eds/bin/gnu/h-i686-mingw32/bin/../lib/gcc/nios2-elf/4.1.2/../../../../nios2-elf/lib\libc.a(lib_a-exit.o)
                                0x509 (size before relaxing)
 .debug_str     0x00004072       0x40 c:/altera/13.0/nios2eds/bin/gnu/h-i686-mingw32/bin/../lib/gcc/nios2-elf/4.1.2/../../../../nios2-elf/lib\libc.a(lib_a-malloc.o)
                                0x519 (size before relaxing)
 .debug_str     0x000040b2       0x4e c:/altera/13.0/nios2eds/bin/gnu/h-i686-mingw32/bin/../lib/gcc/nios2-elf/4.1.2/../../../../nios2-elf/lib\libc.a(lib_a-vprintf.o)
                                0x523 (size before relaxing)
 .debug_str     0x00004100       0x51 c:/altera/13.0/nios2eds/bin/gnu/h-i686-mingw32/bin/../lib/gcc/nios2-elf/4.1.2/../../../../nios2-elf/lib\libc.a(lib_a-vsprintf.o)
                                0x52b (size before relaxing)
 .debug_str     0x00004151       0x51 c:/altera/13.0/nios2eds/bin/gnu/h-i686-mingw32/bin/../lib/gcc/nios2-elf/4.1.2/../../../../nios2-elf/lib\libc.a(lib_a-__atexit.o)
                                0x521 (size before relaxing)
 .debug_str     0x000041a2       0x7b c:/altera/13.0/nios2eds/bin/gnu/h-i686-mingw32/bin/../lib/gcc/nios2-elf/4.1.2/../../../../nios2-elf/lib\libc.a(lib_a-__call_atexit.o)
                                0x54b (size before relaxing)
 .debug_str     0x0000421d       0x1c ../WebServer_bsp/\libucosii_bsp.a(alt_exit.o)

.debug_loc      0x00000000    0x1b166
 *(.debug_loc)
 .debug_loc     0x00000000       0x2b obj/default/alt_error_handler.o
 .debug_loc     0x0000002b      0x25a obj/default/dm9000a.o
 .debug_loc     0x00000285      0x3e0 obj/default/http.o
 .debug_loc     0x00000665      0x159 obj/default/network_utilities.o
 .debug_loc     0x000007be       0x84 obj/default/srec_flash.o
 .debug_loc     0x00000842      0x12e obj/default/web_server.o
 .debug_loc     0x00000970       0x87 c:/altera/13.0/nios2eds/bin/gnu/h-i686-mingw32/bin/../lib/gcc/nios2-elf/4.1.2\libgcc.a(_fixunsdfsi.o)
 .debug_loc     0x000009f7      0x47a c:/altera/13.0/nios2eds/bin/gnu/h-i686-mingw32/bin/../lib/gcc/nios2-elf/4.1.2\libgcc.a(_addsub_df.o)
 .debug_loc     0x00000e71      0x3b4 c:/altera/13.0/nios2eds/bin/gnu/h-i686-mingw32/bin/../lib/gcc/nios2-elf/4.1.2\libgcc.a(_mul_df.o)
 .debug_loc     0x00001225       0x70 c:/altera/13.0/nios2eds/bin/gnu/h-i686-mingw32/bin/../lib/gcc/nios2-elf/4.1.2\libgcc.a(_ge_df.o)
 .debug_loc     0x00001295       0x8b c:/altera/13.0/nios2eds/bin/gnu/h-i686-mingw32/bin/../lib/gcc/nios2-elf/4.1.2\libgcc.a(_df_to_si.o)
 .debug_loc     0x00001320       0x5b c:/altera/13.0/nios2eds/bin/gnu/h-i686-mingw32/bin/../lib/gcc/nios2-elf/4.1.2\libgcc.a(_usi_to_df.o)
 .debug_loc     0x0000137b      0x1d2 c:/altera/13.0/nios2eds/bin/gnu/h-i686-mingw32/bin/../lib/gcc/nios2-elf/4.1.2\libgcc.a(lib2-divmod.o)
 .debug_loc     0x0000154d       0xc4 c:/altera/13.0/nios2eds/bin/gnu/h-i686-mingw32/bin/../lib/gcc/nios2-elf/4.1.2\libgcc.a(_muldi3.o)
 .debug_loc     0x00001611       0x1e c:/altera/13.0/nios2eds/bin/gnu/h-i686-mingw32/bin/../lib/gcc/nios2-elf/4.1.2\libgcc.a(_clzsi2.o)
 .debug_loc     0x0000162f      0x184 c:/altera/13.0/nios2eds/bin/gnu/h-i686-mingw32/bin/../lib/gcc/nios2-elf/4.1.2\libgcc.a(_pack_df.o)
 .debug_loc     0x000017b3       0xe5 c:/altera/13.0/nios2eds/bin/gnu/h-i686-mingw32/bin/../lib/gcc/nios2-elf/4.1.2\libgcc.a(_unpack_df.o)
 .debug_loc     0x00001898       0x39 c:/altera/13.0/nios2eds/bin/gnu/h-i686-mingw32/bin/../lib/gcc/nios2-elf/4.1.2/../../../../nios2-elf/lib\libc.a(lib_a-atoi.o)
 .debug_loc     0x000018d1       0xe4 c:/altera/13.0/nios2eds/bin/gnu/h-i686-mingw32/bin/../lib/gcc/nios2-elf/4.1.2/../../../../nios2-elf/lib\libc.a(lib_a-fclose.o)
 .debug_loc     0x000019b5      0x1f6 c:/altera/13.0/nios2eds/bin/gnu/h-i686-mingw32/bin/../lib/gcc/nios2-elf/4.1.2/../../../../nios2-elf/lib\libc.a(lib_a-fflush.o)
 .debug_loc     0x00001bab       0x9f c:/altera/13.0/nios2eds/bin/gnu/h-i686-mingw32/bin/../lib/gcc/nios2-elf/4.1.2/../../../../nios2-elf/lib\libc.a(lib_a-fgetpos.o)
 .debug_loc     0x00001c4a      0x19f c:/altera/13.0/nios2eds/bin/gnu/h-i686-mingw32/bin/../lib/gcc/nios2-elf/4.1.2/../../../../nios2-elf/lib\libc.a(lib_a-findfp.o)
 .debug_loc     0x00001de9      0x1c9 c:/altera/13.0/nios2eds/bin/gnu/h-i686-mingw32/bin/../lib/gcc/nios2-elf/4.1.2/../../../../nios2-elf/lib\libc.a(lib_a-fopen.o)
 .debug_loc     0x00001fb2       0xf1 c:/altera/13.0/nios2eds/bin/gnu/h-i686-mingw32/bin/../lib/gcc/nios2-elf/4.1.2/../../../../nios2-elf/lib\libc.a(lib_a-fprintf.o)
 .debug_loc     0x000020a3      0x303 c:/altera/13.0/nios2eds/bin/gnu/h-i686-mingw32/bin/../lib/gcc/nios2-elf/4.1.2/../../../../nios2-elf/lib\libc.a(lib_a-fread.o)
 .debug_loc     0x000023a6      0x4a7 c:/altera/13.0/nios2eds/bin/gnu/h-i686-mingw32/bin/../lib/gcc/nios2-elf/4.1.2/../../../../nios2-elf/lib\libc.a(lib_a-freer.o)
 .debug_loc     0x0000284d      0x348 c:/altera/13.0/nios2eds/bin/gnu/h-i686-mingw32/bin/../lib/gcc/nios2-elf/4.1.2/../../../../nios2-elf/lib\libc.a(lib_a-fseek.o)
 .debug_loc     0x00002b95       0x79 c:/altera/13.0/nios2eds/bin/gnu/h-i686-mingw32/bin/../lib/gcc/nios2-elf/4.1.2/../../../../nios2-elf/lib\libc.a(lib_a-fstatr.o)
 .debug_loc     0x00002c0e       0xe4 c:/altera/13.0/nios2eds/bin/gnu/h-i686-mingw32/bin/../lib/gcc/nios2-elf/4.1.2/../../../../nios2-elf/lib\libc.a(lib_a-ftell.o)
 .debug_loc     0x00002cf2      0x1d2 c:/altera/13.0/nios2eds/bin/gnu/h-i686-mingw32/bin/../lib/gcc/nios2-elf/4.1.2/../../../../nios2-elf/lib\libc.a(lib_a-fwalk.o)
 .debug_loc     0x00002ec4      0x18e c:/altera/13.0/nios2eds/bin/gnu/h-i686-mingw32/bin/../lib/gcc/nios2-elf/4.1.2/../../../../nios2-elf/lib\libc.a(lib_a-fwrite.o)
 .debug_loc     0x00003052      0x10b c:/altera/13.0/nios2eds/bin/gnu/h-i686-mingw32/bin/../lib/gcc/nios2-elf/4.1.2/../../../../nios2-elf/lib\libc.a(lib_a-getc.o)
 .debug_loc     0x0000315d      0x11c c:/altera/13.0/nios2eds/bin/gnu/h-i686-mingw32/bin/../lib/gcc/nios2-elf/4.1.2/../../../../nios2-elf/lib\libc.a(lib_a-makebuf.o)
 .debug_loc     0x00003279      0xaeb c:/altera/13.0/nios2eds/bin/gnu/h-i686-mingw32/bin/../lib/gcc/nios2-elf/4.1.2/../../../../nios2-elf/lib\libc.a(lib_a-mallocr.o)
 .debug_loc     0x00003d64       0xca c:/altera/13.0/nios2eds/bin/gnu/h-i686-mingw32/bin/../lib/gcc/nios2-elf/4.1.2/../../../../nios2-elf/lib\libc.a(lib_a-memcpy.o)
 .debug_loc     0x00003e2e      0x117 c:/altera/13.0/nios2eds/bin/gnu/h-i686-mingw32/bin/../lib/gcc/nios2-elf/4.1.2/../../../../nios2-elf/lib\libc.a(lib_a-memmove.o)
 .debug_loc     0x00003f45       0xa1 c:/altera/13.0/nios2eds/bin/gnu/h-i686-mingw32/bin/../lib/gcc/nios2-elf/4.1.2/../../../../nios2-elf/lib\libc.a(lib_a-memset.o)
 .debug_loc     0x00003fe6       0x97 c:/altera/13.0/nios2eds/bin/gnu/h-i686-mingw32/bin/../lib/gcc/nios2-elf/4.1.2/../../../../nios2-elf/lib\libc.a(lib_a-openr.o)
 .debug_loc     0x0000407d       0xa2 c:/altera/13.0/nios2eds/bin/gnu/h-i686-mingw32/bin/../lib/gcc/nios2-elf/4.1.2/../../../../nios2-elf/lib\libc.a(lib_a-perror.o)
 .debug_loc     0x0000411f       0xcb c:/altera/13.0/nios2eds/bin/gnu/h-i686-mingw32/bin/../lib/gcc/nios2-elf/4.1.2/../../../../nios2-elf/lib\libc.a(lib_a-printf.o)
 .debug_loc     0x000041ea      0x20d c:/altera/13.0/nios2eds/bin/gnu/h-i686-mingw32/bin/../lib/gcc/nios2-elf/4.1.2/../../../../nios2-elf/lib\libc.a(lib_a-putc.o)
 .debug_loc     0x000043f7       0x44 c:/altera/13.0/nios2eds/bin/gnu/h-i686-mingw32/bin/../lib/gcc/nios2-elf/4.1.2/../../../../nios2-elf/lib\libc.a(lib_a-putchar.o)
 .debug_loc     0x0000443b       0xa2 c:/altera/13.0/nios2eds/bin/gnu/h-i686-mingw32/bin/../lib/gcc/nios2-elf/4.1.2/../../../../nios2-elf/lib\libc.a(lib_a-puts.o)
 .debug_loc     0x000044dd       0xd1 c:/altera/13.0/nios2eds/bin/gnu/h-i686-mingw32/bin/../lib/gcc/nios2-elf/4.1.2/../../../../nios2-elf/lib\libc.a(lib_a-refill.o)
 .debug_loc     0x000045ae       0x6e c:/altera/13.0/nios2eds/bin/gnu/h-i686-mingw32/bin/../lib/gcc/nios2-elf/4.1.2/../../../../nios2-elf/lib\libc.a(lib_a-rget.o)
 .debug_loc     0x0000461c       0x5b c:/altera/13.0/nios2eds/bin/gnu/h-i686-mingw32/bin/../lib/gcc/nios2-elf/4.1.2/../../../../nios2-elf/lib\libc.a(lib_a-sbrkr.o)
 .debug_loc     0x00004677       0xc0 c:/altera/13.0/nios2eds/bin/gnu/h-i686-mingw32/bin/../lib/gcc/nios2-elf/4.1.2/../../../../nios2-elf/lib\libc.a(lib_a-sprintf.o)
 .debug_loc     0x00004737       0xc0 c:/altera/13.0/nios2eds/bin/gnu/h-i686-mingw32/bin/../lib/gcc/nios2-elf/4.1.2/../../../../nios2-elf/lib\libc.a(lib_a-sscanf.o)
 .debug_loc     0x000047f7      0x21f c:/altera/13.0/nios2eds/bin/gnu/h-i686-mingw32/bin/../lib/gcc/nios2-elf/4.1.2/../../../../nios2-elf/lib\libc.a(lib_a-stdio.o)
 .debug_loc     0x00004a16       0x88 c:/altera/13.0/nios2eds/bin/gnu/h-i686-mingw32/bin/../lib/gcc/nios2-elf/4.1.2/../../../../nios2-elf/lib\libc.a(lib_a-strcasecmp.o)
 .debug_loc     0x00004a9e       0x8f c:/altera/13.0/nios2eds/bin/gnu/h-i686-mingw32/bin/../lib/gcc/nios2-elf/4.1.2/../../../../nios2-elf/lib\libc.a(lib_a-strcat.o)
 .debug_loc     0x00004b2d       0xf3 c:/altera/13.0/nios2eds/bin/gnu/h-i686-mingw32/bin/../lib/gcc/nios2-elf/4.1.2/../../../../nios2-elf/lib\libc.a(lib_a-strchr.o)
 .debug_loc     0x00004c20       0x65 c:/altera/13.0/nios2eds/bin/gnu/h-i686-mingw32/bin/../lib/gcc/nios2-elf/4.1.2/../../../../nios2-elf/lib\libc.a(lib_a-strcmp.o)
 .debug_loc     0x00004c85       0x8b c:/altera/13.0/nios2eds/bin/gnu/h-i686-mingw32/bin/../lib/gcc/nios2-elf/4.1.2/../../../../nios2-elf/lib\libc.a(lib_a-strcpy.o)
 .debug_loc     0x00004d10      0x418 c:/altera/13.0/nios2eds/bin/gnu/h-i686-mingw32/bin/../lib/gcc/nios2-elf/4.1.2/../../../../nios2-elf/lib\libc.a(lib_a-strerror.o)
 .debug_loc     0x00005128       0x3c c:/altera/13.0/nios2eds/bin/gnu/h-i686-mingw32/bin/../lib/gcc/nios2-elf/4.1.2/../../../../nios2-elf/lib\libc.a(lib_a-strlen.o)
 .debug_loc     0x00005164       0x78 c:/altera/13.0/nios2eds/bin/gnu/h-i686-mingw32/bin/../lib/gcc/nios2-elf/4.1.2/../../../../nios2-elf/lib\libc.a(lib_a-strncmp.o)
 .debug_loc     0x000051dc       0xeb c:/altera/13.0/nios2eds/bin/gnu/h-i686-mingw32/bin/../lib/gcc/nios2-elf/4.1.2/../../../../nios2-elf/lib\libc.a(lib_a-strncpy.o)
 .debug_loc     0x000052c7      0xa24 c:/altera/13.0/nios2eds/bin/gnu/h-i686-mingw32/bin/../lib/gcc/nios2-elf/4.1.2/../../../../nios2-elf/lib\libc.a(lib_a-strstr.o)
 .debug_loc     0x00005ceb       0x26 c:/altera/13.0/nios2eds/bin/gnu/h-i686-mingw32/bin/../lib/gcc/nios2-elf/4.1.2/../../../../nios2-elf/lib\libc.a(lib_a-strtok.o)
 .debug_loc     0x00005d11       0xc7 c:/altera/13.0/nios2eds/bin/gnu/h-i686-mingw32/bin/../lib/gcc/nios2-elf/4.1.2/../../../../nios2-elf/lib\libc.a(lib_a-strtok_r.o)
 .debug_loc     0x00005dd8      0x346 c:/altera/13.0/nios2eds/bin/gnu/h-i686-mingw32/bin/../lib/gcc/nios2-elf/4.1.2/../../../../nios2-elf/lib\libc.a(lib_a-strtol.o)
 .debug_loc     0x0000611e     0x1e0d c:/altera/13.0/nios2eds/bin/gnu/h-i686-mingw32/bin/../lib/gcc/nios2-elf/4.1.2/../../../../nios2-elf/lib\libc.a(lib_a-vfprintf.o)
 .debug_loc     0x00007f2b     0x13ff c:/altera/13.0/nios2eds/bin/gnu/h-i686-mingw32/bin/../lib/gcc/nios2-elf/4.1.2/../../../../nios2-elf/lib\libc.a(lib_a-vfscanf.o)
 .debug_loc     0x0000932a      0x157 c:/altera/13.0/nios2eds/bin/gnu/h-i686-mingw32/bin/../lib/gcc/nios2-elf/4.1.2/../../../../nios2-elf/lib\libc.a(lib_a-wbuf.o)
 .debug_loc     0x00009481       0x97 c:/altera/13.0/nios2eds/bin/gnu/h-i686-mingw32/bin/../lib/gcc/nios2-elf/4.1.2/../../../../nios2-elf/lib\libc.a(lib_a-writer.o)
 .debug_loc     0x00009518       0x7c c:/altera/13.0/nios2eds/bin/gnu/h-i686-mingw32/bin/../lib/gcc/nios2-elf/4.1.2/../../../../nios2-elf/lib\libc.a(lib_a-wsetup.o)
 .debug_loc     0x00009594       0x5b c:/altera/13.0/nios2eds/bin/gnu/h-i686-mingw32/bin/../lib/gcc/nios2-elf/4.1.2/../../../../nios2-elf/lib\libc.a(lib_a-closer.o)
 .debug_loc     0x000095ef     0x1dfa c:/altera/13.0/nios2eds/bin/gnu/h-i686-mingw32/bin/../lib/gcc/nios2-elf/4.1.2/../../../../nios2-elf/lib\libc.a(lib_a-dtoa.o)
 .debug_loc     0x0000b3e9       0xa4 c:/altera/13.0/nios2eds/bin/gnu/h-i686-mingw32/bin/../lib/gcc/nios2-elf/4.1.2/../../../../nios2-elf/lib\libc.a(lib_a-flags.o)
 .debug_loc     0x0000b48d      0x14d c:/altera/13.0/nios2eds/bin/gnu/h-i686-mingw32/bin/../lib/gcc/nios2-elf/4.1.2/../../../../nios2-elf/lib\libc.a(lib_a-fputc.o)
 .debug_loc     0x0000b5da       0xcb c:/altera/13.0/nios2eds/bin/gnu/h-i686-mingw32/bin/../lib/gcc/nios2-elf/4.1.2/../../../../nios2-elf/lib\libc.a(lib_a-fputs.o)
 .debug_loc     0x0000b6a5      0x4e4 c:/altera/13.0/nios2eds/bin/gnu/h-i686-mingw32/bin/../lib/gcc/nios2-elf/4.1.2/../../../../nios2-elf/lib\libc.a(lib_a-fvwrite.o)
 .debug_loc     0x0000bb89       0x5b c:/altera/13.0/nios2eds/bin/gnu/h-i686-mingw32/bin/../lib/gcc/nios2-elf/4.1.2/../../../../nios2-elf/lib\libc.a(lib_a-isattyr.o)
 .debug_loc     0x0000bbe4       0xe1 c:/altera/13.0/nios2eds/bin/gnu/h-i686-mingw32/bin/../lib/gcc/nios2-elf/4.1.2/../../../../nios2-elf/lib\libc.a(lib_a-locale.o)
 .debug_loc     0x0000bcc5       0x97 c:/altera/13.0/nios2eds/bin/gnu/h-i686-mingw32/bin/../lib/gcc/nios2-elf/4.1.2/../../../../nios2-elf/lib\libc.a(lib_a-lseekr.o)
 .debug_loc     0x0000bd5c      0x182 c:/altera/13.0/nios2eds/bin/gnu/h-i686-mingw32/bin/../lib/gcc/nios2-elf/4.1.2/../../../../nios2-elf/lib\libc.a(lib_a-mbrtowc.o)
 .debug_loc     0x0000bede       0x1f c:/altera/13.0/nios2eds/bin/gnu/h-i686-mingw32/bin/../lib/gcc/nios2-elf/4.1.2/../../../../nios2-elf/lib\libc.a(lib_a-mbtowc_r.o)
 .debug_loc     0x0000befd      0x106 c:/altera/13.0/nios2eds/bin/gnu/h-i686-mingw32/bin/../lib/gcc/nios2-elf/4.1.2/../../../../nios2-elf/lib\libc.a(lib_a-memchr.o)
 .debug_loc     0x0000c003      0x114 c:/altera/13.0/nios2eds/bin/gnu/h-i686-mingw32/bin/../lib/gcc/nios2-elf/4.1.2/../../../../nios2-elf/lib\libc.a(lib_a-memcmp.o)
 .debug_loc     0x0000c117     0x14d6 c:/altera/13.0/nios2eds/bin/gnu/h-i686-mingw32/bin/../lib/gcc/nios2-elf/4.1.2/../../../../nios2-elf/lib\libc.a(lib_a-mprec.o)
 .debug_loc     0x0000d5ed       0x97 c:/altera/13.0/nios2eds/bin/gnu/h-i686-mingw32/bin/../lib/gcc/nios2-elf/4.1.2/../../../../nios2-elf/lib\libc.a(lib_a-readr.o)
 .debug_loc     0x0000d684      0x8c0 c:/altera/13.0/nios2eds/bin/gnu/h-i686-mingw32/bin/../lib/gcc/nios2-elf/4.1.2/../../../../nios2-elf/lib\libc.a(lib_a-reallocr.o)
 .debug_loc     0x0000df44       0x36 c:/altera/13.0/nios2eds/bin/gnu/h-i686-mingw32/bin/../lib/gcc/nios2-elf/4.1.2/../../../../nios2-elf/lib\libc.a(lib_a-s_isinfd.o)
 .debug_loc     0x0000df7a       0x18 c:/altera/13.0/nios2eds/bin/gnu/h-i686-mingw32/bin/../lib/gcc/nios2-elf/4.1.2/../../../../nios2-elf/lib\libc.a(lib_a-s_isnand.o)
 .debug_loc     0x0000df92       0xdb c:/altera/13.0/nios2eds/bin/gnu/h-i686-mingw32/bin/../lib/gcc/nios2-elf/4.1.2/../../../../nios2-elf/lib\libc.a(lib_a-sccl.o)
 .debug_loc     0x0000e06d     0x243e c:/altera/13.0/nios2eds/bin/gnu/h-i686-mingw32/bin/../lib/gcc/nios2-elf/4.1.2/../../../../nios2-elf/lib\libc.a(lib_a-strtod.o)
 .debug_loc     0x000104ab      0x30f c:/altera/13.0/nios2eds/bin/gnu/h-i686-mingw32/bin/../lib/gcc/nios2-elf/4.1.2/../../../../nios2-elf/lib\libc.a(lib_a-strtoll_r.o)
 .debug_loc     0x000107ba      0x263 c:/altera/13.0/nios2eds/bin/gnu/h-i686-mingw32/bin/../lib/gcc/nios2-elf/4.1.2/../../../../nios2-elf/lib\libc.a(lib_a-strtoul.o)
 .debug_loc     0x00010a1d      0x282 c:/altera/13.0/nios2eds/bin/gnu/h-i686-mingw32/bin/../lib/gcc/nios2-elf/4.1.2/../../../../nios2-elf/lib\libc.a(lib_a-strtoull_r.o)
 .debug_loc     0x00010c9f      0x207 c:/altera/13.0/nios2eds/bin/gnu/h-i686-mingw32/bin/../lib/gcc/nios2-elf/4.1.2/../../../../nios2-elf/lib\libc.a(lib_a-ungetc.o)
 .debug_loc     0x00010ea6       0xe9 c:/altera/13.0/nios2eds/bin/gnu/h-i686-mingw32/bin/../lib/gcc/nios2-elf/4.1.2/../../../../nios2-elf/lib\libc.a(lib_a-callocr.o)
 .debug_loc     0x00010f8f      0xad2 c:/altera/13.0/nios2eds/bin/gnu/h-i686-mingw32/bin/../lib/gcc/nios2-elf/4.1.2/../../../../nios2-elf/lib\libc.a(lib_a-gdtoa-gethex.o)
 .debug_loc     0x00011a61      0x2a6 c:/altera/13.0/nios2eds/bin/gnu/h-i686-mingw32/bin/../lib/gcc/nios2-elf/4.1.2/../../../../nios2-elf/lib\libc.a(lib_a-gdtoa-hexnan.o)
 .debug_loc     0x00011d07      0xc12 c:/altera/13.0/nios2eds/bin/gnu/h-i686-mingw32/bin/../lib/gcc/nios2-elf/4.1.2\libgcc.a(_udivdi3.o)
 .debug_loc     0x00012919      0xc26 c:/altera/13.0/nios2eds/bin/gnu/h-i686-mingw32/bin/../lib/gcc/nios2-elf/4.1.2\libgcc.a(_umoddi3.o)
 .debug_loc     0x0001353f       0x45 c:/altera/13.0/nios2eds/bin/gnu/h-i686-mingw32/bin/../lib/gcc/nios2-elf/4.1.2\libgcc.a(_ne_sf.o)
 .debug_loc     0x00013584       0x45 c:/altera/13.0/nios2eds/bin/gnu/h-i686-mingw32/bin/../lib/gcc/nios2-elf/4.1.2\libgcc.a(_gt_sf.o)
 .debug_loc     0x000135c9       0x45 c:/altera/13.0/nios2eds/bin/gnu/h-i686-mingw32/bin/../lib/gcc/nios2-elf/4.1.2\libgcc.a(_lt_sf.o)
 .debug_loc     0x0001360e      0x1df c:/altera/13.0/nios2eds/bin/gnu/h-i686-mingw32/bin/../lib/gcc/nios2-elf/4.1.2\libgcc.a(_div_df.o)
 .debug_loc     0x000137ed       0x70 c:/altera/13.0/nios2eds/bin/gnu/h-i686-mingw32/bin/../lib/gcc/nios2-elf/4.1.2\libgcc.a(_eq_df.o)
 .debug_loc     0x0001385d       0x70 c:/altera/13.0/nios2eds/bin/gnu/h-i686-mingw32/bin/../lib/gcc/nios2-elf/4.1.2\libgcc.a(_ne_df.o)
 .debug_loc     0x000138cd       0x70 c:/altera/13.0/nios2eds/bin/gnu/h-i686-mingw32/bin/../lib/gcc/nios2-elf/4.1.2\libgcc.a(_gt_df.o)
 .debug_loc     0x0001393d       0x70 c:/altera/13.0/nios2eds/bin/gnu/h-i686-mingw32/bin/../lib/gcc/nios2-elf/4.1.2\libgcc.a(_lt_df.o)
 .debug_loc     0x000139ad       0x70 c:/altera/13.0/nios2eds/bin/gnu/h-i686-mingw32/bin/../lib/gcc/nios2-elf/4.1.2\libgcc.a(_le_df.o)
 .debug_loc     0x00013a1d       0x9a c:/altera/13.0/nios2eds/bin/gnu/h-i686-mingw32/bin/../lib/gcc/nios2-elf/4.1.2\libgcc.a(_si_to_df.o)
 .debug_loc     0x00013ab7       0x6a c:/altera/13.0/nios2eds/bin/gnu/h-i686-mingw32/bin/../lib/gcc/nios2-elf/4.1.2\libgcc.a(_df_to_sf.o)
 .debug_loc     0x00013b21       0x31 c:/altera/13.0/nios2eds/bin/gnu/h-i686-mingw32/bin/../lib/gcc/nios2-elf/4.1.2\libgcc.a(_unpack_sf.o)
 .debug_loc     0x00013b52       0x3c c:/altera/13.0/nios2eds/bin/gnu/h-i686-mingw32/bin/../lib/gcc/nios2-elf/4.1.2\libgcc.a(_fpcmp_parts_sf.o)
 .debug_loc     0x00013b8e       0x6b c:/altera/13.0/nios2eds/bin/gnu/h-i686-mingw32/bin/../lib/gcc/nios2-elf/4.1.2\libgcc.a(_make_sf.o)
 .debug_loc     0x00013bf9       0xf9 c:/altera/13.0/nios2eds/bin/gnu/h-i686-mingw32/bin/../lib/gcc/nios2-elf/4.1.2\libgcc.a(_pack_sf.o)
 .debug_loc     0x00013cf2       0x2b ../WebServer_bsp/\libucosii_bsp.a(alt_dcache_flush.o)
 .debug_loc     0x00013d1d       0x56 ../WebServer_bsp/\libucosii_bsp.a(alt_flash_dev.o)
 .debug_loc     0x00013d73       0x56 ../WebServer_bsp/\libucosii_bsp.a(alt_fstat.o)
 .debug_loc     0x00013dc9       0x2c ../WebServer_bsp/\libucosii_bsp.a(alt_irq_register.o)
 .debug_loc     0x00013df5       0x57 ../WebServer_bsp/\libucosii_bsp.a(alt_isatty.o)
 .debug_loc     0x00013e4c       0x56 ../WebServer_bsp/\libucosii_bsp.a(alt_lseek.o)
 .debug_loc     0x00013ea2       0x2b ../WebServer_bsp/\libucosii_bsp.a(alt_main.o)
 .debug_loc     0x00013ecd       0x81 ../WebServer_bsp/\libucosii_bsp.a(alt_open.o)
 .debug_loc     0x00013f4e       0x2b ../WebServer_bsp/\libucosii_bsp.a(alt_release_fd.o)
 .debug_loc     0x00013f79       0x2b ../WebServer_bsp/\libucosii_bsp.a(alt_sbrk.o)
 .debug_loc     0x00013fa4       0x56 ../WebServer_bsp/\libucosii_bsp.a(alt_tick.o)
 .debug_loc     0x00013ffa       0x2b ../WebServer_bsp/\libucosii_bsp.a(alt_usleep.o)
 .debug_loc     0x00014025       0x57 ../WebServer_bsp/\libucosii_bsp.a(alt_env_lock.o)
 .debug_loc     0x0001407c       0x57 ../WebServer_bsp/\libucosii_bsp.a(alt_malloc_lock.o)
 .debug_loc     0x000140d3      0x5e2 ../WebServer_bsp/\libucosii_bsp.a(os_core.o)
 .debug_loc     0x000146b5       0x2b ../WebServer_bsp/\libucosii_bsp.a(os_dbg.o)
 .debug_loc     0x000146e0      0x232 ../WebServer_bsp/\libucosii_bsp.a(os_flag.o)
 .debug_loc     0x00014912      0x158 ../WebServer_bsp/\libucosii_bsp.a(os_mbox.o)
 .debug_loc     0x00014a6a      0x12d ../WebServer_bsp/\libucosii_bsp.a(os_mem.o)
 .debug_loc     0x00014b97      0x1da ../WebServer_bsp/\libucosii_bsp.a(os_q.o)
 .debug_loc     0x00014d71      0x158 ../WebServer_bsp/\libucosii_bsp.a(os_sem.o)
 .debug_loc     0x00014ec9      0x207 ../WebServer_bsp/\libucosii_bsp.a(os_task.o)
 .debug_loc     0x000150d0       0xd7 ../WebServer_bsp/\libucosii_bsp.a(os_time.o)
 .debug_loc     0x000151a7       0x81 ../WebServer_bsp/\libucosii_bsp.a(alt_sys_init.o)
 .debug_loc     0x00015228      0x12e ../WebServer_bsp/\libucosii_bsp.a(altera_avalon_cfi_flash.o)
 .debug_loc     0x00015356      0x306 ../WebServer_bsp/\libucosii_bsp.a(altera_avalon_cfi_flash_table.o)
 .debug_loc     0x0001565c      0x1af ../WebServer_bsp/\libucosii_bsp.a(altera_avalon_epcs_flash_controller.o)
 .debug_loc     0x0001580b       0xac ../WebServer_bsp/\libucosii_bsp.a(altera_avalon_jtag_uart_fd.o)
 .debug_loc     0x000158b7       0xac ../WebServer_bsp/\libucosii_bsp.a(altera_avalon_jtag_uart_init.o)
 .debug_loc     0x00015963       0x2b ../WebServer_bsp/\libucosii_bsp.a(altera_avalon_jtag_uart_ioctl.o)
 .debug_loc     0x0001598e       0x2c ../WebServer_bsp/\libucosii_bsp.a(altera_avalon_jtag_uart_read.o)
 .debug_loc     0x000159ba       0x2c ../WebServer_bsp/\libucosii_bsp.a(altera_avalon_jtag_uart_write.o)
 .debug_loc     0x000159e6      0x184 ../WebServer_bsp/\libucosii_bsp.a(altera_avalon_lcd_16207.o)
 .debug_loc     0x00015b6a       0x2b ../WebServer_bsp/\libucosii_bsp.a(altera_avalon_lcd_16207_fd.o)
 .debug_loc     0x00015b95       0x56 ../WebServer_bsp/\libucosii_bsp.a(altera_avalon_timer_sc.o)
 .debug_loc     0x00015beb       0x81 ../WebServer_bsp/\libucosii_bsp.a(altera_avalon_uart_fd.o)
 .debug_loc     0x00015c6c       0xd8 ../WebServer_bsp/\libucosii_bsp.a(altera_avalon_uart_init.o)
 .debug_loc     0x00015d44       0x57 ../WebServer_bsp/\libucosii_bsp.a(altera_avalon_uart_read.o)
 .debug_loc     0x00015d9b       0x57 ../WebServer_bsp/\libucosii_bsp.a(altera_avalon_uart_write.o)
 .debug_loc     0x00015df2      0x285 ../WebServer_bsp/\libucosii_bsp.a(altera_ro_zipfs.o)
 .debug_loc     0x00016077      0x204 ../WebServer_bsp/\libucosii_bsp.a(epcs_commands.o)
 .debug_loc     0x0001627b       0x2b ../WebServer_bsp/\libucosii_bsp.a(alt_iniche_close.o)
 .debug_loc     0x000162a6       0x2b ../WebServer_bsp/\libucosii_bsp.a(alt_iniche_dev.o)
 .debug_loc     0x000162d1       0x2b ../WebServer_bsp/\libucosii_bsp.a(alt_iniche_read.o)
 .debug_loc     0x000162fc       0x2b ../WebServer_bsp/\libucosii_bsp.a(alt_iniche_write.o)
 .debug_loc     0x00016327      0x102 ../WebServer_bsp/\libucosii_bsp.a(ipnet.o)
 .debug_loc     0x00016429       0xac ../WebServer_bsp/\libucosii_bsp.a(ipstart.o)
 .debug_loc     0x000164d5      0x159 ../WebServer_bsp/\libucosii_bsp.a(igmp_cmn.o)
 .debug_loc     0x0001662e      0x1af ../WebServer_bsp/\libucosii_bsp.a(bsdsock.o)
 .debug_loc     0x000167dd       0x56 ../WebServer_bsp/\libucosii_bsp.a(cksum.o)
 .debug_loc     0x00016833      0x204 ../WebServer_bsp/\libucosii_bsp.a(in_utils.o)
 .debug_loc     0x00016a37       0x81 ../WebServer_bsp/\libucosii_bsp.a(netmain.o)
 .debug_loc     0x00016ab8      0x12f ../WebServer_bsp/\libucosii_bsp.a(tk_crnos.o)
 .debug_loc     0x00016be7      0x35c ../WebServer_bsp/\libucosii_bsp.a(dhcpclnt.o)
 .debug_loc     0x00016f43       0x2b ../WebServer_bsp/\libucosii_bsp.a(dhcputil.o)
 .debug_loc     0x00016f6e      0x102 ../WebServer_bsp/\libucosii_bsp.a(pktalloc.o)
 .debug_loc     0x00017070       0x81 ../WebServer_bsp/\libucosii_bsp.a(q.o)
 .debug_loc     0x000170f1       0x56 ../WebServer_bsp/\libucosii_bsp.a(udp_open.o)
 .debug_loc     0x00017147      0x158 ../WebServer_bsp/\libucosii_bsp.a(brdutils.o)
 .debug_loc     0x0001729f       0xd8 ../WebServer_bsp/\libucosii_bsp.a(osportco.o)
 .debug_loc     0x00017377      0x183 ../WebServer_bsp/\libucosii_bsp.a(targnios.o)
 .debug_loc     0x000174fa      0x306 ../WebServer_bsp/\libucosii_bsp.a(nptcp.o)
 .debug_loc     0x00017800       0x82 ../WebServer_bsp/\libucosii_bsp.a(rawsock.o)
 .debug_loc     0x00017882      0x332 ../WebServer_bsp/\libucosii_bsp.a(sockcall.o)
 .debug_loc     0x00017bb4      0x2b1 ../WebServer_bsp/\libucosii_bsp.a(socket.o)
 .debug_loc     0x00017e65      0x3dd ../WebServer_bsp/\libucosii_bsp.a(socket2.o)
 .debug_loc     0x00018242      0x184 ../WebServer_bsp/\libucosii_bsp.a(soselect.o)
 .debug_loc     0x000183c6      0x12e ../WebServer_bsp/\libucosii_bsp.a(tcp_in.o)
 .debug_loc     0x000184f4       0x82 ../WebServer_bsp/\libucosii_bsp.a(tcp_out.o)
 .debug_loc     0x00018576      0x183 ../WebServer_bsp/\libucosii_bsp.a(tcp_subr.o)
 .debug_loc     0x000186f9       0x81 ../WebServer_bsp/\libucosii_bsp.a(tcp_timr.o)
 .debug_loc     0x0001877a       0xac ../WebServer_bsp/\libucosii_bsp.a(tcp_usr.o)
 .debug_loc     0x00018826       0x2b ../WebServer_bsp/\libucosii_bsp.a(tcpport.o)
 .debug_loc     0x00018851      0x102 ../WebServer_bsp/\libucosii_bsp.a(udpsock.o)
 .debug_loc     0x00018953       0x2b ../WebServer_bsp/\libucosii_bsp.a(alt_alarm_start.o)
 .debug_loc     0x0001897e       0x2b ../WebServer_bsp/\libucosii_bsp.a(alt_busy_sleep.o)
 .debug_loc     0x000189a9       0x56 ../WebServer_bsp/\libucosii_bsp.a(alt_close.o)
 .debug_loc     0x000189ff       0x2b ../WebServer_bsp/\libucosii_bsp.a(alt_dev.o)
 .debug_loc     0x00018a2a       0x56 ../WebServer_bsp/\libucosii_bsp.a(alt_dev_llist_insert.o)
 .debug_loc     0x00018a80       0x2b ../WebServer_bsp/\libucosii_bsp.a(alt_do_ctors.o)
 .debug_loc     0x00018aab       0x2b ../WebServer_bsp/\libucosii_bsp.a(alt_do_dtors.o)
 .debug_loc     0x00018ad6       0x2b ../WebServer_bsp/\libucosii_bsp.a(alt_find_dev.o)
 .debug_loc     0x00018b01       0x2b ../WebServer_bsp/\libucosii_bsp.a(alt_find_file.o)
 .debug_loc     0x00018b2c       0x2b ../WebServer_bsp/\libucosii_bsp.a(alt_fs_reg.o)
 .debug_loc     0x00018b57       0x2b ../WebServer_bsp/\libucosii_bsp.a(alt_get_fd.o)
 .debug_loc     0x00018b82       0xac ../WebServer_bsp/\libucosii_bsp.a(alt_iic.o)
 .debug_loc     0x00018c2e       0x2b ../WebServer_bsp/\libucosii_bsp.a(alt_iic_isr_register.o)
 .debug_loc     0x00018c59       0x56 ../WebServer_bsp/\libucosii_bsp.a(alt_io_redirect.o)
 .debug_loc     0x00018caf       0x2b ../WebServer_bsp/\libucosii_bsp.a(alt_irq_handler.o)
 .debug_loc     0x00018cda       0x56 ../WebServer_bsp/\libucosii_bsp.a(alt_read.o)
 .debug_loc     0x00018d30       0x2b ../WebServer_bsp/\libucosii_bsp.a(alt_remap_cached.o)
 .debug_loc     0x00018d5b       0x2b ../WebServer_bsp/\libucosii_bsp.a(alt_remap_uncached.o)
 .debug_loc     0x00018d86       0x56 ../WebServer_bsp/\libucosii_bsp.a(alt_write.o)
 .debug_loc     0x00018ddc       0x2b ../WebServer_bsp/\libucosii_bsp.a(altera_nios2_qsys_irq.o)
 .debug_loc     0x00018e07      0x1ae ../WebServer_bsp/\libucosii_bsp.a(os_cpu_c.o)
 .debug_loc     0x00018fb5       0xac ../WebServer_bsp/\libucosii_bsp.a(altera_avalon_cfi_flash_amd.o)
 .debug_loc     0x00019061       0xac ../WebServer_bsp/\libucosii_bsp.a(altera_avalon_cfi_flash_intel.o)
 .debug_loc     0x0001910d       0x2b ../WebServer_bsp/\libucosii_bsp.a(altera_avalon_spi.o)
 .debug_loc     0x00019138      0x12d ../WebServer_bsp/\libucosii_bsp.a(allports.o)
 .debug_loc     0x00019265       0xac ../WebServer_bsp/\libucosii_bsp.a(timeouts.o)
 .debug_loc     0x00019311       0x56 ../WebServer_bsp/\libucosii_bsp.a(tk_misc.o)
 .debug_loc     0x00019367       0x2b ../WebServer_bsp/\libucosii_bsp.a(alt_iniche_fcntl.o)
 .debug_loc     0x00019392      0x204 ../WebServer_bsp/\libucosii_bsp.a(et_arp.o)
 .debug_loc     0x00019596       0xac ../WebServer_bsp/\libucosii_bsp.a(iface.o)
 .debug_loc     0x00019642      0x207 ../WebServer_bsp/\libucosii_bsp.a(ip.o)
 .debug_loc     0x00019849      0x2b2 ../WebServer_bsp/\libucosii_bsp.a(ip_reasm.o)
 .debug_loc     0x00019afb       0x81 ../WebServer_bsp/\libucosii_bsp.a(ipdemux.o)
 .debug_loc     0x00019b7c       0x81 ../WebServer_bsp/\libucosii_bsp.a(ipmc.o)
 .debug_loc     0x00019bfd       0x81 ../WebServer_bsp/\libucosii_bsp.a(ipport.o)
 .debug_loc     0x00019c7e      0x102 ../WebServer_bsp/\libucosii_bsp.a(ipraw.o)
 .debug_loc     0x00019d80       0x81 ../WebServer_bsp/\libucosii_bsp.a(iproute.o)
 .debug_loc     0x00019e01      0x12f ../WebServer_bsp/\libucosii_bsp.a(udp.o)
 .debug_loc     0x00019f30       0x2b ../WebServer_bsp/\libucosii_bsp.a(igmp.o)
 .debug_loc     0x00019f5b       0xd7 ../WebServer_bsp/\libucosii_bsp.a(igmp2.o)
 .debug_loc     0x0001a032       0xac ../WebServer_bsp/\libucosii_bsp.a(ipopt.o)
 .debug_loc     0x0001a0de       0x57 ../WebServer_bsp/\libucosii_bsp.a(u_mctest.o)
 .debug_loc     0x0001a135       0x56 ../WebServer_bsp/\libucosii_bsp.a(dhcsetup.o)
 .debug_loc     0x0001a18b      0x183 ../WebServer_bsp/\libucosii_bsp.a(memdev.o)
 .debug_loc     0x0001a30e      0x183 ../WebServer_bsp/\libucosii_bsp.a(parseip.o)
 .debug_loc     0x0001a491       0x2b ../WebServer_bsp/\libucosii_bsp.a(tcpcksum.o)
 .debug_loc     0x0001a4bc      0x158 ../WebServer_bsp/\libucosii_bsp.a(in_pcb.o)
 .debug_loc     0x0001a614      0x4b4 ../WebServer_bsp/\libucosii_bsp.a(vfsfiles.o)
 .debug_loc     0x0001aac8       0x2b ../WebServer_bsp/\libucosii_bsp.a(vfsport.o)
 .debug_loc     0x0001aaf3       0x56 ../WebServer_bsp/\libucosii_bsp.a(alt_fcntl.o)
 .debug_loc     0x0001ab49       0xad ../WebServer_bsp/\libucosii_bsp.a(icmp.o)
 .debug_loc     0x0001abf6       0x1e c:/altera/13.0/nios2eds/bin/gnu/h-i686-mingw32/bin/../lib/gcc/nios2-elf/4.1.2/../../../../nios2-elf/lib\libc.a(lib_a-atexit.o)
 .debug_loc     0x0001ac14       0x3c c:/altera/13.0/nios2eds/bin/gnu/h-i686-mingw32/bin/../lib/gcc/nios2-elf/4.1.2/../../../../nios2-elf/lib\libc.a(lib_a-calloc.o)
 .debug_loc     0x0001ac50       0x3d c:/altera/13.0/nios2eds/bin/gnu/h-i686-mingw32/bin/../lib/gcc/nios2-elf/4.1.2/../../../../nios2-elf/lib\libc.a(lib_a-exit.o)
 .debug_loc     0x0001ac8d       0x3c c:/altera/13.0/nios2eds/bin/gnu/h-i686-mingw32/bin/../lib/gcc/nios2-elf/4.1.2/../../../../nios2-elf/lib\libc.a(lib_a-malloc.o)
 .debug_loc     0x0001acc9       0x8b c:/altera/13.0/nios2eds/bin/gnu/h-i686-mingw32/bin/../lib/gcc/nios2-elf/4.1.2/../../../../nios2-elf/lib\libc.a(lib_a-vprintf.o)
 .debug_loc     0x0001ad54       0xd1 c:/altera/13.0/nios2eds/bin/gnu/h-i686-mingw32/bin/../lib/gcc/nios2-elf/4.1.2/../../../../nios2-elf/lib\libc.a(lib_a-vsprintf.o)
 .debug_loc     0x0001ae25      0x120 c:/altera/13.0/nios2eds/bin/gnu/h-i686-mingw32/bin/../lib/gcc/nios2-elf/4.1.2/../../../../nios2-elf/lib\libc.a(lib_a-__atexit.o)
 .debug_loc     0x0001af45      0x1cb c:/altera/13.0/nios2eds/bin/gnu/h-i686-mingw32/bin/../lib/gcc/nios2-elf/4.1.2/../../../../nios2-elf/lib\libc.a(lib_a-__call_atexit.o)
 .debug_loc     0x0001b110       0x56 ../WebServer_bsp/\libucosii_bsp.a(alt_exit.o)

.debug_macinfo
 *(.debug_macinfo)

.debug_weaknames
 *(.debug_weaknames)

.debug_funcnames
 *(.debug_funcnames)

.debug_typenames
 *(.debug_typenames)

.debug_varnames
 *(.debug_varnames)

.debug_alt_sim_info
                0x00000000       0x50
 *(.debug_alt_sim_info)
 .debug_alt_sim_info
                0x00000000       0x20 ../WebServer_bsp//obj/HAL/src/crt0.o
 .debug_alt_sim_info
                0x00000020       0x30 ../WebServer_bsp/\libucosii_bsp.a(alt_busy_sleep.o)
                0x01000000                __alt_data_end = 0x1000000
                0x01000000                PROVIDE (__alt_stack_pointer, __alt_data_end)
                0x00e40624                PROVIDE (__alt_stack_limit, __alt_stack_base)
                0x00e40624                PROVIDE (__alt_heap_start, end)
                0x01000000                PROVIDE (__alt_heap_limit, 0x1000000)
OUTPUT(WebServer.elf elf32-littlenios2)

.debug_ranges   0x00000000      0xd28
 .debug_ranges  0x00000000       0x30 obj/default/srec_flash.o
 .debug_ranges  0x00000030       0x30 c:/altera/13.0/nios2eds/bin/gnu/h-i686-mingw32/bin/../lib/gcc/nios2-elf/4.1.2\libgcc.a(_addsub_df.o)
 .debug_ranges  0x00000060       0x88 c:/altera/13.0/nios2eds/bin/gnu/h-i686-mingw32/bin/../lib/gcc/nios2-elf/4.1.2\libgcc.a(_mul_df.o)
 .debug_ranges  0x000000e8       0x18 c:/altera/13.0/nios2eds/bin/gnu/h-i686-mingw32/bin/../lib/gcc/nios2-elf/4.1.2\libgcc.a(_usi_to_df.o)
 .debug_ranges  0x00000100       0x68 c:/altera/13.0/nios2eds/bin/gnu/h-i686-mingw32/bin/../lib/gcc/nios2-elf/4.1.2\libgcc.a(_muldi3.o)
 .debug_ranges  0x00000168       0x28 c:/altera/13.0/nios2eds/bin/gnu/h-i686-mingw32/bin/../lib/gcc/nios2-elf/4.1.2\libgcc.a(_clzsi2.o)
 .debug_ranges  0x00000190       0x28 c:/altera/13.0/nios2eds/bin/gnu/h-i686-mingw32/bin/../lib/gcc/nios2-elf/4.1.2\libgcc.a(_pack_df.o)
 .debug_ranges  0x000001b8       0x20 c:/altera/13.0/nios2eds/bin/gnu/h-i686-mingw32/bin/../lib/gcc/nios2-elf/4.1.2/../../../../nios2-elf/lib\libc.a(lib_a-fflush.o)
 .debug_ranges  0x000001d8       0x18 c:/altera/13.0/nios2eds/bin/gnu/h-i686-mingw32/bin/../lib/gcc/nios2-elf/4.1.2/../../../../nios2-elf/lib\libc.a(lib_a-fread.o)
 .debug_ranges  0x000001f0       0xa0 c:/altera/13.0/nios2eds/bin/gnu/h-i686-mingw32/bin/../lib/gcc/nios2-elf/4.1.2/../../../../nios2-elf/lib\libc.a(lib_a-fwalk.o)
 .debug_ranges  0x00000290       0x70 c:/altera/13.0/nios2eds/bin/gnu/h-i686-mingw32/bin/../lib/gcc/nios2-elf/4.1.2/../../../../nios2-elf/lib\libc.a(lib_a-mallocr.o)
 .debug_ranges  0x00000300      0x1b8 c:/altera/13.0/nios2eds/bin/gnu/h-i686-mingw32/bin/../lib/gcc/nios2-elf/4.1.2/../../../../nios2-elf/lib\libc.a(lib_a-strstr.o)
 .debug_ranges  0x000004b8      0x168 c:/altera/13.0/nios2eds/bin/gnu/h-i686-mingw32/bin/../lib/gcc/nios2-elf/4.1.2/../../../../nios2-elf/lib\libc.a(lib_a-vfprintf.o)
 .debug_ranges  0x00000620       0xd0 c:/altera/13.0/nios2eds/bin/gnu/h-i686-mingw32/bin/../lib/gcc/nios2-elf/4.1.2/../../../../nios2-elf/lib\libc.a(lib_a-vfscanf.o)
 .debug_ranges  0x000006f0       0x28 c:/altera/13.0/nios2eds/bin/gnu/h-i686-mingw32/bin/../lib/gcc/nios2-elf/4.1.2/../../../../nios2-elf/lib\libc.a(lib_a-fvwrite.o)
 .debug_ranges  0x00000718      0x110 c:/altera/13.0/nios2eds/bin/gnu/h-i686-mingw32/bin/../lib/gcc/nios2-elf/4.1.2/../../../../nios2-elf/lib\libc.a(lib_a-reallocr.o)
 .debug_ranges  0x00000828       0x68 c:/altera/13.0/nios2eds/bin/gnu/h-i686-mingw32/bin/../lib/gcc/nios2-elf/4.1.2/../../../../nios2-elf/lib\libc.a(lib_a-strtod.o)
 .debug_ranges  0x00000890       0x38 c:/altera/13.0/nios2eds/bin/gnu/h-i686-mingw32/bin/../lib/gcc/nios2-elf/4.1.2/../../../../nios2-elf/lib\libc.a(lib_a-callocr.o)
 .debug_ranges  0x000008c8       0x50 c:/altera/13.0/nios2eds/bin/gnu/h-i686-mingw32/bin/../lib/gcc/nios2-elf/4.1.2/../../../../nios2-elf/lib\libc.a(lib_a-gdtoa-gethex.o)
 .debug_ranges  0x00000918      0x188 c:/altera/13.0/nios2eds/bin/gnu/h-i686-mingw32/bin/../lib/gcc/nios2-elf/4.1.2\libgcc.a(_udivdi3.o)
 .debug_ranges  0x00000aa0      0x198 c:/altera/13.0/nios2eds/bin/gnu/h-i686-mingw32/bin/../lib/gcc/nios2-elf/4.1.2\libgcc.a(_umoddi3.o)
 .debug_ranges  0x00000c38       0x50 c:/altera/13.0/nios2eds/bin/gnu/h-i686-mingw32/bin/../lib/gcc/nios2-elf/4.1.2\libgcc.a(_div_df.o)
 .debug_ranges  0x00000c88       0x18 ../WebServer_bsp/\libucosii_bsp.a(altera_avalon_jtag_uart_init.o)
 .debug_ranges  0x00000ca0       0x18 ../WebServer_bsp/\libucosii_bsp.a(altera_avalon_uart_init.o)
 .debug_ranges  0x00000cb8       0x28 ../WebServer_bsp/\libucosii_bsp.a(alt_irq_entry.o)
 .debug_ranges  0x00000ce0       0x30 ../WebServer_bsp/\libucosii_bsp.a(alt_exception_entry.o)
 .debug_ranges  0x00000d10       0x18 c:/altera/13.0/nios2eds/bin/gnu/h-i686-mingw32/bin/../lib/gcc/nios2-elf/4.1.2/../../../../nios2-elf/lib\libc.a(lib_a-__call_atexit.o)
